
build/kernel.sys：     文件格式 elf64-x86-64


Disassembly of section .text:

0000000000401000 <kernelEntry>:
  401000:	f3 0f 1e fa          	endbr64 
  401004:	49 bb 9c be 01 00 00 	movabs $0x1be9c,%r11
  40100b:	00 00 00 
  40100e:	41 57                	push   %r15
  401010:	48 b8 30 b0 fe ff ff 	movabs $0xfffffffffffeb030,%rax
  401017:	ff ff ff 
  40101a:	41 56                	push   %r14
  40101c:	49 89 fe             	mov    %rdi,%r14
  40101f:	41 55                	push   %r13
  401021:	4c 8d 2d dc ff ff ff 	lea    -0x24(%rip),%r13        # 401004 <kernelEntry+0x4>
  401028:	41 54                	push   %r12
  40102a:	4d 01 dd             	add    %r11,%r13
  40102d:	49 bc 20 ff ff ff ff 	movabs $0xffffffffffffff20,%r12
  401034:	ff ff ff 
  401037:	55                   	push   %rbp
  401038:	4d 89 ef             	mov    %r13,%r15
  40103b:	4c 01 e8             	add    %r13,%rax
  40103e:	53                   	push   %rbx
  40103f:	48 bb a0 b0 fe ff ff 	movabs $0xfffffffffffeb0a0,%rbx
  401046:	ff ff ff 
  401049:	4c 01 eb             	add    %r13,%rbx
  40104c:	48 81 ec 28 01 00 00 	sub    $0x128,%rsp
  401053:	48 89 bc 24 80 00 00 	mov    %rdi,0x80(%rsp)
  40105a:	00 
  40105b:	ff d0                	call   *%rax
  40105d:	bf 08 00 00 00       	mov    $0x8,%edi
  401062:	ff d3                	call   *%rbx
  401064:	41 8b 56 08          	mov    0x8(%r14),%edx
  401068:	41 8b 4e 0c          	mov    0xc(%r14),%ecx
  40106c:	48 89 c7             	mov    %rax,%rdi
  40106f:	48 89 c5             	mov    %rax,%rbp
  401072:	49 8b 36             	mov    (%r14),%rsi
  401075:	48 b8 a0 af fe ff ff 	movabs $0xfffffffffffeafa0,%rax
  40107c:	ff ff ff 
  40107f:	4c 01 e8             	add    %r13,%rax
  401082:	ff d0                	call   *%rax
  401084:	48 89 ef             	mov    %rbp,%rdi
  401087:	48 b8 c0 97 fe ff ff 	movabs $0xfffffffffffe97c0,%rax
  40108e:	ff ff ff 
  401091:	4c 01 e8             	add    %r13,%rax
  401094:	ff d0                	call   *%rax
  401096:	48 b8 f0 97 fe ff ff 	movabs $0xfffffffffffe97f0,%rax
  40109d:	ff ff ff 
  4010a0:	4c 01 e8             	add    %r13,%rax
  4010a3:	ff d0                	call   *%rax
  4010a5:	48 89 c7             	mov    %rax,%rdi
  4010a8:	48 b8 50 99 fe ff ff 	movabs $0xfffffffffffe9950,%rax
  4010af:	ff ff ff 
  4010b2:	4c 01 e8             	add    %r13,%rax
  4010b5:	ff d0                	call   *%rax
  4010b7:	bf 10 00 00 00       	mov    $0x10,%edi
  4010bc:	ff d3                	call   *%rbx
  4010be:	48 ba b0 00 00 00 00 	movabs $0xb0,%rdx
  4010c5:	00 00 00 
  4010c8:	4c 01 ea             	add    %r13,%rdx
  4010cb:	48 89 10             	mov    %rdx,(%rax)
  4010ce:	48 ba 80 be fe ff ff 	movabs $0xfffffffffffebe80,%rdx
  4010d5:	ff ff ff 
  4010d8:	4c 01 ea             	add    %r13,%rdx
  4010db:	66 81 3c 25 00 00 20 	cmpw   $0x4d42,0x200000
  4010e2:	00 42 4d 
  4010e5:	48 89 50 08          	mov    %rdx,0x8(%rax)
  4010e9:	4b 8b 14 2c          	mov    (%r12,%r13,1),%rdx
  4010ed:	48 89 02             	mov    %rax,(%rdx)
  4010f0:	75 0f                	jne    401101 <kernelEntry+0x101>
  4010f2:	66 83 3c 25 1c 00 20 	cmpw   $0x18,0x20001c
  4010f9:	00 18 
  4010fb:	0f 84 3d 14 00 00    	je     40253e <kernelEntry+0x153e>
  401101:	48 8b 9c 24 80 00 00 	mov    0x80(%rsp),%rbx
  401108:	00 
  401109:	4d 89 ef             	mov    %r13,%r15
  40110c:	48 b8 b0 c3 fe ff ff 	movabs $0xfffffffffffec3b0,%rax
  401113:	ff ff ff 
  401116:	4c 01 e8             	add    %r13,%rax
  401119:	48 89 df             	mov    %rbx,%rdi
  40111c:	ff d0                	call   *%rax
  40111e:	48 b8 24 0a 00 00 00 	movabs $0xa24,%rax
  401125:	00 00 00 
  401128:	49 8d 7c 05 00       	lea    0x0(%r13,%rax,1),%rdi
  40112d:	48 b8 20 9d fe ff ff 	movabs $0xfffffffffffe9d20,%rax
  401134:	ff ff ff 
  401137:	4c 01 e8             	add    %r13,%rax
  40113a:	ff d0                	call   *%rax
  40113c:	48 83 7b 20 00       	cmpq   $0x0,0x20(%rbx)
  401141:	48 8b 43 18          	mov    0x18(%rbx),%rax
  401145:	0f 84 94 19 00 00    	je     402adf <kernelEntry+0x1adf>
  40114b:	48 89 44 24 18       	mov    %rax,0x18(%rsp)
  401150:	48 b8 f0 9c fe ff ff 	movabs $0xfffffffffffe9cf0,%rax
  401157:	ff ff ff 
  40115a:	48 b9 c3 09 00 00 00 	movabs $0x9c3,%rcx
  401161:	00 00 00 
  401164:	48 8d b4 24 00 01 00 	lea    0x100(%rsp),%rsi
  40116b:	00 
  40116c:	48 89 84 24 88 00 00 	mov    %rax,0x88(%rsp)
  401173:	00 
  401174:	4c 01 e8             	add    %r13,%rax
  401177:	48 89 44 24 10       	mov    %rax,0x10(%rsp)
  40117c:	48 b8 00 d7 fe ff ff 	movabs $0xfffffffffffed700,%rax
  401183:	ff ff ff 
  401186:	4e 8d 34 28          	lea    (%rax,%r13,1),%r14
  40118a:	48 b8 97 09 00 00 00 	movabs $0x997,%rax
  401191:	00 00 00 
  401194:	48 89 4c 24 78       	mov    %rcx,0x78(%rsp)
  401199:	48 b9 d8 ff ff ff ff 	movabs $0xffffffffffffffd8,%rcx
  4011a0:	ff ff ff 
  4011a3:	48 89 44 24 40       	mov    %rax,0x40(%rsp)
  4011a8:	48 b8 6f 09 00 00 00 	movabs $0x96f,%rax
  4011af:	00 00 00 
  4011b2:	48 89 4c 24 58       	mov    %rcx,0x58(%rsp)
  4011b7:	48 b9 6d 09 00 00 00 	movabs $0x96d,%rcx
  4011be:	00 00 00 
  4011c1:	48 89 84 24 c8 00 00 	mov    %rax,0xc8(%rsp)
  4011c8:	00 
  4011c9:	48 b8 44 0a 00 00 00 	movabs $0xa44,%rax
  4011d0:	00 00 00 
  4011d3:	48 89 4c 24 70       	mov    %rcx,0x70(%rsp)
  4011d8:	48 b9 98 0a 00 00 00 	movabs $0xa98,%rcx
  4011df:	00 00 00 
  4011e2:	48 89 84 24 d0 00 00 	mov    %rax,0xd0(%rsp)
  4011e9:	00 
  4011ea:	48 b8 37 0a 00 00 00 	movabs $0xa37,%rax
  4011f1:	00 00 00 
  4011f4:	48 89 8c 24 a0 00 00 	mov    %rcx,0xa0(%rsp)
  4011fb:	00 
  4011fc:	48 b9 28 0b 00 00 00 	movabs $0xb28,%rcx
  401203:	00 00 00 
  401206:	48 89 84 24 d8 00 00 	mov    %rax,0xd8(%rsp)
  40120d:	00 
  40120e:	48 b8 20 0b 00 00 00 	movabs $0xb20,%rax
  401215:	00 00 00 
  401218:	48 89 8c 24 98 00 00 	mov    %rcx,0x98(%rsp)
  40121f:	00 
  401220:	48 8d 8c 24 f0 00 00 	lea    0xf0(%rsp),%rcx
  401227:	00 
  401228:	48 89 44 24 48       	mov    %rax,0x48(%rsp)
  40122d:	48 b8 30 0b 00 00 00 	movabs $0xb30,%rax
  401234:	00 00 00 
  401237:	48 c7 84 24 b8 00 00 	movq   $0x0,0xb8(%rsp)
  40123e:	00 00 00 00 00 
  401243:	48 c7 84 24 a8 00 00 	movq   $0x0,0xa8(%rsp)
  40124a:	00 00 00 00 00 
  40124f:	48 c7 44 24 28 00 00 	movq   $0x0,0x28(%rsp)
  401256:	00 00 
  401258:	48 89 74 24 20       	mov    %rsi,0x20(%rsp)
  40125d:	48 89 8c 24 90 00 00 	mov    %rcx,0x90(%rsp)
  401264:	00 
  401265:	48 89 84 24 c0 00 00 	mov    %rax,0xc0(%rsp)
  40126c:	00 
  40126d:	4c 89 34 24          	mov    %r14,(%rsp)
  401271:	0f 1f 80 00 00 00 00 	nopl   0x0(%rax)
  401278:	48 8b 44 24 10       	mov    0x10(%rsp),%rax
  40127d:	bf b8 b8 b8 00       	mov    $0xb8b8b8,%edi
  401282:	4d 89 ef             	mov    %r13,%r15
  401285:	ff d0                	call   *%rax
  401287:	4b 8b 04 2c          	mov    (%r12,%r13,1),%rax
  40128b:	4c 8b 00             	mov    (%rax),%r8
  40128e:	4d 85 c0             	test   %r8,%r8
  401291:	74 19                	je     4012ac <kernelEntry+0x2ac>
  401293:	49 8b 00             	mov    (%r8),%rax
  401296:	48 8b 00             	mov    (%rax),%rax
  401299:	48 3b 04 24          	cmp    (%rsp),%rax
  40129d:	0f 85 bc 10 00 00    	jne    40235f <kernelEntry+0x135f>
  4012a3:	bf 5b 00 00 00       	mov    $0x5b,%edi
  4012a8:	41 ff 50 08          	call   *0x8(%r8)
  4012ac:	48 8b 44 24 10       	mov    0x10(%rsp),%rax
  4012b1:	bf 70 80 01 00       	mov    $0x18070,%edi
  4012b6:	4d 89 ef             	mov    %r13,%r15
  4012b9:	ff d0                	call   *%rax
  4012bb:	4b 8b 1c 2c          	mov    (%r12,%r13,1),%rbx
  4012bf:	48 8b 44 24 78       	mov    0x78(%rsp),%rax
  4012c4:	4c 8b 34 24          	mov    (%rsp),%r14
  4012c8:	4c 8b 03             	mov    (%rbx),%r8
  4012cb:	4a 8d 2c 28          	lea    (%rax,%r13,1),%rbp
  4012cf:	b8 44 00 00 00       	mov    $0x44,%eax
  4012d4:	4d 85 c0             	test   %r8,%r8
  4012d7:	74 31                	je     40130a <kernelEntry+0x30a>
  4012d9:	0f 1f 80 00 00 00 00 	nopl   0x0(%rax)
  4012e0:	49 8b 10             	mov    (%r8),%rdx
  4012e3:	0f b6 f8             	movzbl %al,%edi
  4012e6:	48 8b 12             	mov    (%rdx),%rdx
  4012e9:	4c 39 f2             	cmp    %r14,%rdx
  4012ec:	0f 85 f6 06 00 00    	jne    4019e8 <kernelEntry+0x9e8>
  4012f2:	41 ff 50 08          	call   *0x8(%r8)
  4012f6:	0f b6 45 00          	movzbl 0x0(%rbp),%eax
  4012fa:	84 c0                	test   %al,%al
  4012fc:	74 0c                	je     40130a <kernelEntry+0x30a>
  4012fe:	4c 8b 03             	mov    (%rbx),%r8
  401301:	48 83 c5 01          	add    $0x1,%rbp
  401305:	4d 85 c0             	test   %r8,%r8
  401308:	75 d6                	jne    4012e0 <kernelEntry+0x2e0>
  40130a:	48 8b 44 24 10       	mov    0x10(%rsp),%rax
  40130f:	bf b8 b8 b8 00       	mov    $0xb8b8b8,%edi
  401314:	4d 89 ef             	mov    %r13,%r15
  401317:	ff d0                	call   *%rax
  401319:	4b 8b 04 2c          	mov    (%r12,%r13,1),%rax
  40131d:	4c 8b 00             	mov    (%rax),%r8
  401320:	4d 85 c0             	test   %r8,%r8
  401323:	74 19                	je     40133e <kernelEntry+0x33e>
  401325:	49 8b 00             	mov    (%r8),%rax
  401328:	48 8b 00             	mov    (%rax),%rax
  40132b:	48 3b 04 24          	cmp    (%rsp),%rax
  40132f:	0f 85 e7 0f 00 00    	jne    40231c <kernelEntry+0x131c>
  401335:	bf 5d 00 00 00       	mov    $0x5d,%edi
  40133a:	41 ff 50 08          	call   *0x8(%r8)
  40133e:	48 8b 44 24 10       	mov    0x10(%rsp),%rax
  401343:	bf 60 be 60 00       	mov    $0x60be60,%edi
  401348:	4d 89 ef             	mov    %r13,%r15
  40134b:	ff d0                	call   *%rax
  40134d:	4b 8b 1c 2c          	mov    (%r12,%r13,1),%rbx
  401351:	4c 8b 03             	mov    (%rbx),%r8
  401354:	4d 85 c0             	test   %r8,%r8
  401357:	74 1c                	je     401375 <kernelEntry+0x375>
  401359:	49 8b 00             	mov    (%r8),%rax
  40135c:	48 8b 00             	mov    (%rax),%rax
  40135f:	48 3b 04 24          	cmp    (%rsp),%rax
  401363:	0f 85 c2 0f 00 00    	jne    40232b <kernelEntry+0x132b>
  401369:	bf 28 00 00 00       	mov    $0x28,%edi
  40136e:	41 ff 50 08          	call   *0x8(%r8)
  401372:	4c 8b 03             	mov    (%rbx),%r8
  401375:	48 8b 44 24 58       	mov    0x58(%rsp),%rax
  40137a:	4a 8b 04 28          	mov    (%rax,%r13,1),%rax
  40137e:	48 8b 18             	mov    (%rax),%rbx
  401381:	0f b6 03             	movzbl (%rbx),%eax
  401384:	84 c0                	test   %al,%al
  401386:	74 36                	je     4013be <kernelEntry+0x3be>
  401388:	4c 8b 34 24          	mov    (%rsp),%r14
  40138c:	31 ed                	xor    %ebp,%ebp
  40138e:	eb 29                	jmp    4013b9 <kernelEntry+0x3b9>
  401390:	49 8b 10             	mov    (%r8),%rdx
  401393:	0f b6 f8             	movzbl %al,%edi
  401396:	48 8b 12             	mov    (%rdx),%rdx
  401399:	4c 39 f2             	cmp    %r14,%rdx
  40139c:	0f 85 2e 06 00 00    	jne    4019d0 <kernelEntry+0x9d0>
  4013a2:	41 ff 50 08          	call   *0x8(%r8)
  4013a6:	4b 8b 04 2c          	mov    (%r12,%r13,1),%rax
  4013aa:	4c 8b 00             	mov    (%rax),%r8
  4013ad:	48 83 c5 01          	add    $0x1,%rbp
  4013b1:	0f b6 04 2b          	movzbl (%rbx,%rbp,1),%eax
  4013b5:	84 c0                	test   %al,%al
  4013b7:	74 05                	je     4013be <kernelEntry+0x3be>
  4013b9:	4d 85 c0             	test   %r8,%r8
  4013bc:	75 d2                	jne    401390 <kernelEntry+0x390>
  4013be:	48 8b 44 24 70       	mov    0x70(%rsp),%rax
  4013c3:	48 8b 2c 24          	mov    (%rsp),%rbp
  4013c7:	4a 8d 1c 28          	lea    (%rax,%r13,1),%rbx
  4013cb:	b8 29 00 00 00       	mov    $0x29,%eax
  4013d0:	eb 1c                	jmp    4013ee <kernelEntry+0x3ee>
  4013d2:	66 0f 1f 44 00 00    	nopw   0x0(%rax,%rax,1)
  4013d8:	41 ff 50 08          	call   *0x8(%r8)
  4013dc:	0f b6 03             	movzbl (%rbx),%eax
  4013df:	48 83 c3 01          	add    $0x1,%rbx
  4013e3:	84 c0                	test   %al,%al
  4013e5:	74 31                	je     401418 <kernelEntry+0x418>
  4013e7:	4b 8b 14 2c          	mov    (%r12,%r13,1),%rdx
  4013eb:	4c 8b 02             	mov    (%rdx),%r8
  4013ee:	4d 85 c0             	test   %r8,%r8
  4013f1:	74 e9                	je     4013dc <kernelEntry+0x3dc>
  4013f3:	49 8b 10             	mov    (%r8),%rdx
  4013f6:	0f b6 f8             	movzbl %al,%edi
  4013f9:	48 8b 12             	mov    (%rdx),%rdx
  4013fc:	48 39 ea             	cmp    %rbp,%rdx
  4013ff:	74 d7                	je     4013d8 <kernelEntry+0x3d8>
  401401:	48 83 c3 01          	add    $0x1,%rbx
  401405:	89 fe                	mov    %edi,%esi
  401407:	4c 89 c7             	mov    %r8,%rdi
  40140a:	ff d2                	call   *%rdx
  40140c:	0f b6 43 ff          	movzbl -0x1(%rbx),%eax
  401410:	84 c0                	test   %al,%al
  401412:	75 d3                	jne    4013e7 <kernelEntry+0x3e7>
  401414:	0f 1f 40 00          	nopl   0x0(%rax)
  401418:	48 8b 44 24 10       	mov    0x10(%rsp),%rax
  40141d:	4d 89 ef             	mov    %r13,%r15
  401420:	bf b8 b8 b8 00       	mov    $0xb8b8b8,%edi
  401425:	bb 63 00 00 00       	mov    $0x63,%ebx
  40142a:	ff d0                	call   *%rax
  40142c:	48 8b 44 24 18       	mov    0x18(%rsp),%rax
  401431:	f3 0f 6f 08          	movdqu (%rax),%xmm1
  401435:	0f b7 70 04          	movzwl 0x4(%rax),%esi
  401439:	8b 28                	mov    (%rax),%ebp
  40143b:	0f b7 40 06          	movzwl 0x6(%rax),%eax
  40143f:	66 89 74 24 50       	mov    %si,0x50(%rsp)
  401444:	66 89 44 24 30       	mov    %ax,0x30(%rsp)
  401449:	4b 8b 04 2c          	mov    (%r12,%r13,1),%rax
  40144d:	0f 29 4c 24 60       	movaps %xmm1,0x60(%rsp)
  401452:	4c 8b 38             	mov    (%rax),%r15
  401455:	48 8b 84 24 a0 00 00 	mov    0xa0(%rsp),%rax
  40145c:	00 
  40145d:	4e 8d 34 28          	lea    (%rax,%r13,1),%r14
  401461:	eb 08                	jmp    40146b <kernelEntry+0x46b>
  401463:	0f 1f 44 00 00       	nopl   0x0(%rax,%rax,1)
  401468:	4d 89 c7             	mov    %r8,%r15
  40146b:	4d 85 ff             	test   %r15,%r15
  40146e:	0f 84 c4 05 00 00    	je     401a38 <kernelEntry+0xa38>
  401474:	49 8b 07             	mov    (%r15),%rax
  401477:	0f b6 fb             	movzbl %bl,%edi
  40147a:	48 8b 00             	mov    (%rax),%rax
  40147d:	48 3b 04 24          	cmp    (%rsp),%rax
  401481:	0f 85 b9 05 00 00    	jne    401a40 <kernelEntry+0xa40>
  401487:	41 ff 57 08          	call   *0x8(%r15)
  40148b:	4b 8b 04 2c          	mov    (%r12,%r13,1),%rax
  40148f:	4c 8b 00             	mov    (%rax),%r8
  401492:	41 0f b6 5e 01       	movzbl 0x1(%r14),%ebx
  401497:	84 db                	test   %bl,%bl
  401499:	74 30                	je     4014cb <kernelEntry+0x4cb>
  40149b:	80 fb 40             	cmp    $0x40,%bl
  40149e:	0f 84 54 05 00 00    	je     4019f8 <kernelEntry+0x9f8>
  4014a4:	49 83 c6 01          	add    $0x1,%r14
  4014a8:	4d 85 ff             	test   %r15,%r15
  4014ab:	75 bb                	jne    401468 <kernelEntry+0x468>
  4014ad:	41 0f b6 46 01       	movzbl 0x1(%r14),%eax
  4014b2:	84 c0                	test   %al,%al
  4014b4:	74 15                	je     4014cb <kernelEntry+0x4cb>
  4014b6:	3c 40                	cmp    $0x40,%al
  4014b8:	0f 84 5a 05 00 00    	je     401a18 <kernelEntry+0xa18>
  4014be:	41 0f b6 46 02       	movzbl 0x2(%r14),%eax
  4014c3:	49 83 c6 01          	add    $0x1,%r14
  4014c7:	84 c0                	test   %al,%al
  4014c9:	75 eb                	jne    4014b6 <kernelEntry+0x4b6>
  4014cb:	4d 85 c0             	test   %r8,%r8
  4014ce:	74 19                	je     4014e9 <kernelEntry+0x4e9>
  4014d0:	49 8b 00             	mov    (%r8),%rax
  4014d3:	48 8b 00             	mov    (%rax),%rax
  4014d6:	48 3b 04 24          	cmp    (%rsp),%rax
  4014da:	0f 85 70 0e 00 00    	jne    402350 <kernelEntry+0x1350>
  4014e0:	bf 0a 00 00 00       	mov    $0xa,%edi
  4014e5:	41 ff 50 08          	call   *0x8(%r8)
  4014e9:	48 b8 30 2d 9d eb 88 	movabs $0x11d32d88eb9d2d30,%rax
  4014f0:	2d d3 11 
  4014f3:	48 8b 7c 24 18       	mov    0x18(%rsp),%rdi
  4014f8:	48 8b 74 24 20       	mov    0x20(%rsp),%rsi
  4014fd:	48 89 84 24 00 01 00 	mov    %rax,0x100(%rsp)
  401504:	00 
  401505:	48 8b 84 24 98 00 00 	mov    0x98(%rsp),%rax
  40150c:	00 
  40150d:	f3 0f 6f 17          	movdqu (%rdi),%xmm2
  401511:	4a 8b 04 28          	mov    (%rax,%r13,1),%rax
  401515:	0f 29 54 24 30       	movaps %xmm2,0x30(%rsp)
  40151a:	48 8b 54 24 30       	mov    0x30(%rsp),%rdx
  40151f:	48 89 84 24 08 01 00 	mov    %rax,0x108(%rsp)
  401526:	00 
  401527:	48 8b 84 24 90 00 00 	mov    0x90(%rsp),%rax
  40152e:	00 
  40152f:	48 8b 4e 08          	mov    0x8(%rsi),%rcx
  401533:	48 8b 1e             	mov    (%rsi),%rbx
  401536:	0f 29 94 24 f0 00 00 	movaps %xmm2,0xf0(%rsp)
  40153d:	00 
  40153e:	48 8b 40 08          	mov    0x8(%rax),%rax
  401542:	48 31 d3             	xor    %rdx,%rbx
  401545:	48 31 c1             	xor    %rax,%rcx
  401548:	48 09 d9             	or     %rbx,%rcx
  40154b:	0f 85 07 05 00 00    	jne    401a58 <kernelEntry+0xa58>
  401551:	48 8b 47 10          	mov    0x10(%rdi),%rax
  401555:	48 89 84 24 a8 00 00 	mov    %rax,0xa8(%rsp)
  40155c:	00 
  40155d:	48 8b 8c 24 80 00 00 	mov    0x80(%rsp),%rcx
  401564:	00 
  401565:	48 83 44 24 28 01    	addq   $0x1,0x28(%rsp)
  40156b:	48 83 44 24 18 18    	addq   $0x18,0x18(%rsp)
  401571:	48 8b 44 24 28       	mov    0x28(%rsp),%rax
  401576:	48 39 41 20          	cmp    %rax,0x20(%rcx)
  40157a:	0f 87 f8 fc ff ff    	ja     401278 <kernelEntry+0x278>
  401580:	48 8b 84 24 88 00 00 	mov    0x88(%rsp),%rax
  401587:	00 
  401588:	bf b8 b8 b8 00       	mov    $0xb8b8b8,%edi
  40158d:	4d 89 ef             	mov    %r13,%r15
  401590:	4c 01 e8             	add    %r13,%rax
  401593:	ff d0                	call   *%rax
  401595:	4b 8b 04 2c          	mov    (%r12,%r13,1),%rax
  401599:	48 8b 38             	mov    (%rax),%rdi
  40159c:	48 85 ff             	test   %rdi,%rdi
  40159f:	74 0a                	je     4015ab <kernelEntry+0x5ab>
  4015a1:	48 8b 07             	mov    (%rdi),%rax
  4015a4:	be 5b 00 00 00       	mov    $0x5b,%esi
  4015a9:	ff 10                	call   *(%rax)
  4015ab:	48 8b 84 24 88 00 00 	mov    0x88(%rsp),%rax
  4015b2:	00 
  4015b3:	bf 70 80 01 00       	mov    $0x18070,%edi
  4015b8:	4d 89 ef             	mov    %r13,%r15
  4015bb:	4c 01 e8             	add    %r13,%rax
  4015be:	ff d0                	call   *%rax
  4015c0:	48 8b 44 24 78       	mov    0x78(%rsp),%rax
  4015c5:	4b 8b 1c 2c          	mov    (%r12,%r13,1),%rbx
  4015c9:	4a 8d 2c 28          	lea    (%rax,%r13,1),%rbp
  4015cd:	b8 44 00 00 00       	mov    $0x44,%eax
  4015d2:	eb 18                	jmp    4015ec <kernelEntry+0x5ec>
  4015d4:	0f 1f 40 00          	nopl   0x0(%rax)
  4015d8:	0f b6 f0             	movzbl %al,%esi
  4015db:	48 8b 07             	mov    (%rdi),%rax
  4015de:	ff 10                	call   *(%rax)
  4015e0:	0f b6 45 00          	movzbl 0x0(%rbp),%eax
  4015e4:	84 c0                	test   %al,%al
  4015e6:	74 0c                	je     4015f4 <kernelEntry+0x5f4>
  4015e8:	48 83 c5 01          	add    $0x1,%rbp
  4015ec:	48 8b 3b             	mov    (%rbx),%rdi
  4015ef:	48 85 ff             	test   %rdi,%rdi
  4015f2:	75 e4                	jne    4015d8 <kernelEntry+0x5d8>
  4015f4:	48 8b 84 24 88 00 00 	mov    0x88(%rsp),%rax
  4015fb:	00 
  4015fc:	bf b8 b8 b8 00       	mov    $0xb8b8b8,%edi
  401601:	4d 89 ef             	mov    %r13,%r15
  401604:	4c 01 e8             	add    %r13,%rax
  401607:	ff d0                	call   *%rax
  401609:	4b 8b 04 2c          	mov    (%r12,%r13,1),%rax
  40160d:	48 8b 38             	mov    (%rax),%rdi
  401610:	48 85 ff             	test   %rdi,%rdi
  401613:	74 0a                	je     40161f <kernelEntry+0x61f>
  401615:	48 8b 07             	mov    (%rdi),%rax
  401618:	be 5d 00 00 00       	mov    $0x5d,%esi
  40161d:	ff 10                	call   *(%rax)
  40161f:	48 8b 84 24 88 00 00 	mov    0x88(%rsp),%rax
  401626:	00 
  401627:	bf 60 be 60 00       	mov    $0x60be60,%edi
  40162c:	4d 89 ef             	mov    %r13,%r15
  40162f:	4c 01 e8             	add    %r13,%rax
  401632:	ff d0                	call   *%rax
  401634:	4b 8b 04 2c          	mov    (%r12,%r13,1),%rax
  401638:	48 8b 38             	mov    (%rax),%rdi
  40163b:	48 85 ff             	test   %rdi,%rdi
  40163e:	74 0a                	je     40164a <kernelEntry+0x64a>
  401640:	48 8b 07             	mov    (%rdi),%rax
  401643:	be 28 00 00 00       	mov    $0x28,%esi
  401648:	ff 10                	call   *(%rax)
  40164a:	48 8b 44 24 58       	mov    0x58(%rsp),%rax
  40164f:	4b 8b 14 2c          	mov    (%r12,%r13,1),%rdx
  401653:	4a 8b 04 28          	mov    (%rax,%r13,1),%rax
  401657:	4c 8b 02             	mov    (%rdx),%r8
  40165a:	48 8b 18             	mov    (%rax),%rbx
  40165d:	0f b6 03             	movzbl (%rbx),%eax
  401660:	84 c0                	test   %al,%al
  401662:	74 48                	je     4016ac <kernelEntry+0x6ac>
  401664:	48 bd 00 d7 fe ff ff 	movabs $0xfffffffffffed700,%rbp
  40166b:	ff ff ff 
  40166e:	45 31 f6             	xor    %r14d,%r14d
  401671:	eb 34                	jmp    4016a7 <kernelEntry+0x6a7>
  401673:	0f 1f 44 00 00       	nopl   0x0(%rax,%rax,1)
  401678:	49 8b 10             	mov    (%r8),%rdx
  40167b:	0f b6 f8             	movzbl %al,%edi
  40167e:	4a 8d 44 2d 00       	lea    0x0(%rbp,%r13,1),%rax
  401683:	48 8b 12             	mov    (%rdx),%rdx
  401686:	48 39 c2             	cmp    %rax,%rdx
  401689:	0f 85 ae 0c 00 00    	jne    40233d <kernelEntry+0x133d>
  40168f:	41 ff 50 08          	call   *0x8(%r8)
  401693:	4b 8b 04 2c          	mov    (%r12,%r13,1),%rax
  401697:	4c 8b 00             	mov    (%rax),%r8
  40169a:	49 83 c6 01          	add    $0x1,%r14
  40169e:	42 0f b6 04 33       	movzbl (%rbx,%r14,1),%eax
  4016a3:	84 c0                	test   %al,%al
  4016a5:	74 05                	je     4016ac <kernelEntry+0x6ac>
  4016a7:	4d 85 c0             	test   %r8,%r8
  4016aa:	75 cc                	jne    401678 <kernelEntry+0x678>
  4016ac:	48 bb 00 d7 fe ff ff 	movabs $0xfffffffffffed700,%rbx
  4016b3:	ff ff ff 
  4016b6:	48 8b 44 24 70       	mov    0x70(%rsp),%rax
  4016bb:	4a 8d 2c 28          	lea    (%rax,%r13,1),%rbp
  4016bf:	b8 29 00 00 00       	mov    $0x29,%eax
  4016c4:	49 89 ee             	mov    %rbp,%r14
  4016c7:	eb 1e                	jmp    4016e7 <kernelEntry+0x6e7>
  4016c9:	0f 1f 80 00 00 00 00 	nopl   0x0(%rax)
  4016d0:	41 ff 50 08          	call   *0x8(%r8)
  4016d4:	41 0f b6 06          	movzbl (%r14),%eax
  4016d8:	49 83 c6 01          	add    $0x1,%r14
  4016dc:	84 c0                	test   %al,%al
  4016de:	74 32                	je     401712 <kernelEntry+0x712>
  4016e0:	4b 8b 14 2c          	mov    (%r12,%r13,1),%rdx
  4016e4:	4c 8b 02             	mov    (%rdx),%r8
  4016e7:	4d 85 c0             	test   %r8,%r8
  4016ea:	74 e8                	je     4016d4 <kernelEntry+0x6d4>
  4016ec:	49 8b 10             	mov    (%r8),%rdx
  4016ef:	0f b6 f8             	movzbl %al,%edi
  4016f2:	4a 8d 04 2b          	lea    (%rbx,%r13,1),%rax
  4016f6:	48 8b 12             	mov    (%rdx),%rdx
  4016f9:	48 39 c2             	cmp    %rax,%rdx
  4016fc:	74 d2                	je     4016d0 <kernelEntry+0x6d0>
  4016fe:	49 83 c6 01          	add    $0x1,%r14
  401702:	89 fe                	mov    %edi,%esi
  401704:	4c 89 c7             	mov    %r8,%rdi
  401707:	ff d2                	call   *%rdx
  401709:	41 0f b6 46 ff       	movzbl -0x1(%r14),%eax
  40170e:	84 c0                	test   %al,%al
  401710:	75 ce                	jne    4016e0 <kernelEntry+0x6e0>
  401712:	48 8b 84 24 88 00 00 	mov    0x88(%rsp),%rax
  401719:	00 
  40171a:	4d 89 ef             	mov    %r13,%r15
  40171d:	bf b8 b8 b8 00       	mov    $0xb8b8b8,%edi
  401722:	4c 01 e8             	add    %r13,%rax
  401725:	ff d0                	call   *%rax
  401727:	4b 8b 04 2c          	mov    (%r12,%r13,1),%rax
  40172b:	41 ba 61 00 00 00    	mov    $0x61,%r10d
  401731:	4c 8b 38             	mov    (%rax),%r15
  401734:	48 b8 12 0a 00 00 00 	movabs $0xa12,%rax
  40173b:	00 00 00 
  40173e:	49 8d 5c 05 00       	lea    0x0(%r13,%rax,1),%rbx
  401743:	48 b8 00 d7 fe ff ff 	movabs $0xfffffffffffed700,%rax
  40174a:	ff ff ff 
  40174d:	48 89 04 24          	mov    %rax,(%rsp)
  401751:	eb 08                	jmp    40175b <kernelEntry+0x75b>
  401753:	0f 1f 44 00 00       	nopl   0x0(%rax,%rax,1)
  401758:	49 89 ff             	mov    %rdi,%r15
  40175b:	4d 85 ff             	test   %r15,%r15
  40175e:	0f 84 4c 0c 00 00    	je     4023b0 <kernelEntry+0x13b0>
  401764:	49 8b 07             	mov    (%r15),%rax
  401767:	48 8b 0c 24          	mov    (%rsp),%rcx
  40176b:	41 0f b6 fa          	movzbl %r10b,%edi
  40176f:	48 8b 00             	mov    (%rax),%rax
  401772:	4a 8d 14 29          	lea    (%rcx,%r13,1),%rdx
  401776:	48 39 d0             	cmp    %rdx,%rax
  401779:	0f 85 41 0c 00 00    	jne    4023c0 <kernelEntry+0x13c0>
  40177f:	41 ff 57 08          	call   *0x8(%r15)
  401783:	4b 8b 04 2c          	mov    (%r12,%r13,1),%rax
  401787:	48 8b 38             	mov    (%rax),%rdi
  40178a:	44 0f b6 53 01       	movzbl 0x1(%rbx),%r10d
  40178f:	45 84 d2             	test   %r10b,%r10b
  401792:	74 2f                	je     4017c3 <kernelEntry+0x7c3>
  401794:	41 80 fa 40          	cmp    $0x40,%r10b
  401798:	0f 84 d2 0b 00 00    	je     402370 <kernelEntry+0x1370>
  40179e:	48 83 c3 01          	add    $0x1,%rbx
  4017a2:	4d 85 ff             	test   %r15,%r15
  4017a5:	75 b1                	jne    401758 <kernelEntry+0x758>
  4017a7:	0f b6 43 01          	movzbl 0x1(%rbx),%eax
  4017ab:	84 c0                	test   %al,%al
  4017ad:	74 14                	je     4017c3 <kernelEntry+0x7c3>
  4017af:	3c 40                	cmp    $0x40,%al
  4017b1:	0f 84 d9 0b 00 00    	je     402390 <kernelEntry+0x1390>
  4017b7:	0f b6 43 02          	movzbl 0x2(%rbx),%eax
  4017bb:	48 83 c3 01          	add    $0x1,%rbx
  4017bf:	84 c0                	test   %al,%al
  4017c1:	75 ec                	jne    4017af <kernelEntry+0x7af>
  4017c3:	48 85 ff             	test   %rdi,%rdi
  4017c6:	74 0a                	je     4017d2 <kernelEntry+0x7d2>
  4017c8:	48 8b 07             	mov    (%rdi),%rax
  4017cb:	be 0a 00 00 00       	mov    $0xa,%esi
  4017d0:	ff 10                	call   *(%rax)
  4017d2:	48 8b bc 24 b8 00 00 	mov    0xb8(%rsp),%rdi
  4017d9:	00 
  4017da:	48 85 ff             	test   %rdi,%rdi
  4017dd:	0f 84 7c 0e 00 00    	je     40265f <kernelEntry+0x165f>
  4017e3:	48 b8 d0 a4 fe ff ff 	movabs $0xfffffffffffea4d0,%rax
  4017ea:	ff ff ff 
  4017ed:	4d 89 ef             	mov    %r13,%r15
  4017f0:	4c 01 e8             	add    %r13,%rax
  4017f3:	ff d0                	call   *%rax
  4017f5:	48 8b 84 24 88 00 00 	mov    0x88(%rsp),%rax
  4017fc:	00 
  4017fd:	bf b8 b8 b8 00       	mov    $0xb8b8b8,%edi
  401802:	4c 01 e8             	add    %r13,%rax
  401805:	ff d0                	call   *%rax
  401807:	4b 8b 04 2c          	mov    (%r12,%r13,1),%rax
  40180b:	48 8b 38             	mov    (%rax),%rdi
  40180e:	48 85 ff             	test   %rdi,%rdi
  401811:	74 0a                	je     40181d <kernelEntry+0x81d>
  401813:	48 8b 07             	mov    (%rdi),%rax
  401816:	be 5b 00 00 00       	mov    $0x5b,%esi
  40181b:	ff 10                	call   *(%rax)
  40181d:	48 8b 84 24 88 00 00 	mov    0x88(%rsp),%rax
  401824:	00 
  401825:	bf 40 cc 2e 00       	mov    $0x2ecc40,%edi
  40182a:	4d 89 ef             	mov    %r13,%r15
  40182d:	4c 01 e8             	add    %r13,%rax
  401830:	ff d0                	call   *%rax
  401832:	4b 8b 1c 2c          	mov    (%r12,%r13,1),%rbx
  401836:	48 b8 68 09 00 00 00 	movabs $0x968,%rax
  40183d:	00 00 00 
  401840:	4d 8d 74 05 00       	lea    0x0(%r13,%rax,1),%r14
  401845:	b8 49 00 00 00       	mov    $0x49,%eax
  40184a:	eb 18                	jmp    401864 <kernelEntry+0x864>
  40184c:	0f 1f 40 00          	nopl   0x0(%rax)
  401850:	0f b6 f0             	movzbl %al,%esi
  401853:	48 8b 07             	mov    (%rdi),%rax
  401856:	ff 10                	call   *(%rax)
  401858:	41 0f b6 06          	movzbl (%r14),%eax
  40185c:	84 c0                	test   %al,%al
  40185e:	74 0c                	je     40186c <kernelEntry+0x86c>
  401860:	49 83 c6 01          	add    $0x1,%r14
  401864:	48 8b 3b             	mov    (%rbx),%rdi
  401867:	48 85 ff             	test   %rdi,%rdi
  40186a:	75 e4                	jne    401850 <kernelEntry+0x850>
  40186c:	48 8b 84 24 88 00 00 	mov    0x88(%rsp),%rax
  401873:	00 
  401874:	bf b8 b8 b8 00       	mov    $0xb8b8b8,%edi
  401879:	4d 89 ef             	mov    %r13,%r15
  40187c:	4c 01 e8             	add    %r13,%rax
  40187f:	ff d0                	call   *%rax
  401881:	4b 8b 04 2c          	mov    (%r12,%r13,1),%rax
  401885:	48 8b 38             	mov    (%rax),%rdi
  401888:	48 85 ff             	test   %rdi,%rdi
  40188b:	74 0a                	je     401897 <kernelEntry+0x897>
  40188d:	48 8b 07             	mov    (%rdi),%rax
  401890:	be 5d 00 00 00       	mov    $0x5d,%esi
  401895:	ff 10                	call   *(%rax)
  401897:	48 8b 84 24 88 00 00 	mov    0x88(%rsp),%rax
  40189e:	00 
  40189f:	bf 60 be 60 00       	mov    $0x60be60,%edi
  4018a4:	4d 89 ef             	mov    %r13,%r15
  4018a7:	4c 01 e8             	add    %r13,%rax
  4018aa:	ff d0                	call   *%rax
  4018ac:	4b 8b 04 2c          	mov    (%r12,%r13,1),%rax
  4018b0:	48 8b 38             	mov    (%rax),%rdi
  4018b3:	48 85 ff             	test   %rdi,%rdi
  4018b6:	74 0a                	je     4018c2 <kernelEntry+0x8c2>
  4018b8:	48 8b 07             	mov    (%rdi),%rax
  4018bb:	be 28 00 00 00       	mov    $0x28,%esi
  4018c0:	ff 10                	call   *(%rax)
  4018c2:	48 8b 44 24 58       	mov    0x58(%rsp),%rax
  4018c7:	4b 8b 14 2c          	mov    (%r12,%r13,1),%rdx
  4018cb:	48 b9 00 d7 fe ff ff 	movabs $0xfffffffffffed700,%rcx
  4018d2:	ff ff ff 
  4018d5:	48 89 0c 24          	mov    %rcx,(%rsp)
  4018d9:	4a 8b 04 28          	mov    (%rax,%r13,1),%rax
  4018dd:	4c 8b 02             	mov    (%rdx),%r8
  4018e0:	48 8b 18             	mov    (%rax),%rbx
  4018e3:	0f b6 03             	movzbl (%rbx),%eax
  4018e6:	84 c0                	test   %al,%al
  4018e8:	74 3d                	je     401927 <kernelEntry+0x927>
  4018ea:	45 31 f6             	xor    %r14d,%r14d
  4018ed:	4e 8d 3c 29          	lea    (%rcx,%r13,1),%r15
  4018f1:	0f 1f 80 00 00 00 00 	nopl   0x0(%rax)
  4018f8:	4d 85 c0             	test   %r8,%r8
  4018fb:	74 2a                	je     401927 <kernelEntry+0x927>
  4018fd:	49 8b 10             	mov    (%r8),%rdx
  401900:	0f b6 f8             	movzbl %al,%edi
  401903:	48 8b 12             	mov    (%rdx),%rdx
  401906:	4c 39 fa             	cmp    %r15,%rdx
  401909:	0f 85 c4 0a 00 00    	jne    4023d3 <kernelEntry+0x13d3>
  40190f:	41 ff 50 08          	call   *0x8(%r8)
  401913:	4b 8b 04 2c          	mov    (%r12,%r13,1),%rax
  401917:	4c 8b 00             	mov    (%rax),%r8
  40191a:	49 83 c6 01          	add    $0x1,%r14
  40191e:	42 0f b6 04 33       	movzbl (%rbx,%r14,1),%eax
  401923:	84 c0                	test   %al,%al
  401925:	75 d1                	jne    4018f8 <kernelEntry+0x8f8>
  401927:	48 8b 34 24          	mov    (%rsp),%rsi
  40192b:	b8 29 00 00 00       	mov    $0x29,%eax
  401930:	4a 8d 1c 2e          	lea    (%rsi,%r13,1),%rbx
  401934:	eb 21                	jmp    401957 <kernelEntry+0x957>
  401936:	66 2e 0f 1f 84 00 00 	cs nopw 0x0(%rax,%rax,1)
  40193d:	00 00 00 
  401940:	41 ff 50 08          	call   *0x8(%r8)
  401944:	0f b6 45 00          	movzbl 0x0(%rbp),%eax
  401948:	48 83 c5 01          	add    $0x1,%rbp
  40194c:	84 c0                	test   %al,%al
  40194e:	74 2d                	je     40197d <kernelEntry+0x97d>
  401950:	4b 8b 14 2c          	mov    (%r12,%r13,1),%rdx
  401954:	4c 8b 02             	mov    (%rdx),%r8
  401957:	4d 85 c0             	test   %r8,%r8
  40195a:	74 e8                	je     401944 <kernelEntry+0x944>
  40195c:	49 8b 10             	mov    (%r8),%rdx
  40195f:	0f b6 f8             	movzbl %al,%edi
  401962:	48 8b 12             	mov    (%rdx),%rdx
  401965:	48 39 da             	cmp    %rbx,%rdx
  401968:	74 d6                	je     401940 <kernelEntry+0x940>
  40196a:	48 83 c5 01          	add    $0x1,%rbp
  40196e:	89 fe                	mov    %edi,%esi
  401970:	4c 89 c7             	mov    %r8,%rdi
  401973:	ff d2                	call   *%rdx
  401975:	0f b6 45 ff          	movzbl -0x1(%rbp),%eax
  401979:	84 c0                	test   %al,%al
  40197b:	75 d3                	jne    401950 <kernelEntry+0x950>
  40197d:	48 8b 84 24 88 00 00 	mov    0x88(%rsp),%rax
  401984:	00 
  401985:	bf b8 b8 b8 00       	mov    $0xb8b8b8,%edi
  40198a:	4d 89 ef             	mov    %r13,%r15
  40198d:	4c 01 e8             	add    %r13,%rax
  401990:	ff d0                	call   *%rax
  401992:	48 b8 54 0a 00 00 00 	movabs $0xa54,%rax
  401999:	00 00 00 
  40199c:	49 8d 7c 05 00       	lea    0x0(%r13,%rax,1),%rdi
  4019a1:	48 b8 d0 be fe ff ff 	movabs $0xfffffffffffebed0,%rax
  4019a8:	ff ff ff 
  4019ab:	4c 01 e8             	add    %r13,%rax
  4019ae:	ff d0                	call   *%rax
  4019b0:	4b 8b 04 2c          	mov    (%r12,%r13,1),%rax
  4019b4:	48 8b 38             	mov    (%rax),%rdi
  4019b7:	48 85 ff             	test   %rdi,%rdi
  4019ba:	74 0a                	je     4019c6 <kernelEntry+0x9c6>
  4019bc:	48 8b 07             	mov    (%rdi),%rax
  4019bf:	be 0a 00 00 00       	mov    $0xa,%esi
  4019c4:	ff 10                	call   *(%rax)
  4019c6:	eb fe                	jmp    4019c6 <kernelEntry+0x9c6>
  4019c8:	0f 1f 84 00 00 00 00 	nopl   0x0(%rax,%rax,1)
  4019cf:	00 
  4019d0:	89 fe                	mov    %edi,%esi
  4019d2:	4c 89 c7             	mov    %r8,%rdi
  4019d5:	ff d2                	call   *%rdx
  4019d7:	4b 8b 04 2c          	mov    (%r12,%r13,1),%rax
  4019db:	4c 8b 00             	mov    (%rax),%r8
  4019de:	e9 ca f9 ff ff       	jmp    4013ad <kernelEntry+0x3ad>
  4019e3:	0f 1f 44 00 00       	nopl   0x0(%rax,%rax,1)
  4019e8:	89 fe                	mov    %edi,%esi
  4019ea:	4c 89 c7             	mov    %r8,%rdi
  4019ed:	ff d2                	call   *%rdx
  4019ef:	e9 02 f9 ff ff       	jmp    4012f6 <kernelEntry+0x2f6>
  4019f4:	0f 1f 40 00          	nopl   0x0(%rax)
  4019f8:	41 0f b6 5e 02       	movzbl 0x2(%r14),%ebx
  4019fd:	49 8d 46 02          	lea    0x2(%r14),%rax
  401a01:	80 fb 40             	cmp    $0x40,%bl
  401a04:	0f 85 9e 00 00 00    	jne    401aa8 <kernelEntry+0xaa8>
  401a0a:	49 89 c6             	mov    %rax,%r14
  401a0d:	e9 96 fa ff ff       	jmp    4014a8 <kernelEntry+0x4a8>
  401a12:	66 0f 1f 44 00 00    	nopw   0x0(%rax,%rax,1)
  401a18:	41 0f b6 5e 02       	movzbl 0x2(%r14),%ebx
  401a1d:	49 8d 46 02          	lea    0x2(%r14),%rax
  401a21:	80 fb 40             	cmp    $0x40,%bl
  401a24:	0f 85 7e 00 00 00    	jne    401aa8 <kernelEntry+0xaa8>
  401a2a:	49 89 c6             	mov    %rax,%r14
  401a2d:	e9 7b fa ff ff       	jmp    4014ad <kernelEntry+0x4ad>
  401a32:	66 0f 1f 44 00 00    	nopw   0x0(%rax,%rax,1)
  401a38:	45 31 c0             	xor    %r8d,%r8d
  401a3b:	e9 52 fa ff ff       	jmp    401492 <kernelEntry+0x492>
  401a40:	89 fe                	mov    %edi,%esi
  401a42:	4c 89 ff             	mov    %r15,%rdi
  401a45:	ff d0                	call   *%rax
  401a47:	4b 8b 04 2c          	mov    (%r12,%r13,1),%rax
  401a4b:	4c 8b 00             	mov    (%rax),%r8
  401a4e:	e9 3f fa ff ff       	jmp    401492 <kernelEntry+0x492>
  401a53:	0f 1f 44 00 00       	nopl   0x0(%rax,%rax,1)
  401a58:	48 b9 71 e8 68 88 f1 	movabs $0x11d3e4f18868e871,%rcx
  401a5f:	e4 d3 11 
  401a62:	48 8b 74 24 20       	mov    0x20(%rsp),%rsi
  401a67:	48 89 8c 24 00 01 00 	mov    %rcx,0x100(%rsp)
  401a6e:	00 
  401a6f:	48 8b 8c 24 c0 00 00 	mov    0xc0(%rsp),%rcx
  401a76:	00 
  401a77:	49 8b 4c 0d 00       	mov    0x0(%r13,%rcx,1),%rcx
  401a7c:	48 89 8c 24 08 01 00 	mov    %rcx,0x108(%rsp)
  401a83:	00 
  401a84:	48 33 46 08          	xor    0x8(%rsi),%rax
  401a88:	48 33 16             	xor    (%rsi),%rdx
  401a8b:	48 09 d0             	or     %rdx,%rax
  401a8e:	0f 85 c9 fa ff ff    	jne    40155d <kernelEntry+0x55d>
  401a94:	48 8b 47 10          	mov    0x10(%rdi),%rax
  401a98:	48 89 84 24 b8 00 00 	mov    %rax,0xb8(%rsp)
  401a9f:	00 
  401aa0:	e9 b8 fa ff ff       	jmp    40155d <kernelEntry+0x55d>
  401aa5:	0f 1f 00             	nopl   (%rax)
  401aa8:	66 0f 6f 64 24 60    	movdqa 0x60(%rsp),%xmm4
  401aae:	41 89 ee             	mov    %ebp,%r14d
  401ab1:	48 89 84 24 b0 00 00 	mov    %rax,0xb0(%rsp)
  401ab8:	00 
  401ab9:	0f 29 a4 24 f0 00 00 	movaps %xmm4,0xf0(%rsp)
  401ac0:	00 
  401ac1:	4d 85 f6             	test   %r14,%r14
  401ac4:	0f 84 1c 09 00 00    	je     4023e6 <kernelEntry+0x13e6>
  401aca:	4c 89 f6             	mov    %r14,%rsi
  401acd:	48 8b 44 24 40       	mov    0x40(%rsp),%rax
  401ad2:	4c 89 f2             	mov    %r14,%rdx
  401ad5:	4c 89 f7             	mov    %r14,%rdi
  401ad8:	48 c1 ee 18          	shr    $0x18,%rsi
  401adc:	4d 89 f1             	mov    %r14,%r9
  401adf:	4d 89 f2             	mov    %r14,%r10
  401ae2:	83 e5 0f             	and    $0xf,%ebp
  401ae5:	4a 8d 0c 28          	lea    (%rax,%r13,1),%rcx
  401ae9:	83 e6 0f             	and    $0xf,%esi
  401aec:	49 c1 ea 08          	shr    $0x8,%r10
  401af0:	48 8b 44 24 48       	mov    0x48(%rsp),%rax
  401af5:	49 c1 e9 0c          	shr    $0xc,%r9
  401af9:	49 89 f7             	mov    %rsi,%r15
  401afc:	4c 89 f6             	mov    %r14,%rsi
  401aff:	49 c1 ee 04          	shr    $0x4,%r14
  401b03:	41 83 e6 0f          	and    $0xf,%r14d
  401b07:	41 83 e2 0f          	and    $0xf,%r10d
  401b0b:	41 83 e1 0f          	and    $0xf,%r9d
  401b0f:	48 c1 ef 10          	shr    $0x10,%rdi
  401b13:	45 0f b6 14 0a       	movzbl (%r10,%rcx,1),%r10d
  401b18:	48 c1 ee 14          	shr    $0x14,%rsi
  401b1c:	83 e7 0f             	and    $0xf,%edi
  401b1f:	48 c1 ea 1c          	shr    $0x1c,%rdx
  401b23:	44 0f b6 5c 0d 00    	movzbl 0x0(%rbp,%rcx,1),%r11d
  401b29:	41 0f b6 2c 0e       	movzbl (%r14,%rcx,1),%ebp
  401b2e:	83 e6 0f             	and    $0xf,%esi
  401b31:	c6 84 24 10 01 00 00 	movb   $0x0,0x110(%rsp)
  401b38:	00 
  401b39:	0f b6 14 0a          	movzbl (%rdx,%rcx,1),%edx
  401b3d:	49 c1 e3 08          	shl    $0x8,%r11
  401b41:	49 09 eb             	or     %rbp,%r11
  401b44:	49 c1 e3 08          	shl    $0x8,%r11
  401b48:	4d 09 d3             	or     %r10,%r11
  401b4b:	45 0f b6 14 09       	movzbl (%r9,%rcx,1),%r10d
  401b50:	44 0f b6 0c 0e       	movzbl (%rsi,%rcx,1),%r9d
  401b55:	49 c1 e3 08          	shl    $0x8,%r11
  401b59:	4d 09 d3             	or     %r10,%r11
  401b5c:	44 0f b6 14 0f       	movzbl (%rdi,%rcx,1),%r10d
  401b61:	4c 89 df             	mov    %r11,%rdi
  401b64:	48 c1 e7 08          	shl    $0x8,%rdi
  401b68:	4c 09 d7             	or     %r10,%rdi
  401b6b:	48 89 fe             	mov    %rdi,%rsi
  401b6e:	41 0f b6 3c 0f       	movzbl (%r15,%rcx,1),%edi
  401b73:	48 c1 e6 08          	shl    $0x8,%rsi
  401b77:	4c 09 ce             	or     %r9,%rsi
  401b7a:	48 89 f1             	mov    %rsi,%rcx
  401b7d:	0f b6 f2             	movzbl %dl,%esi
  401b80:	48 c1 e1 08          	shl    $0x8,%rcx
  401b84:	48 09 f9             	or     %rdi,%rcx
  401b87:	48 c1 e1 08          	shl    $0x8,%rcx
  401b8b:	48 09 f1             	or     %rsi,%rcx
  401b8e:	48 89 8c 24 08 01 00 	mov    %rcx,0x108(%rsp)
  401b95:	00 
  401b96:	49 8b 4c 05 00       	mov    0x0(%r13,%rax,1),%rcx
  401b9b:	48 89 8c 24 00 01 00 	mov    %rcx,0x100(%rsp)
  401ba2:	00 
  401ba3:	84 d2                	test   %dl,%dl
  401ba5:	0f 84 77 08 00 00    	je     402422 <kernelEntry+0x1422>
  401bab:	4c 8b 34 24          	mov    (%rsp),%r14
  401baf:	31 ed                	xor    %ebp,%ebp
  401bb1:	eb 36                	jmp    401be9 <kernelEntry+0xbe9>
  401bb3:	0f 1f 44 00 00       	nopl   0x0(%rax,%rax,1)
  401bb8:	49 8b 00             	mov    (%r8),%rax
  401bbb:	0f b6 fa             	movzbl %dl,%edi
  401bbe:	48 8b 00             	mov    (%rax),%rax
  401bc1:	4c 39 f0             	cmp    %r14,%rax
  401bc4:	0f 85 3f 07 00 00    	jne    402309 <kernelEntry+0x1309>
  401bca:	41 ff 50 08          	call   *0x8(%r8)
  401bce:	4b 8b 04 2c          	mov    (%r12,%r13,1),%rax
  401bd2:	4c 8b 00             	mov    (%rax),%r8
  401bd5:	48 83 c5 01          	add    $0x1,%rbp
  401bd9:	0f b6 94 2c 08 01 00 	movzbl 0x108(%rsp,%rbp,1),%edx
  401be0:	00 
  401be1:	84 d2                	test   %dl,%dl
  401be3:	0f 84 39 08 00 00    	je     402422 <kernelEntry+0x1422>
  401be9:	4d 85 c0             	test   %r8,%r8
  401bec:	75 ca                	jne    401bb8 <kernelEntry+0xbb8>
  401bee:	0f b7 6c 24 50       	movzwl 0x50(%rsp),%ebp
  401bf3:	48 85 ed             	test   %rbp,%rbp
  401bf6:	0f 84 56 08 00 00    	je     402452 <kernelEntry+0x1452>
  401bfc:	48 8b 44 24 40       	mov    0x40(%rsp),%rax
  401c01:	48 89 ea             	mov    %rbp,%rdx
  401c04:	48 89 ef             	mov    %rbp,%rdi
  401c07:	4c 8b 44 24 50       	mov    0x50(%rsp),%r8
  401c0c:	48 c1 ea 0c          	shr    $0xc,%rdx
  401c10:	48 c1 ef 08          	shr    $0x8,%rdi
  401c14:	31 c9                	xor    %ecx,%ecx
  401c16:	c6 84 24 10 01 00 00 	movb   $0x0,0x110(%rsp)
  401c1d:	00 
  401c1e:	4a 8d 34 28          	lea    (%rax,%r13,1),%rsi
  401c22:	48 c1 ed 04          	shr    $0x4,%rbp
  401c26:	83 e7 0f             	and    $0xf,%edi
  401c29:	41 83 e0 0f          	and    $0xf,%r8d
  401c2d:	0f b6 14 32          	movzbl (%rdx,%rsi,1),%edx
  401c31:	83 e5 0f             	and    $0xf,%ebp
  401c34:	48 8b 44 24 48       	mov    0x48(%rsp),%rax
  401c39:	c7 84 24 08 01 00 00 	movl   $0x30303030,0x108(%rsp)
  401c40:	30 30 30 30 
  401c44:	88 d1                	mov    %dl,%cl
  401c46:	8a 2c 37             	mov    (%rdi,%rsi,1),%ch
  401c49:	0f b6 7c 35 00       	movzbl 0x0(%rbp,%rsi,1),%edi
  401c4e:	41 0f b6 34 30       	movzbl (%r8,%rsi,1),%esi
  401c53:	c1 e7 10             	shl    $0x10,%edi
  401c56:	0f b7 c9             	movzwl %cx,%ecx
  401c59:	c1 e6 18             	shl    $0x18,%esi
  401c5c:	09 f9                	or     %edi,%ecx
  401c5e:	09 f1                	or     %esi,%ecx
  401c60:	89 8c 24 0c 01 00 00 	mov    %ecx,0x10c(%rsp)
  401c67:	49 8b 4c 05 00       	mov    0x0(%r13,%rax,1),%rcx
  401c6c:	48 89 8c 24 00 01 00 	mov    %rcx,0x100(%rsp)
  401c73:	00 
  401c74:	4b 8b 0c 2c          	mov    (%r12,%r13,1),%rcx
  401c78:	4c 8b 01             	mov    (%rcx),%r8
  401c7b:	84 d2                	test   %dl,%dl
  401c7d:	0f 84 fa 10 00 00    	je     402d7d <kernelEntry+0x1d7d>
  401c83:	4c 8b 34 24          	mov    (%rsp),%r14
  401c87:	31 ed                	xor    %ebp,%ebp
  401c89:	eb 36                	jmp    401cc1 <kernelEntry+0xcc1>
  401c8b:	0f 1f 44 00 00       	nopl   0x0(%rax,%rax,1)
  401c90:	49 8b 00             	mov    (%r8),%rax
  401c93:	0f b6 fa             	movzbl %dl,%edi
  401c96:	48 8b 00             	mov    (%rax),%rax
  401c99:	4c 39 f0             	cmp    %r14,%rax
  401c9c:	0f 85 54 06 00 00    	jne    4022f6 <kernelEntry+0x12f6>
  401ca2:	41 ff 50 08          	call   *0x8(%r8)
  401ca6:	4b 8b 04 2c          	mov    (%r12,%r13,1),%rax
  401caa:	4c 8b 00             	mov    (%rax),%r8
  401cad:	48 83 c5 01          	add    $0x1,%rbp
  401cb1:	0f b6 94 2c 0c 01 00 	movzbl 0x10c(%rsp,%rbp,1),%edx
  401cb8:	00 
  401cb9:	84 d2                	test   %dl,%dl
  401cbb:	0f 84 bc 10 00 00    	je     402d7d <kernelEntry+0x1d7d>
  401cc1:	4d 85 c0             	test   %r8,%r8
  401cc4:	75 ca                	jne    401c90 <kernelEntry+0xc90>
  401cc6:	0f b7 6c 24 30       	movzwl 0x30(%rsp),%ebp
  401ccb:	48 85 ed             	test   %rbp,%rbp
  401cce:	0f 84 d9 07 00 00    	je     4024ad <kernelEntry+0x14ad>
  401cd4:	48 8b 44 24 40       	mov    0x40(%rsp),%rax
  401cd9:	48 89 ea             	mov    %rbp,%rdx
  401cdc:	48 89 ef             	mov    %rbp,%rdi
  401cdf:	4c 8b 44 24 30       	mov    0x30(%rsp),%r8
  401ce4:	48 c1 ea 0c          	shr    $0xc,%rdx
  401ce8:	48 c1 ef 08          	shr    $0x8,%rdi
  401cec:	31 c9                	xor    %ecx,%ecx
  401cee:	c6 84 24 10 01 00 00 	movb   $0x0,0x110(%rsp)
  401cf5:	00 
  401cf6:	4a 8d 34 28          	lea    (%rax,%r13,1),%rsi
  401cfa:	48 c1 ed 04          	shr    $0x4,%rbp
  401cfe:	83 e7 0f             	and    $0xf,%edi
  401d01:	41 83 e0 0f          	and    $0xf,%r8d
  401d05:	0f b6 14 32          	movzbl (%rdx,%rsi,1),%edx
  401d09:	83 e5 0f             	and    $0xf,%ebp
  401d0c:	48 8b 44 24 48       	mov    0x48(%rsp),%rax
  401d11:	c7 84 24 08 01 00 00 	movl   $0x30303030,0x108(%rsp)
  401d18:	30 30 30 30 
  401d1c:	88 d1                	mov    %dl,%cl
  401d1e:	8a 2c 37             	mov    (%rdi,%rsi,1),%ch
  401d21:	0f b6 7c 35 00       	movzbl 0x0(%rbp,%rsi,1),%edi
  401d26:	41 0f b6 34 30       	movzbl (%r8,%rsi,1),%esi
  401d2b:	c1 e7 10             	shl    $0x10,%edi
  401d2e:	0f b7 c9             	movzwl %cx,%ecx
  401d31:	c1 e6 18             	shl    $0x18,%esi
  401d34:	09 f9                	or     %edi,%ecx
  401d36:	09 f1                	or     %esi,%ecx
  401d38:	89 8c 24 0c 01 00 00 	mov    %ecx,0x10c(%rsp)
  401d3f:	49 8b 4c 05 00       	mov    0x0(%r13,%rax,1),%rcx
  401d44:	48 89 8c 24 00 01 00 	mov    %rcx,0x100(%rsp)
  401d4b:	00 
  401d4c:	4b 8b 0c 2c          	mov    (%r12,%r13,1),%rcx
  401d50:	4c 8b 01             	mov    (%rcx),%r8
  401d53:	84 d2                	test   %dl,%dl
  401d55:	0f 84 93 07 00 00    	je     4024ee <kernelEntry+0x14ee>
  401d5b:	4c 8b 34 24          	mov    (%rsp),%r14
  401d5f:	31 ed                	xor    %ebp,%ebp
  401d61:	eb 36                	jmp    401d99 <kernelEntry+0xd99>
  401d63:	0f 1f 44 00 00       	nopl   0x0(%rax,%rax,1)
  401d68:	49 8b 00             	mov    (%r8),%rax
  401d6b:	0f b6 fa             	movzbl %dl,%edi
  401d6e:	48 8b 00             	mov    (%rax),%rax
  401d71:	4c 39 f0             	cmp    %r14,%rax
  401d74:	0f 85 69 05 00 00    	jne    4022e3 <kernelEntry+0x12e3>
  401d7a:	41 ff 50 08          	call   *0x8(%r8)
  401d7e:	4b 8b 04 2c          	mov    (%r12,%r13,1),%rax
  401d82:	4c 8b 00             	mov    (%rax),%r8
  401d85:	48 83 c5 01          	add    $0x1,%rbp
  401d89:	0f b6 94 2c 0c 01 00 	movzbl 0x10c(%rsp,%rbp,1),%edx
  401d90:	00 
  401d91:	84 d2                	test   %dl,%dl
  401d93:	0f 84 55 07 00 00    	je     4024ee <kernelEntry+0x14ee>
  401d99:	4d 85 c0             	test   %r8,%r8
  401d9c:	75 ca                	jne    401d68 <kernelEntry+0xd68>
  401d9e:	88 5c 24 30          	mov    %bl,0x30(%rsp)
  401da2:	48 8b 1c 24          	mov    (%rsp),%rbx
  401da6:	4c 8d b4 24 f8 00 00 	lea    0xf8(%rsp),%r14
  401dad:	00 
  401dae:	66 90                	xchg   %ax,%ax
  401db0:	41 0f b6 06          	movzbl (%r14),%eax
  401db4:	48 89 c2             	mov    %rax,%rdx
  401db7:	48 85 c0             	test   %rax,%rax
  401dba:	0f 84 b0 04 00 00    	je     402270 <kernelEntry+0x1270>
  401dc0:	48 8b 74 24 40       	mov    0x40(%rsp),%rsi
  401dc5:	48 c1 e8 04          	shr    $0x4,%rax
  401dc9:	83 e2 0f             	and    $0xf,%edx
  401dcc:	31 c9                	xor    %ecx,%ecx
  401dce:	c6 84 24 10 01 00 00 	movb   $0x0,0x110(%rsp)
  401dd5:	00 
  401dd6:	4c 8d bc 24 0f 01 00 	lea    0x10f(%rsp),%r15
  401ddd:	00 
  401dde:	c7 84 24 08 01 00 00 	movl   $0x30303030,0x108(%rsp)
  401de5:	30 30 30 30 
  401de9:	4c 01 ee             	add    %r13,%rsi
  401dec:	0f b6 04 30          	movzbl (%rax,%rsi,1),%eax
  401df0:	88 c1                	mov    %al,%cl
  401df2:	8a 2c 32             	mov    (%rdx,%rsi,1),%ch
  401df5:	ba 30 30 00 00       	mov    $0x3030,%edx
  401dfa:	66 89 94 24 0c 01 00 	mov    %dx,0x10c(%rsp)
  401e01:	00 
  401e02:	66 89 8c 24 0e 01 00 	mov    %cx,0x10e(%rsp)
  401e09:	00 
  401e0a:	48 8b 4c 24 48       	mov    0x48(%rsp),%rcx
  401e0f:	49 8b 54 0d 00       	mov    0x0(%r13,%rcx,1),%rdx
  401e14:	48 89 94 24 00 01 00 	mov    %rdx,0x100(%rsp)
  401e1b:	00 
  401e1c:	84 c0                	test   %al,%al
  401e1e:	74 3b                	je     401e5b <kernelEntry+0xe5b>
  401e20:	4b 8b 2c 2c          	mov    (%r12,%r13,1),%rbp
  401e24:	4c 8b 45 00          	mov    0x0(%rbp),%r8
  401e28:	4d 85 c0             	test   %r8,%r8
  401e2b:	74 2e                	je     401e5b <kernelEntry+0xe5b>
  401e2d:	0f 1f 00             	nopl   (%rax)
  401e30:	49 8b 10             	mov    (%r8),%rdx
  401e33:	0f b6 f8             	movzbl %al,%edi
  401e36:	48 8b 12             	mov    (%rdx),%rdx
  401e39:	48 39 da             	cmp    %rbx,%rdx
  401e3c:	0f 85 1e 04 00 00    	jne    402260 <kernelEntry+0x1260>
  401e42:	41 ff 50 08          	call   *0x8(%r8)
  401e46:	41 0f b6 07          	movzbl (%r15),%eax
  401e4a:	84 c0                	test   %al,%al
  401e4c:	74 0d                	je     401e5b <kernelEntry+0xe5b>
  401e4e:	4c 8b 45 00          	mov    0x0(%rbp),%r8
  401e52:	49 83 c7 01          	add    $0x1,%r15
  401e56:	4d 85 c0             	test   %r8,%r8
  401e59:	75 d5                	jne    401e30 <kernelEntry+0xe30>
  401e5b:	49 83 c6 01          	add    $0x1,%r14
  401e5f:	4c 3b 74 24 20       	cmp    0x20(%rsp),%r14
  401e64:	0f 85 46 ff ff ff    	jne    401db0 <kernelEntry+0xdb0>
  401e6a:	48 8b 44 24 18       	mov    0x18(%rsp),%rax
  401e6f:	4b 8b 14 2c          	mov    (%r12,%r13,1),%rdx
  401e73:	0f b6 5c 24 30       	movzbl 0x30(%rsp),%ebx
  401e78:	48 8b 68 10          	mov    0x10(%rax),%rbp
  401e7c:	4c 8b 02             	mov    (%rdx),%r8
  401e7f:	84 db                	test   %bl,%bl
  401e81:	0f 84 44 f6 ff ff    	je     4014cb <kernelEntry+0x4cb>
  401e87:	48 89 6c 24 30       	mov    %rbp,0x30(%rsp)
  401e8c:	4c 8b 3c 24          	mov    (%rsp),%r15
  401e90:	48 8b ac 24 b0 00 00 	mov    0xb0(%rsp),%rbp
  401e97:	00 
  401e98:	eb 39                	jmp    401ed3 <kernelEntry+0xed3>
  401e9a:	66 0f 1f 44 00 00    	nopw   0x0(%rax,%rax,1)
  401ea0:	49 8d 6e 01          	lea    0x1(%r14),%rbp
  401ea4:	4d 85 c0             	test   %r8,%r8
  401ea7:	74 1d                	je     401ec6 <kernelEntry+0xec6>
  401ea9:	49 8b 10             	mov    (%r8),%rdx
  401eac:	0f b6 fb             	movzbl %bl,%edi
  401eaf:	48 8b 12             	mov    (%rdx),%rdx
  401eb2:	4c 39 fa             	cmp    %r15,%rdx
  401eb5:	0f 85 15 04 00 00    	jne    4022d0 <kernelEntry+0x12d0>
  401ebb:	41 ff 50 08          	call   *0x8(%r8)
  401ebf:	4b 8b 14 2c          	mov    (%r12,%r13,1),%rdx
  401ec3:	4c 8b 02             	mov    (%rdx),%r8
  401ec6:	41 0f b6 5e 01       	movzbl 0x1(%r14),%ebx
  401ecb:	84 db                	test   %bl,%bl
  401ecd:	0f 84 f8 f5 ff ff    	je     4014cb <kernelEntry+0x4cb>
  401ed3:	49 89 ee             	mov    %rbp,%r14
  401ed6:	80 fb 40             	cmp    $0x40,%bl
  401ed9:	75 c5                	jne    401ea0 <kernelEntry+0xea0>
  401edb:	0f b6 5d 01          	movzbl 0x1(%rbp),%ebx
  401edf:	49 83 c6 01          	add    $0x1,%r14
  401ee3:	80 fb 40             	cmp    $0x40,%bl
  401ee6:	74 b8                	je     401ea0 <kernelEntry+0xea0>
  401ee8:	48 8b 6c 24 30       	mov    0x30(%rsp),%rbp
  401eed:	48 85 ed             	test   %rbp,%rbp
  401ef0:	0f 84 45 0c 00 00    	je     402b3b <kernelEntry+0x1b3b>
  401ef6:	48 8b 84 24 d0 00 00 	mov    0xd0(%rsp),%rax
  401efd:	00 
  401efe:	48 89 6c 24 30       	mov    %rbp,0x30(%rsp)
  401f03:	ba 70 00 00 00       	mov    $0x70,%edx
  401f08:	88 5c 24 50          	mov    %bl,0x50(%rsp)
  401f0c:	48 8b 2c 24          	mov    (%rsp),%rbp
  401f10:	4d 8d 7c 05 00       	lea    0x0(%r13,%rax,1),%r15
  401f15:	4b 8b 04 2c          	mov    (%r12,%r13,1),%rax
  401f19:	4c 89 fb             	mov    %r15,%rbx
  401f1c:	49 89 c7             	mov    %rax,%r15
  401f1f:	eb 28                	jmp    401f49 <kernelEntry+0xf49>
  401f21:	0f 1f 80 00 00 00 00 	nopl   0x0(%rax)
  401f28:	49 8b 08             	mov    (%r8),%rcx
  401f2b:	0f b6 fa             	movzbl %dl,%edi
  401f2e:	48 8b 09             	mov    (%rcx),%rcx
  401f31:	48 39 e9             	cmp    %rbp,%rcx
  401f34:	0f 85 19 07 00 00    	jne    402653 <kernelEntry+0x1653>
  401f3a:	41 ff 50 08          	call   *0x8(%r8)
  401f3e:	0f b6 13             	movzbl (%rbx),%edx
  401f41:	84 d2                	test   %dl,%dl
  401f43:	74 0c                	je     401f51 <kernelEntry+0xf51>
  401f45:	48 83 c3 01          	add    $0x1,%rbx
  401f49:	4d 8b 07             	mov    (%r15),%r8
  401f4c:	4d 85 c0             	test   %r8,%r8
  401f4f:	75 d7                	jne    401f28 <kernelEntry+0xf28>
  401f51:	48 8b 6c 24 30       	mov    0x30(%rsp),%rbp
  401f56:	48 8b 44 24 40       	mov    0x40(%rsp),%rax
  401f5b:	c6 84 24 10 01 00 00 	movb   $0x0,0x110(%rsp)
  401f62:	00 
  401f63:	0f b6 5c 24 50       	movzbl 0x50(%rsp),%ebx
  401f68:	48 89 ee             	mov    %rbp,%rsi
  401f6b:	4a 8d 0c 28          	lea    (%rax,%r13,1),%rcx
  401f6f:	48 89 e8             	mov    %rbp,%rax
  401f72:	49 89 ea             	mov    %rbp,%r10
  401f75:	48 c1 ee 38          	shr    $0x38,%rsi
  401f79:	48 c1 e8 30          	shr    $0x30,%rax
  401f7d:	49 89 e9             	mov    %rbp,%r9
  401f80:	49 89 e8             	mov    %rbp,%r8
  401f83:	83 e6 0f             	and    $0xf,%esi
  401f86:	49 89 c3             	mov    %rax,%r11
  401f89:	48 89 e8             	mov    %rbp,%rax
  401f8c:	49 c1 ea 1c          	shr    $0x1c,%r10
  401f90:	49 89 f7             	mov    %rsi,%r15
  401f93:	48 89 ee             	mov    %rbp,%rsi
  401f96:	48 c1 e8 2c          	shr    $0x2c,%rax
  401f9a:	48 89 ef             	mov    %rbp,%rdi
  401f9d:	48 c1 ee 34          	shr    $0x34,%rsi
  401fa1:	49 c1 e9 20          	shr    $0x20,%r9
  401fa5:	48 89 ea             	mov    %rbp,%rdx
  401fa8:	41 83 e3 0f          	and    $0xf,%r11d
  401fac:	49 c1 e8 24          	shr    $0x24,%r8
  401fb0:	83 e6 0f             	and    $0xf,%esi
  401fb3:	41 83 e1 0f          	and    $0xf,%r9d
  401fb7:	48 c1 ef 28          	shr    $0x28,%rdi
  401fbb:	48 89 74 24 30       	mov    %rsi,0x30(%rsp)
  401fc0:	48 89 c6             	mov    %rax,%rsi
  401fc3:	4c 89 d0             	mov    %r10,%rax
  401fc6:	49 89 ea             	mov    %rbp,%r10
  401fc9:	49 c1 ea 18          	shr    $0x18,%r10
  401fcd:	45 0f b6 0c 09       	movzbl (%r9,%rcx,1),%r9d
  401fd2:	41 83 e0 0f          	and    $0xf,%r8d
  401fd6:	83 e7 0f             	and    $0xf,%edi
  401fd9:	41 83 e2 0f          	and    $0xf,%r10d
  401fdd:	45 0f b6 04 08       	movzbl (%r8,%rcx,1),%r8d
  401fe2:	0f b6 3c 0f          	movzbl (%rdi,%rcx,1),%edi
  401fe6:	83 e6 0f             	and    $0xf,%esi
  401fe9:	4c 89 54 24 50       	mov    %r10,0x50(%rsp)
  401fee:	49 89 ea             	mov    %rbp,%r10
  401ff1:	49 c1 e1 08          	shl    $0x8,%r9
  401ff5:	83 e0 0f             	and    $0xf,%eax
  401ff8:	49 c1 ea 14          	shr    $0x14,%r10
  401ffc:	4d 09 c1             	or     %r8,%r9
  401fff:	48 c1 ea 3c          	shr    $0x3c,%rdx
  402003:	0f b6 34 0e          	movzbl (%rsi,%rcx,1),%esi
  402007:	41 83 e2 0f          	and    $0xf,%r10d
  40200b:	0f b6 14 0a          	movzbl (%rdx,%rcx,1),%edx
  40200f:	4c 89 54 24 60       	mov    %r10,0x60(%rsp)
  402014:	49 89 ea             	mov    %rbp,%r10
  402017:	49 c1 ea 10          	shr    $0x10,%r10
  40201b:	44 0f b6 c2          	movzbl %dl,%r8d
  40201f:	41 83 e2 0f          	and    $0xf,%r10d
  402023:	4c 89 94 24 b0 00 00 	mov    %r10,0xb0(%rsp)
  40202a:	00 
  40202b:	49 89 ea             	mov    %rbp,%r10
  40202e:	49 c1 ea 0c          	shr    $0xc,%r10
  402032:	41 83 e2 0f          	and    $0xf,%r10d
  402036:	4c 89 94 24 e0 00 00 	mov    %r10,0xe0(%rsp)
  40203d:	00 
  40203e:	49 89 ea             	mov    %rbp,%r10
  402041:	49 c1 ea 08          	shr    $0x8,%r10
  402045:	41 83 e2 0f          	and    $0xf,%r10d
  402049:	4c 89 94 24 e8 00 00 	mov    %r10,0xe8(%rsp)
  402050:	00 
  402051:	49 89 ea             	mov    %rbp,%r10
  402054:	83 e5 0f             	and    $0xf,%ebp
  402057:	49 c1 ea 04          	shr    $0x4,%r10
  40205b:	41 83 e2 0f          	and    $0xf,%r10d
  40205f:	49 c1 e1 08          	shl    $0x8,%r9
  402063:	49 09 f9             	or     %rdi,%r9
  402066:	41 0f b6 3c 0a       	movzbl (%r10,%rcx,1),%edi
  40206b:	4c 8b 54 24 50       	mov    0x50(%rsp),%r10
  402070:	49 c1 e1 08          	shl    $0x8,%r9
  402074:	49 09 f1             	or     %rsi,%r9
  402077:	41 0f b6 34 0b       	movzbl (%r11,%rcx,1),%esi
  40207c:	4c 8b 9c 24 b0 00 00 	mov    0xb0(%rsp),%r11
  402083:	00 
  402084:	49 c1 e1 08          	shl    $0x8,%r9
  402088:	49 09 f1             	or     %rsi,%r9
  40208b:	48 8b 74 24 30       	mov    0x30(%rsp),%rsi
  402090:	49 c1 e1 08          	shl    $0x8,%r9
  402094:	0f b6 34 0e          	movzbl (%rsi,%rcx,1),%esi
  402098:	49 09 f1             	or     %rsi,%r9
  40209b:	41 0f b6 34 0f       	movzbl (%r15,%rcx,1),%esi
  4020a0:	4c 8b bc 24 e0 00 00 	mov    0xe0(%rsp),%r15
  4020a7:	00 
  4020a8:	49 c1 e1 08          	shl    $0x8,%r9
  4020ac:	49 09 f1             	or     %rsi,%r9
  4020af:	0f b6 74 0d 00       	movzbl 0x0(%rbp,%rcx,1),%esi
  4020b4:	48 8b ac 24 e8 00 00 	mov    0xe8(%rsp),%rbp
  4020bb:	00 
  4020bc:	49 c1 e1 08          	shl    $0x8,%r9
  4020c0:	48 c1 e6 08          	shl    $0x8,%rsi
  4020c4:	4d 09 c1             	or     %r8,%r9
  4020c7:	48 09 fe             	or     %rdi,%rsi
  4020ca:	0f b6 7c 0d 00       	movzbl 0x0(%rbp,%rcx,1),%edi
  4020cf:	48 8d ac 24 01 01 00 	lea    0x101(%rsp),%rbp
  4020d6:	00 
  4020d7:	48 c1 e6 08          	shl    $0x8,%rsi
  4020db:	48 09 fe             	or     %rdi,%rsi
  4020de:	41 0f b6 3c 0f       	movzbl (%r15,%rcx,1),%edi
  4020e3:	48 c1 e6 08          	shl    $0x8,%rsi
  4020e7:	48 09 fe             	or     %rdi,%rsi
  4020ea:	41 0f b6 3c 0b       	movzbl (%r11,%rcx,1),%edi
  4020ef:	48 c1 e6 08          	shl    $0x8,%rsi
  4020f3:	48 09 fe             	or     %rdi,%rsi
  4020f6:	48 8b 7c 24 60       	mov    0x60(%rsp),%rdi
  4020fb:	48 c1 e6 08          	shl    $0x8,%rsi
  4020ff:	0f b6 3c 0f          	movzbl (%rdi,%rcx,1),%edi
  402103:	48 09 fe             	or     %rdi,%rsi
  402106:	41 0f b6 3c 0a       	movzbl (%r10,%rcx,1),%edi
  40210b:	48 c1 e6 08          	shl    $0x8,%rsi
  40210f:	48 09 fe             	or     %rdi,%rsi
  402112:	0f b6 3c 08          	movzbl (%rax,%rcx,1),%edi
  402116:	4c 89 4c 24 30       	mov    %r9,0x30(%rsp)
  40211b:	48 89 f1             	mov    %rsi,%rcx
  40211e:	48 c1 e1 08          	shl    $0x8,%rcx
  402122:	48 09 f9             	or     %rdi,%rcx
  402125:	48 89 4c 24 38       	mov    %rcx,0x38(%rsp)
  40212a:	66 0f 6f 6c 24 30    	movdqa 0x30(%rsp),%xmm5
  402130:	0f 29 ac 24 00 01 00 	movaps %xmm5,0x100(%rsp)
  402137:	00 
  402138:	84 d2                	test   %dl,%dl
  40213a:	74 37                	je     402173 <kernelEntry+0x1173>
  40213c:	4f 8b 3c 2c          	mov    (%r12,%r13,1),%r15
  402140:	4d 8b 07             	mov    (%r15),%r8
  402143:	4d 85 c0             	test   %r8,%r8
  402146:	74 2b                	je     402173 <kernelEntry+0x1173>
  402148:	49 8b 08             	mov    (%r8),%rcx
  40214b:	0f b6 fa             	movzbl %dl,%edi
  40214e:	48 8b 09             	mov    (%rcx),%rcx
  402151:	48 3b 0c 24          	cmp    (%rsp),%rcx
  402155:	0f 85 33 05 00 00    	jne    40268e <kernelEntry+0x168e>
  40215b:	41 ff 50 08          	call   *0x8(%r8)
  40215f:	0f b6 55 00          	movzbl 0x0(%rbp),%edx
  402163:	84 d2                	test   %dl,%dl
  402165:	74 0c                	je     402173 <kernelEntry+0x1173>
  402167:	4d 8b 07             	mov    (%r15),%r8
  40216a:	48 83 c5 01          	add    $0x1,%rbp
  40216e:	4d 85 c0             	test   %r8,%r8
  402171:	75 d5                	jne    402148 <kernelEntry+0x1148>
  402173:	4b 8b 14 2c          	mov    (%r12,%r13,1),%rdx
  402177:	4c 8b 02             	mov    (%rdx),%r8
  40217a:	4d 85 c0             	test   %r8,%r8
  40217d:	74 19                	je     402198 <kernelEntry+0x1198>
  40217f:	49 8b 10             	mov    (%r8),%rdx
  402182:	48 8b 12             	mov    (%rdx),%rdx
  402185:	48 3b 14 24          	cmp    (%rsp),%rdx
  402189:	0f 85 fc 09 00 00    	jne    402b8b <kernelEntry+0x1b8b>
  40218f:	bf 5d 00 00 00       	mov    $0x5d,%edi
  402194:	41 ff 50 08          	call   *0x8(%r8)
  402198:	4b 8b 14 2c          	mov    (%r12,%r13,1),%rdx
  40219c:	48 8b 2c 24          	mov    (%rsp),%rbp
  4021a0:	4c 8b 02             	mov    (%rdx),%r8
  4021a3:	84 db                	test   %bl,%bl
  4021a5:	75 3f                	jne    4021e6 <kernelEntry+0x11e6>
  4021a7:	e9 1f f3 ff ff       	jmp    4014cb <kernelEntry+0x4cb>
  4021ac:	0f 1f 40 00          	nopl   0x0(%rax)
  4021b0:	4d 89 f7             	mov    %r14,%r15
  4021b3:	4d 8d 77 01          	lea    0x1(%r15),%r14
  4021b7:	4d 85 c0             	test   %r8,%r8
  4021ba:	74 1d                	je     4021d9 <kernelEntry+0x11d9>
  4021bc:	49 8b 00             	mov    (%r8),%rax
  4021bf:	0f b6 fb             	movzbl %bl,%edi
  4021c2:	48 8b 00             	mov    (%rax),%rax
  4021c5:	48 39 e8             	cmp    %rbp,%rax
  4021c8:	0f 85 72 04 00 00    	jne    402640 <kernelEntry+0x1640>
  4021ce:	41 ff 50 08          	call   *0x8(%r8)
  4021d2:	4b 8b 04 2c          	mov    (%r12,%r13,1),%rax
  4021d6:	4c 8b 00             	mov    (%rax),%r8
  4021d9:	41 0f b6 5f 01       	movzbl 0x1(%r15),%ebx
  4021de:	84 db                	test   %bl,%bl
  4021e0:	0f 84 e5 f2 ff ff    	je     4014cb <kernelEntry+0x4cb>
  4021e6:	4d 8d 7e 01          	lea    0x1(%r14),%r15
  4021ea:	80 fb 40             	cmp    $0x40,%bl
  4021ed:	75 c1                	jne    4021b0 <kernelEntry+0x11b0>
  4021ef:	41 0f b6 5e 01       	movzbl 0x1(%r14),%ebx
  4021f4:	80 fb 40             	cmp    $0x40,%bl
  4021f7:	74 ba                	je     4021b3 <kernelEntry+0x11b3>
  4021f9:	48 8b 8c 24 c8 00 00 	mov    0xc8(%rsp),%rcx
  402200:	00 
  402201:	45 31 f6             	xor    %r14d,%r14d
  402204:	88 5c 24 30          	mov    %bl,0x30(%rsp)
  402208:	b8 3f 00 00 00       	mov    $0x3f,%eax
  40220d:	4c 89 f3             	mov    %r14,%rbx
  402210:	4c 01 e9             	add    %r13,%rcx
  402213:	49 89 ce             	mov    %rcx,%r14
  402216:	66 2e 0f 1f 84 00 00 	cs nopw 0x0(%rax,%rax,1)
  40221d:	00 00 00 
  402220:	4d 85 c0             	test   %r8,%r8
  402223:	74 2b                	je     402250 <kernelEntry+0x1250>
  402225:	49 8b 08             	mov    (%r8),%rcx
  402228:	0f b6 f8             	movzbl %al,%edi
  40222b:	48 8b 09             	mov    (%rcx),%rcx
  40222e:	48 39 e9             	cmp    %rbp,%rcx
  402231:	0f 85 f6 03 00 00    	jne    40262d <kernelEntry+0x162d>
  402237:	41 ff 50 08          	call   *0x8(%r8)
  40223b:	4b 8b 04 2c          	mov    (%r12,%r13,1),%rax
  40223f:	4c 8b 00             	mov    (%rax),%r8
  402242:	42 0f b6 44 33 01    	movzbl 0x1(%rbx,%r14,1),%eax
  402248:	48 83 c3 01          	add    $0x1,%rbx
  40224c:	84 c0                	test   %al,%al
  40224e:	75 d0                	jne    402220 <kernelEntry+0x1220>
  402250:	0f b6 5c 24 30       	movzbl 0x30(%rsp),%ebx
  402255:	e9 59 ff ff ff       	jmp    4021b3 <kernelEntry+0x11b3>
  40225a:	66 0f 1f 44 00 00    	nopw   0x0(%rax,%rax,1)
  402260:	89 fe                	mov    %edi,%esi
  402262:	4c 89 c7             	mov    %r8,%rdi
  402265:	ff d2                	call   *%rdx
  402267:	e9 da fb ff ff       	jmp    401e46 <kernelEntry+0xe46>
  40226c:	0f 1f 40 00          	nopl   0x0(%rax)
  402270:	4f 8b 3c 2c          	mov    (%r12,%r13,1),%r15
  402274:	bd 02 00 00 00       	mov    $0x2,%ebp
  402279:	4d 8b 07             	mov    (%r15),%r8
  40227c:	4d 85 c0             	test   %r8,%r8
  40227f:	0f 84 d6 fb ff ff    	je     401e5b <kernelEntry+0xe5b>
  402285:	49 8b 00             	mov    (%r8),%rax
  402288:	48 8b 00             	mov    (%rax),%rax
  40228b:	48 39 d8             	cmp    %rbx,%rax
  40228e:	75 2f                	jne    4022bf <kernelEntry+0x12bf>
  402290:	bf 30 00 00 00       	mov    $0x30,%edi
  402295:	41 ff 50 08          	call   *0x8(%r8)
  402299:	48 83 fd 01          	cmp    $0x1,%rbp
  40229d:	0f 84 b8 fb ff ff    	je     401e5b <kernelEntry+0xe5b>
  4022a3:	4d 8b 07             	mov    (%r15),%r8
  4022a6:	bd 01 00 00 00       	mov    $0x1,%ebp
  4022ab:	4d 85 c0             	test   %r8,%r8
  4022ae:	0f 84 a7 fb ff ff    	je     401e5b <kernelEntry+0xe5b>
  4022b4:	49 8b 00             	mov    (%r8),%rax
  4022b7:	48 8b 00             	mov    (%rax),%rax
  4022ba:	48 39 d8             	cmp    %rbx,%rax
  4022bd:	74 d1                	je     402290 <kernelEntry+0x1290>
  4022bf:	be 30 00 00 00       	mov    $0x30,%esi
  4022c4:	4c 89 c7             	mov    %r8,%rdi
  4022c7:	ff d0                	call   *%rax
  4022c9:	eb ce                	jmp    402299 <kernelEntry+0x1299>
  4022cb:	0f 1f 44 00 00       	nopl   0x0(%rax,%rax,1)
  4022d0:	89 fe                	mov    %edi,%esi
  4022d2:	4c 89 c7             	mov    %r8,%rdi
  4022d5:	ff d2                	call   *%rdx
  4022d7:	4b 8b 14 2c          	mov    (%r12,%r13,1),%rdx
  4022db:	4c 8b 02             	mov    (%rdx),%r8
  4022de:	e9 e3 fb ff ff       	jmp    401ec6 <kernelEntry+0xec6>
  4022e3:	89 fe                	mov    %edi,%esi
  4022e5:	4c 89 c7             	mov    %r8,%rdi
  4022e8:	ff d0                	call   *%rax
  4022ea:	4b 8b 04 2c          	mov    (%r12,%r13,1),%rax
  4022ee:	4c 8b 00             	mov    (%rax),%r8
  4022f1:	e9 8f fa ff ff       	jmp    401d85 <kernelEntry+0xd85>
  4022f6:	89 fe                	mov    %edi,%esi
  4022f8:	4c 89 c7             	mov    %r8,%rdi
  4022fb:	ff d0                	call   *%rax
  4022fd:	4b 8b 04 2c          	mov    (%r12,%r13,1),%rax
  402301:	4c 8b 00             	mov    (%rax),%r8
  402304:	e9 a4 f9 ff ff       	jmp    401cad <kernelEntry+0xcad>
  402309:	89 fe                	mov    %edi,%esi
  40230b:	4c 89 c7             	mov    %r8,%rdi
  40230e:	ff d0                	call   *%rax
  402310:	4b 8b 04 2c          	mov    (%r12,%r13,1),%rax
  402314:	4c 8b 00             	mov    (%rax),%r8
  402317:	e9 b9 f8 ff ff       	jmp    401bd5 <kernelEntry+0xbd5>
  40231c:	be 5d 00 00 00       	mov    $0x5d,%esi
  402321:	4c 89 c7             	mov    %r8,%rdi
  402324:	ff d0                	call   *%rax
  402326:	e9 13 f0 ff ff       	jmp    40133e <kernelEntry+0x33e>
  40232b:	4c 89 c7             	mov    %r8,%rdi
  40232e:	be 28 00 00 00       	mov    $0x28,%esi
  402333:	ff d0                	call   *%rax
  402335:	4c 8b 03             	mov    (%rbx),%r8
  402338:	e9 38 f0 ff ff       	jmp    401375 <kernelEntry+0x375>
  40233d:	89 fe                	mov    %edi,%esi
  40233f:	4c 89 c7             	mov    %r8,%rdi
  402342:	ff d2                	call   *%rdx
  402344:	4b 8b 04 2c          	mov    (%r12,%r13,1),%rax
  402348:	4c 8b 00             	mov    (%rax),%r8
  40234b:	e9 4a f3 ff ff       	jmp    40169a <kernelEntry+0x69a>
  402350:	be 0a 00 00 00       	mov    $0xa,%esi
  402355:	4c 89 c7             	mov    %r8,%rdi
  402358:	ff d0                	call   *%rax
  40235a:	e9 8a f1 ff ff       	jmp    4014e9 <kernelEntry+0x4e9>
  40235f:	be 5b 00 00 00       	mov    $0x5b,%esi
  402364:	4c 89 c7             	mov    %r8,%rdi
  402367:	ff d0                	call   *%rax
  402369:	e9 3e ef ff ff       	jmp    4012ac <kernelEntry+0x2ac>
  40236e:	66 90                	xchg   %ax,%ax
  402370:	44 0f b6 53 02       	movzbl 0x2(%rbx),%r10d
  402375:	4c 8d 73 02          	lea    0x2(%rbx),%r14
  402379:	41 80 fa 40          	cmp    $0x40,%r10b
  40237d:	0f 85 17 03 00 00    	jne    40269a <kernelEntry+0x169a>
  402383:	4c 89 f3             	mov    %r14,%rbx
  402386:	e9 17 f4 ff ff       	jmp    4017a2 <kernelEntry+0x7a2>
  40238b:	0f 1f 44 00 00       	nopl   0x0(%rax,%rax,1)
  402390:	44 0f b6 53 02       	movzbl 0x2(%rbx),%r10d
  402395:	4c 8d 73 02          	lea    0x2(%rbx),%r14
  402399:	41 80 fa 40          	cmp    $0x40,%r10b
  40239d:	0f 85 f7 02 00 00    	jne    40269a <kernelEntry+0x169a>
  4023a3:	4c 89 f3             	mov    %r14,%rbx
  4023a6:	e9 fc f3 ff ff       	jmp    4017a7 <kernelEntry+0x7a7>
  4023ab:	0f 1f 44 00 00       	nopl   0x0(%rax,%rax,1)
  4023b0:	31 ff                	xor    %edi,%edi
  4023b2:	e9 d3 f3 ff ff       	jmp    40178a <kernelEntry+0x78a>
  4023b7:	66 0f 1f 84 00 00 00 	nopw   0x0(%rax,%rax,1)
  4023be:	00 00 
  4023c0:	89 fe                	mov    %edi,%esi
  4023c2:	4c 89 ff             	mov    %r15,%rdi
  4023c5:	ff d0                	call   *%rax
  4023c7:	4b 8b 04 2c          	mov    (%r12,%r13,1),%rax
  4023cb:	48 8b 38             	mov    (%rax),%rdi
  4023ce:	e9 b7 f3 ff ff       	jmp    40178a <kernelEntry+0x78a>
  4023d3:	89 fe                	mov    %edi,%esi
  4023d5:	4c 89 c7             	mov    %r8,%rdi
  4023d8:	ff d2                	call   *%rdx
  4023da:	4b 8b 04 2c          	mov    (%r12,%r13,1),%rax
  4023de:	4c 8b 00             	mov    (%rax),%r8
  4023e1:	e9 34 f5 ff ff       	jmp    40191a <kernelEntry+0x91a>
  4023e6:	48 8b 2c 24          	mov    (%rsp),%rbp
  4023ea:	66 0f 1f 44 00 00    	nopw   0x0(%rax,%rax,1)
  4023f0:	4d 85 c0             	test   %r8,%r8
  4023f3:	0f 84 f5 f7 ff ff    	je     401bee <kernelEntry+0xbee>
  4023f9:	49 8b 00             	mov    (%r8),%rax
  4023fc:	48 8b 00             	mov    (%rax),%rax
  4023ff:	48 39 e8             	cmp    %rbp,%rax
  402402:	0f 85 8f 00 00 00    	jne    402497 <kernelEntry+0x1497>
  402408:	bf 30 00 00 00       	mov    $0x30,%edi
  40240d:	41 ff 50 08          	call   *0x8(%r8)
  402411:	4b 8b 04 2c          	mov    (%r12,%r13,1),%rax
  402415:	4c 8b 00             	mov    (%rax),%r8
  402418:	49 83 c6 01          	add    $0x1,%r14
  40241c:	49 83 fe 08          	cmp    $0x8,%r14
  402420:	75 ce                	jne    4023f0 <kernelEntry+0x13f0>
  402422:	4d 85 c0             	test   %r8,%r8
  402425:	0f 84 c3 f7 ff ff    	je     401bee <kernelEntry+0xbee>
  40242b:	49 8b 10             	mov    (%r8),%rdx
  40242e:	48 8b 12             	mov    (%rdx),%rdx
  402431:	48 3b 14 24          	cmp    (%rsp),%rdx
  402435:	0f 85 71 06 00 00    	jne    402aac <kernelEntry+0x1aac>
  40243b:	bf 2d 00 00 00       	mov    $0x2d,%edi
  402440:	41 ff 50 08          	call   *0x8(%r8)
  402444:	0f b7 6c 24 50       	movzwl 0x50(%rsp),%ebp
  402449:	48 85 ed             	test   %rbp,%rbp
  40244c:	0f 85 aa f7 ff ff    	jne    401bfc <kernelEntry+0xbfc>
  402452:	4b 8b 14 2c          	mov    (%r12,%r13,1),%rdx
  402456:	4c 8b 34 24          	mov    (%rsp),%r14
  40245a:	4c 8b 02             	mov    (%rdx),%r8
  40245d:	eb 2e                	jmp    40248d <kernelEntry+0x148d>
  40245f:	90                   	nop
  402460:	49 8b 00             	mov    (%r8),%rax
  402463:	48 8b 00             	mov    (%rax),%rax
  402466:	4c 39 f0             	cmp    %r14,%rax
  402469:	0f 85 b9 00 00 00    	jne    402528 <kernelEntry+0x1528>
  40246f:	bf 30 00 00 00       	mov    $0x30,%edi
  402474:	41 ff 50 08          	call   *0x8(%r8)
  402478:	4b 8b 04 2c          	mov    (%r12,%r13,1),%rax
  40247c:	4c 8b 00             	mov    (%rax),%r8
  40247f:	48 83 c5 01          	add    $0x1,%rbp
  402483:	48 83 fd 04          	cmp    $0x4,%rbp
  402487:	0f 84 f0 08 00 00    	je     402d7d <kernelEntry+0x1d7d>
  40248d:	4d 85 c0             	test   %r8,%r8
  402490:	75 ce                	jne    402460 <kernelEntry+0x1460>
  402492:	e9 2f f8 ff ff       	jmp    401cc6 <kernelEntry+0xcc6>
  402497:	4c 89 c7             	mov    %r8,%rdi
  40249a:	be 30 00 00 00       	mov    $0x30,%esi
  40249f:	ff d0                	call   *%rax
  4024a1:	4b 8b 04 2c          	mov    (%r12,%r13,1),%rax
  4024a5:	4c 8b 00             	mov    (%rax),%r8
  4024a8:	e9 6b ff ff ff       	jmp    402418 <kernelEntry+0x1418>
  4024ad:	4b 8b 14 2c          	mov    (%r12,%r13,1),%rdx
  4024b1:	4c 8b 34 24          	mov    (%rsp),%r14
  4024b5:	4c 8b 02             	mov    (%rdx),%r8
  4024b8:	0f 1f 84 00 00 00 00 	nopl   0x0(%rax,%rax,1)
  4024bf:	00 
  4024c0:	4d 85 c0             	test   %r8,%r8
  4024c3:	0f 84 d5 f8 ff ff    	je     401d9e <kernelEntry+0xd9e>
  4024c9:	49 8b 00             	mov    (%r8),%rax
  4024cc:	48 8b 00             	mov    (%rax),%rax
  4024cf:	4c 39 f0             	cmp    %r14,%rax
  4024d2:	75 41                	jne    402515 <kernelEntry+0x1515>
  4024d4:	bf 30 00 00 00       	mov    $0x30,%edi
  4024d9:	41 ff 50 08          	call   *0x8(%r8)
  4024dd:	4b 8b 04 2c          	mov    (%r12,%r13,1),%rax
  4024e1:	4c 8b 00             	mov    (%rax),%r8
  4024e4:	48 83 c5 01          	add    $0x1,%rbp
  4024e8:	48 83 fd 04          	cmp    $0x4,%rbp
  4024ec:	75 d2                	jne    4024c0 <kernelEntry+0x14c0>
  4024ee:	4d 85 c0             	test   %r8,%r8
  4024f1:	0f 84 a7 f8 ff ff    	je     401d9e <kernelEntry+0xd9e>
  4024f7:	49 8b 10             	mov    (%r8),%rdx
  4024fa:	48 8b 12             	mov    (%rdx),%rdx
  4024fd:	48 3b 14 24          	cmp    (%rsp),%rdx
  402501:	0f 85 96 05 00 00    	jne    402a9d <kernelEntry+0x1a9d>
  402507:	bf 2d 00 00 00       	mov    $0x2d,%edi
  40250c:	41 ff 50 08          	call   *0x8(%r8)
  402510:	e9 89 f8 ff ff       	jmp    401d9e <kernelEntry+0xd9e>
  402515:	4c 89 c7             	mov    %r8,%rdi
  402518:	be 30 00 00 00       	mov    $0x30,%esi
  40251d:	ff d0                	call   *%rax
  40251f:	4b 8b 04 2c          	mov    (%r12,%r13,1),%rax
  402523:	4c 8b 00             	mov    (%rax),%r8
  402526:	eb bc                	jmp    4024e4 <kernelEntry+0x14e4>
  402528:	4c 89 c7             	mov    %r8,%rdi
  40252b:	be 30 00 00 00       	mov    $0x30,%esi
  402530:	ff d0                	call   *%rax
  402532:	4b 8b 04 2c          	mov    (%r12,%r13,1),%rax
  402536:	4c 8b 00             	mov    (%rax),%r8
  402539:	e9 41 ff ff ff       	jmp    40247f <kernelEntry+0x147f>
  40253e:	8b 04 25 0a 00 20 00 	mov    0x20000a,%eax
  402545:	8b 0c 25 16 00 20 00 	mov    0x200016,%ecx
  40254c:	48 8d 98 00 00 20 00 	lea    0x200000(%rax),%rbx
  402553:	85 c9                	test   %ecx,%ecx
  402555:	0f 84 a6 eb ff ff    	je     401101 <kernelEntry+0x101>
  40255b:	41 8b 46 0c          	mov    0xc(%r14),%eax
  40255f:	8b 34 25 12 00 20 00 	mov    0x200012,%esi
  402566:	41 8b 6e 08          	mov    0x8(%r14),%ebp
  40256a:	45 31 f6             	xor    %r14d,%r14d
  40256d:	29 c8                	sub    %ecx,%eax
  40256f:	d1 e8                	shr    %eax
  402571:	29 f5                	sub    %esi,%ebp
  402573:	83 e8 01             	sub    $0x1,%eax
  402576:	d1 ed                	shr    %ebp
  402578:	89 44 24 10          	mov    %eax,0x10(%rsp)
  40257c:	89 2c 24             	mov    %ebp,(%rsp)
  40257f:	44 89 f5             	mov    %r14d,%ebp
  402582:	66 0f 1f 44 00 00    	nopw   0x0(%rax,%rax,1)
  402588:	85 f6                	test   %esi,%esi
  40258a:	0f 84 71 eb ff ff    	je     401101 <kernelEntry+0x101>
  402590:	45 31 f6             	xor    %r14d,%r14d
  402593:	0f 1f 44 00 00       	nopl   0x0(%rax,%rax,1)
  402598:	89 ea                	mov    %ebp,%edx
  40259a:	0f af d6             	imul   %esi,%edx
  40259d:	44 01 f2             	add    %r14d,%edx
  4025a0:	8d 3c 52             	lea    (%rdx,%rdx,2),%edi
  4025a3:	8d 57 02             	lea    0x2(%rdi),%edx
  4025a6:	44 8d 4f 01          	lea    0x1(%rdi),%r9d
  4025aa:	0f b6 3c 3b          	movzbl (%rbx,%rdi,1),%edi
  4025ae:	0f b6 14 13          	movzbl (%rbx,%rdx,1),%edx
  4025b2:	46 0f b6 0c 0b       	movzbl (%rbx,%r9,1),%r9d
  4025b7:	c1 e2 10             	shl    $0x10,%edx
  4025ba:	41 c1 e1 08          	shl    $0x8,%r9d
  4025be:	44 09 ca             	or     %r9d,%edx
  4025c1:	09 fa                	or     %edi,%edx
  4025c3:	74 4b                	je     402610 <kernelEntry+0x1610>
  4025c5:	8b 74 24 10          	mov    0x10(%rsp),%esi
  4025c9:	8b 04 24             	mov    (%rsp),%eax
  4025cc:	4d 89 ef             	mov    %r13,%r15
  4025cf:	29 ee                	sub    %ebp,%esi
  4025d1:	42 8d 3c 30          	lea    (%rax,%r14,1),%edi
  4025d5:	41 83 c6 01          	add    $0x1,%r14d
  4025d9:	01 ce                	add    %ecx,%esi
  4025db:	48 b9 20 98 fe ff ff 	movabs $0xfffffffffffe9820,%rcx
  4025e2:	ff ff ff 
  4025e5:	4c 01 e9             	add    %r13,%rcx
  4025e8:	ff d1                	call   *%rcx
  4025ea:	8b 34 25 12 00 20 00 	mov    0x200012,%esi
  4025f1:	8b 0c 25 16 00 20 00 	mov    0x200016,%ecx
  4025f8:	41 39 f6             	cmp    %esi,%r14d
  4025fb:	72 9b                	jb     402598 <kernelEntry+0x1598>
  4025fd:	83 c5 01             	add    $0x1,%ebp
  402600:	39 e9                	cmp    %ebp,%ecx
  402602:	77 84                	ja     402588 <kernelEntry+0x1588>
  402604:	e9 f8 ea ff ff       	jmp    401101 <kernelEntry+0x101>
  402609:	0f 1f 80 00 00 00 00 	nopl   0x0(%rax)
  402610:	41 83 c6 01          	add    $0x1,%r14d
  402614:	41 39 f6             	cmp    %esi,%r14d
  402617:	0f 82 7b ff ff ff    	jb     402598 <kernelEntry+0x1598>
  40261d:	83 c5 01             	add    $0x1,%ebp
  402620:	39 e9                	cmp    %ebp,%ecx
  402622:	0f 87 60 ff ff ff    	ja     402588 <kernelEntry+0x1588>
  402628:	e9 d4 ea ff ff       	jmp    401101 <kernelEntry+0x101>
  40262d:	89 fe                	mov    %edi,%esi
  40262f:	4c 89 c7             	mov    %r8,%rdi
  402632:	ff d1                	call   *%rcx
  402634:	4b 8b 04 2c          	mov    (%r12,%r13,1),%rax
  402638:	4c 8b 00             	mov    (%rax),%r8
  40263b:	e9 02 fc ff ff       	jmp    402242 <kernelEntry+0x1242>
  402640:	89 fe                	mov    %edi,%esi
  402642:	4c 89 c7             	mov    %r8,%rdi
  402645:	ff d0                	call   *%rax
  402647:	4b 8b 04 2c          	mov    (%r12,%r13,1),%rax
  40264b:	4c 8b 00             	mov    (%rax),%r8
  40264e:	e9 86 fb ff ff       	jmp    4021d9 <kernelEntry+0x11d9>
  402653:	89 fe                	mov    %edi,%esi
  402655:	4c 89 c7             	mov    %r8,%rdi
  402658:	ff d1                	call   *%rcx
  40265a:	e9 df f8 ff ff       	jmp    401f3e <kernelEntry+0xf3e>
  40265f:	48 8b bc 24 a8 00 00 	mov    0xa8(%rsp),%rdi
  402666:	00 
  402667:	48 85 ff             	test   %rdi,%rdi
  40266a:	0f 85 73 f1 ff ff    	jne    4017e3 <kernelEntry+0x7e3>
  402670:	48 b8 4a 0a 00 00 00 	movabs $0xa4a,%rax
  402677:	00 00 00 
  40267a:	49 8d 7c 05 00       	lea    0x0(%r13,%rax,1),%rdi
  40267f:	48 b8 10 c0 fe ff ff 	movabs $0xfffffffffffec010,%rax
  402686:	ff ff ff 
  402689:	4c 01 e8             	add    %r13,%rax
  40268c:	ff d0                	call   *%rax
  40268e:	89 fe                	mov    %edi,%esi
  402690:	4c 89 c7             	mov    %r8,%rdi
  402693:	ff d1                	call   *%rcx
  402695:	e9 c5 fa ff ff       	jmp    40215f <kernelEntry+0x115f>
  40269a:	48 83 bc 24 a8 00 00 	cmpq   $0x0,0xa8(%rsp)
  4026a1:	00 00 
  4026a3:	0f 84 f1 04 00 00    	je     402b9a <kernelEntry+0x1b9a>
  4026a9:	4b 8b 1c 2c          	mov    (%r12,%r13,1),%rbx
  4026ad:	48 89 2c 24          	mov    %rbp,(%rsp)
  4026b1:	48 b8 44 0a 00 00 00 	movabs $0xa44,%rax
  4026b8:	00 00 00 
  4026bb:	48 ba 00 d7 fe ff ff 	movabs $0xfffffffffffed700,%rdx
  4026c2:	ff ff ff 
  4026c5:	4d 8d 7c 05 00       	lea    0x0(%r13,%rax,1),%r15
  4026ca:	4a 8d 34 2a          	lea    (%rdx,%r13,1),%rsi
  4026ce:	4c 89 74 24 10       	mov    %r14,0x10(%rsp)
  4026d3:	b8 70 00 00 00       	mov    $0x70,%eax
  4026d8:	4c 8b 03             	mov    (%rbx),%r8
  4026db:	4c 89 fd             	mov    %r15,%rbp
  4026de:	49 89 f6             	mov    %rsi,%r14
  4026e1:	45 89 d7             	mov    %r10d,%r15d
  4026e4:	4d 85 c0             	test   %r8,%r8
  4026e7:	74 2a                	je     402713 <kernelEntry+0x1713>
  4026e9:	49 8b 08             	mov    (%r8),%rcx
  4026ec:	0f b6 f8             	movzbl %al,%edi
  4026ef:	48 8b 09             	mov    (%rcx),%rcx
  4026f2:	4c 39 f1             	cmp    %r14,%rcx
  4026f5:	0f 85 c0 03 00 00    	jne    402abb <kernelEntry+0x1abb>
  4026fb:	41 ff 50 08          	call   *0x8(%r8)
  4026ff:	0f b6 45 00          	movzbl 0x0(%rbp),%eax
  402703:	84 c0                	test   %al,%al
  402705:	74 0c                	je     402713 <kernelEntry+0x1713>
  402707:	4c 8b 03             	mov    (%rbx),%r8
  40270a:	48 83 c5 01          	add    $0x1,%rbp
  40270e:	4d 85 c0             	test   %r8,%r8
  402711:	75 d6                	jne    4026e9 <kernelEntry+0x16e9>
  402713:	4c 8b 8c 24 a8 00 00 	mov    0xa8(%rsp),%r9
  40271a:	00 
  40271b:	45 89 fa             	mov    %r15d,%r10d
  40271e:	48 8b 2c 24          	mov    (%rsp),%rbp
  402722:	48 b8 97 09 00 00 00 	movabs $0x997,%rax
  402729:	00 00 00 
  40272c:	4c 01 e8             	add    %r13,%rax
  40272f:	4c 8b 74 24 10       	mov    0x10(%rsp),%r14
  402734:	c6 84 24 10 01 00 00 	movb   $0x0,0x110(%rsp)
  40273b:	00 
  40273c:	4d 89 cf             	mov    %r9,%r15
  40273f:	49 c1 ef 3c          	shr    $0x3c,%r15
  402743:	41 0f b6 14 07       	movzbl (%r15,%rax,1),%edx
  402748:	4d 89 cf             	mov    %r9,%r15
  40274b:	49 c1 ef 38          	shr    $0x38,%r15
  40274f:	4c 89 f9             	mov    %r15,%rcx
  402752:	4d 89 cf             	mov    %r9,%r15
  402755:	83 e1 0f             	and    $0xf,%ecx
  402758:	49 c1 ef 2c          	shr    $0x2c,%r15
  40275c:	48 89 cb             	mov    %rcx,%rbx
  40275f:	4c 89 c9             	mov    %r9,%rcx
  402762:	48 c1 e9 34          	shr    $0x34,%rcx
  402766:	83 e1 0f             	and    $0xf,%ecx
  402769:	49 89 cb             	mov    %rcx,%r11
  40276c:	4c 89 c9             	mov    %r9,%rcx
  40276f:	48 c1 e9 30          	shr    $0x30,%rcx
  402773:	83 e1 0f             	and    $0xf,%ecx
  402776:	48 89 0c 24          	mov    %rcx,(%rsp)
  40277a:	4c 89 f9             	mov    %r15,%rcx
  40277d:	4d 89 cf             	mov    %r9,%r15
  402780:	49 c1 ef 28          	shr    $0x28,%r15
  402784:	83 e1 0f             	and    $0xf,%ecx
  402787:	4c 89 fe             	mov    %r15,%rsi
  40278a:	4d 89 cf             	mov    %r9,%r15
  40278d:	0f b6 0c 01          	movzbl (%rcx,%rax,1),%ecx
  402791:	49 c1 ef 24          	shr    $0x24,%r15
  402795:	83 e6 0f             	and    $0xf,%esi
  402798:	4c 89 ff             	mov    %r15,%rdi
  40279b:	4d 89 cf             	mov    %r9,%r15
  40279e:	0f b6 34 06          	movzbl (%rsi,%rax,1),%esi
  4027a2:	49 c1 ef 20          	shr    $0x20,%r15
  4027a6:	83 e7 0f             	and    $0xf,%edi
  4027a9:	4d 89 f8             	mov    %r15,%r8
  4027ac:	4d 89 cf             	mov    %r9,%r15
  4027af:	49 c1 e9 1c          	shr    $0x1c,%r9
  4027b3:	0f b6 3c 07          	movzbl (%rdi,%rax,1),%edi
  4027b7:	41 83 e1 0f          	and    $0xf,%r9d
  4027bb:	41 83 e0 0f          	and    $0xf,%r8d
  4027bf:	4c 89 4c 24 10       	mov    %r9,0x10(%rsp)
  4027c4:	4d 89 f9             	mov    %r15,%r9
  4027c7:	45 0f b6 04 00       	movzbl (%r8,%rax,1),%r8d
  4027cc:	49 c1 e9 18          	shr    $0x18,%r9
  4027d0:	41 83 e1 0f          	and    $0xf,%r9d
  4027d4:	49 c1 e0 08          	shl    $0x8,%r8
  4027d8:	4c 89 4c 24 18       	mov    %r9,0x18(%rsp)
  4027dd:	4d 89 f9             	mov    %r15,%r9
  4027e0:	49 c1 e9 14          	shr    $0x14,%r9
  4027e4:	41 83 e1 0f          	and    $0xf,%r9d
  4027e8:	4c 89 4c 24 20       	mov    %r9,0x20(%rsp)
  4027ed:	4d 89 f9             	mov    %r15,%r9
  4027f0:	49 c1 e9 10          	shr    $0x10,%r9
  4027f4:	41 83 e1 0f          	and    $0xf,%r9d
  4027f8:	4c 89 4c 24 28       	mov    %r9,0x28(%rsp)
  4027fd:	4d 89 f9             	mov    %r15,%r9
  402800:	49 c1 e9 0c          	shr    $0xc,%r9
  402804:	41 83 e1 0f          	and    $0xf,%r9d
  402808:	4c 89 4c 24 30       	mov    %r9,0x30(%rsp)
  40280d:	4d 89 f9             	mov    %r15,%r9
  402810:	49 c1 e9 08          	shr    $0x8,%r9
  402814:	4d 89 cf             	mov    %r9,%r15
  402817:	41 83 e7 0f          	and    $0xf,%r15d
  40281b:	4c 89 7c 24 40       	mov    %r15,0x40(%rsp)
  402820:	4c 8b bc 24 a8 00 00 	mov    0xa8(%rsp),%r15
  402827:	00 
  402828:	4d 89 f9             	mov    %r15,%r9
  40282b:	41 83 e7 0f          	and    $0xf,%r15d
  40282f:	49 c1 e9 04          	shr    $0x4,%r9
  402833:	41 83 e1 0f          	and    $0xf,%r9d
  402837:	49 09 f8             	or     %rdi,%r8
  40283a:	0f b6 fa             	movzbl %dl,%edi
  40283d:	49 c1 e0 08          	shl    $0x8,%r8
  402841:	49 09 f0             	or     %rsi,%r8
  402844:	41 0f b6 34 01       	movzbl (%r9,%rax,1),%esi
  402849:	49 c1 e0 08          	shl    $0x8,%r8
  40284d:	49 09 c8             	or     %rcx,%r8
  402850:	48 8b 0c 24          	mov    (%rsp),%rcx
  402854:	49 c1 e0 08          	shl    $0x8,%r8
  402858:	0f b6 0c 01          	movzbl (%rcx,%rax,1),%ecx
  40285c:	49 09 c8             	or     %rcx,%r8
  40285f:	41 0f b6 0c 03       	movzbl (%r11,%rax,1),%ecx
  402864:	4c 8b 5c 24 28       	mov    0x28(%rsp),%r11
  402869:	49 c1 e0 08          	shl    $0x8,%r8
  40286d:	49 09 c8             	or     %rcx,%r8
  402870:	0f b6 0c 03          	movzbl (%rbx,%rax,1),%ecx
  402874:	48 8b 5c 24 20       	mov    0x20(%rsp),%rbx
  402879:	49 c1 e0 08          	shl    $0x8,%r8
  40287d:	49 09 c8             	or     %rcx,%r8
  402880:	41 0f b6 0c 07       	movzbl (%r15,%rax,1),%ecx
  402885:	4c 8b 7c 24 30       	mov    0x30(%rsp),%r15
  40288a:	49 c1 e0 08          	shl    $0x8,%r8
  40288e:	48 c1 e1 08          	shl    $0x8,%rcx
  402892:	49 09 f8             	or     %rdi,%r8
  402895:	48 09 f1             	or     %rsi,%rcx
  402898:	48 8b 74 24 40       	mov    0x40(%rsp),%rsi
  40289d:	48 c1 e1 08          	shl    $0x8,%rcx
  4028a1:	0f b6 34 06          	movzbl (%rsi,%rax,1),%esi
  4028a5:	48 09 f1             	or     %rsi,%rcx
  4028a8:	41 0f b6 34 07       	movzbl (%r15,%rax,1),%esi
  4028ad:	4c 8d bc 24 01 01 00 	lea    0x101(%rsp),%r15
  4028b4:	00 
  4028b5:	48 c1 e1 08          	shl    $0x8,%rcx
  4028b9:	48 09 f1             	or     %rsi,%rcx
  4028bc:	41 0f b6 34 03       	movzbl (%r11,%rax,1),%esi
  4028c1:	48 c1 e1 08          	shl    $0x8,%rcx
  4028c5:	48 09 f1             	or     %rsi,%rcx
  4028c8:	0f b6 34 03          	movzbl (%rbx,%rax,1),%esi
  4028cc:	48 c1 e1 08          	shl    $0x8,%rcx
  4028d0:	48 09 f1             	or     %rsi,%rcx
  4028d3:	48 8b 74 24 18       	mov    0x18(%rsp),%rsi
  4028d8:	48 c1 e1 08          	shl    $0x8,%rcx
  4028dc:	0f b6 34 06          	movzbl (%rsi,%rax,1),%esi
  4028e0:	4c 8b 4c 24 10       	mov    0x10(%rsp),%r9
  4028e5:	4c 89 04 24          	mov    %r8,(%rsp)
  4028e9:	48 09 f1             	or     %rsi,%rcx
  4028ec:	41 0f b6 34 01       	movzbl (%r9,%rax,1),%esi
  4028f1:	48 89 c8             	mov    %rcx,%rax
  4028f4:	48 c1 e0 08          	shl    $0x8,%rax
  4028f8:	48 09 f0             	or     %rsi,%rax
  4028fb:	48 89 44 24 08       	mov    %rax,0x8(%rsp)
  402900:	66 0f 6f 34 24       	movdqa (%rsp),%xmm6
  402905:	0f 29 b4 24 00 01 00 	movaps %xmm6,0x100(%rsp)
  40290c:	00 
  40290d:	84 d2                	test   %dl,%dl
  40290f:	74 62                	je     402973 <kernelEntry+0x1973>
  402911:	4b 8b 1c 2c          	mov    (%r12,%r13,1),%rbx
  402915:	44 88 54 24 10       	mov    %r10b,0x10(%rsp)
  40291a:	48 b8 00 d7 fe ff ff 	movabs $0xfffffffffffed700,%rax
  402921:	ff ff ff 
  402924:	4c 01 e8             	add    %r13,%rax
  402927:	48 89 04 24          	mov    %rax,(%rsp)
  40292b:	48 89 d8             	mov    %rbx,%rax
  40292e:	4c 89 fb             	mov    %r15,%rbx
  402931:	4d 89 f7             	mov    %r14,%r15
  402934:	49 89 ee             	mov    %rbp,%r14
  402937:	48 89 c5             	mov    %rax,%rbp
  40293a:	eb 22                	jmp    40295e <kernelEntry+0x195e>
  40293c:	49 8b 08             	mov    (%r8),%rcx
  40293f:	0f b6 fa             	movzbl %dl,%edi
  402942:	48 8b 09             	mov    (%rcx),%rcx
  402945:	48 3b 0c 24          	cmp    (%rsp),%rcx
  402949:	0f 85 78 01 00 00    	jne    402ac7 <kernelEntry+0x1ac7>
  40294f:	41 ff 50 08          	call   *0x8(%r8)
  402953:	0f b6 13             	movzbl (%rbx),%edx
  402956:	84 d2                	test   %dl,%dl
  402958:	74 0d                	je     402967 <kernelEntry+0x1967>
  40295a:	48 83 c3 01          	add    $0x1,%rbx
  40295e:	4c 8b 45 00          	mov    0x0(%rbp),%r8
  402962:	4d 85 c0             	test   %r8,%r8
  402965:	75 d5                	jne    40293c <kernelEntry+0x193c>
  402967:	44 0f b6 54 24 10    	movzbl 0x10(%rsp),%r10d
  40296d:	4c 89 f5             	mov    %r14,%rbp
  402970:	4d 89 fe             	mov    %r15,%r14
  402973:	4b 8b 04 2c          	mov    (%r12,%r13,1),%rax
  402977:	4c 8b 00             	mov    (%rax),%r8
  40297a:	4d 85 c0             	test   %r8,%r8
  40297d:	0f 84 ec 03 00 00    	je     402d6f <kernelEntry+0x1d6f>
  402983:	49 8b 00             	mov    (%r8),%rax
  402986:	44 88 14 24          	mov    %r10b,(%rsp)
  40298a:	48 be 00 d7 fe ff ff 	movabs $0xfffffffffffed700,%rsi
  402991:	ff ff ff 
  402994:	4a 8d 14 2e          	lea    (%rsi,%r13,1),%rdx
  402998:	48 8b 00             	mov    (%rax),%rax
  40299b:	48 39 d0             	cmp    %rdx,%rax
  40299e:	0f 85 b7 03 00 00    	jne    402d5b <kernelEntry+0x1d5b>
  4029a4:	bf 5d 00 00 00       	mov    $0x5d,%edi
  4029a9:	41 ff 50 08          	call   *0x8(%r8)
  4029ad:	44 0f b6 14 24       	movzbl (%rsp),%r10d
  4029b2:	4b 8b 04 2c          	mov    (%r12,%r13,1),%rax
  4029b6:	48 8b 38             	mov    (%rax),%rdi
  4029b9:	45 84 d2             	test   %r10b,%r10b
  4029bc:	0f 84 01 ee ff ff    	je     4017c3 <kernelEntry+0x7c3>
  4029c2:	48 bb 00 d7 fe ff ff 	movabs $0xfffffffffffed700,%rbx
  4029c9:	ff ff ff 
  4029cc:	eb 3b                	jmp    402a09 <kernelEntry+0x1a09>
  4029ce:	66 90                	xchg   %ax,%ax
  4029d0:	4b 8b 04 2c          	mov    (%r12,%r13,1),%rax
  4029d4:	4d 8d 77 01          	lea    0x1(%r15),%r14
  4029d8:	4c 8b 00             	mov    (%rax),%r8
  4029db:	4d 85 c0             	test   %r8,%r8
  4029de:	74 1b                	je     4029fb <kernelEntry+0x19fb>
  4029e0:	49 8b 00             	mov    (%r8),%rax
  4029e3:	4a 8d 14 2b          	lea    (%rbx,%r13,1),%rdx
  4029e7:	41 0f b6 fa          	movzbl %r10b,%edi
  4029eb:	48 8b 00             	mov    (%rax),%rax
  4029ee:	48 39 d0             	cmp    %rdx,%rax
  4029f1:	0f 85 9a 00 00 00    	jne    402a91 <kernelEntry+0x1a91>
  4029f7:	41 ff 50 08          	call   *0x8(%r8)
  4029fb:	45 0f b6 57 01       	movzbl 0x1(%r15),%r10d
  402a00:	45 84 d2             	test   %r10b,%r10b
  402a03:	0f 84 ca 00 00 00    	je     402ad3 <kernelEntry+0x1ad3>
  402a09:	4d 89 f7             	mov    %r14,%r15
  402a0c:	41 80 fa 40          	cmp    $0x40,%r10b
  402a10:	75 be                	jne    4029d0 <kernelEntry+0x19d0>
  402a12:	45 0f b6 56 01       	movzbl 0x1(%r14),%r10d
  402a17:	49 83 c7 01          	add    $0x1,%r15
  402a1b:	41 80 fa 40          	cmp    $0x40,%r10b
  402a1f:	74 af                	je     4029d0 <kernelEntry+0x19d0>
  402a21:	48 83 bc 24 b8 00 00 	cmpq   $0x0,0xb8(%rsp)
  402a28:	00 00 
  402a2a:	0f 84 d0 01 00 00    	je     402c00 <kernelEntry+0x1c00>
  402a30:	48 ba 00 d7 fe ff ff 	movabs $0xfffffffffffed700,%rdx
  402a37:	ff ff ff 
  402a3a:	4b 8b 1c 2c          	mov    (%r12,%r13,1),%rbx
  402a3e:	48 b8 43 0a 00 00 00 	movabs $0xa43,%rax
  402a45:	00 00 00 
  402a48:	4a 8d 0c 2a          	lea    (%rdx,%r13,1),%rcx
  402a4c:	4d 8d 74 05 00       	lea    0x0(%r13,%rax,1),%r14
  402a51:	b8 70 00 00 00       	mov    $0x70,%eax
  402a56:	48 89 0c 24          	mov    %rcx,(%rsp)
  402a5a:	eb 17                	jmp    402a73 <kernelEntry+0x1a73>
  402a5c:	89 f7                	mov    %esi,%edi
  402a5e:	41 ff 50 08          	call   *0x8(%r8)
  402a62:	41 0f b6 46 01       	movzbl 0x1(%r14),%eax
  402a67:	49 83 c6 01          	add    $0x1,%r14
  402a6b:	84 c0                	test   %al,%al
  402a6d:	0f 84 32 02 00 00    	je     402ca5 <kernelEntry+0x1ca5>
  402a73:	4c 8b 03             	mov    (%rbx),%r8
  402a76:	4d 85 c0             	test   %r8,%r8
  402a79:	74 e7                	je     402a62 <kernelEntry+0x1a62>
  402a7b:	49 8b 10             	mov    (%r8),%rdx
  402a7e:	0f b6 f0             	movzbl %al,%esi
  402a81:	48 8b 12             	mov    (%rdx),%rdx
  402a84:	48 3b 14 24          	cmp    (%rsp),%rdx
  402a88:	74 d2                	je     402a5c <kernelEntry+0x1a5c>
  402a8a:	4c 89 c7             	mov    %r8,%rdi
  402a8d:	ff d2                	call   *%rdx
  402a8f:	eb d1                	jmp    402a62 <kernelEntry+0x1a62>
  402a91:	89 fe                	mov    %edi,%esi
  402a93:	4c 89 c7             	mov    %r8,%rdi
  402a96:	ff d0                	call   *%rax
  402a98:	e9 5e ff ff ff       	jmp    4029fb <kernelEntry+0x19fb>
  402a9d:	be 2d 00 00 00       	mov    $0x2d,%esi
  402aa2:	4c 89 c7             	mov    %r8,%rdi
  402aa5:	ff d2                	call   *%rdx
  402aa7:	e9 f2 f2 ff ff       	jmp    401d9e <kernelEntry+0xd9e>
  402aac:	be 2d 00 00 00       	mov    $0x2d,%esi
  402ab1:	4c 89 c7             	mov    %r8,%rdi
  402ab4:	ff d2                	call   *%rdx
  402ab6:	e9 33 f1 ff ff       	jmp    401bee <kernelEntry+0xbee>
  402abb:	89 fe                	mov    %edi,%esi
  402abd:	4c 89 c7             	mov    %r8,%rdi
  402ac0:	ff d1                	call   *%rcx
  402ac2:	e9 38 fc ff ff       	jmp    4026ff <kernelEntry+0x16ff>
  402ac7:	89 fe                	mov    %edi,%esi
  402ac9:	4c 89 c7             	mov    %r8,%rdi
  402acc:	ff d1                	call   *%rcx
  402ace:	e9 80 fe ff ff       	jmp    402953 <kernelEntry+0x1953>
  402ad3:	4b 8b 04 2c          	mov    (%r12,%r13,1),%rax
  402ad7:	48 8b 38             	mov    (%rax),%rdi
  402ada:	e9 e4 ec ff ff       	jmp    4017c3 <kernelEntry+0x7c3>
  402adf:	48 b8 f0 9c fe ff ff 	movabs $0xfffffffffffe9cf0,%rax
  402ae6:	ff ff ff 
  402ae9:	48 c7 84 24 b8 00 00 	movq   $0x0,0xb8(%rsp)
  402af0:	00 00 00 00 00 
  402af5:	48 89 84 24 88 00 00 	mov    %rax,0x88(%rsp)
  402afc:	00 
  402afd:	48 b8 c3 09 00 00 00 	movabs $0x9c3,%rax
  402b04:	00 00 00 
  402b07:	48 89 44 24 78       	mov    %rax,0x78(%rsp)
  402b0c:	48 b8 d8 ff ff ff ff 	movabs $0xffffffffffffffd8,%rax
  402b13:	ff ff ff 
  402b16:	48 89 44 24 58       	mov    %rax,0x58(%rsp)
  402b1b:	48 b8 6d 09 00 00 00 	movabs $0x96d,%rax
  402b22:	00 00 00 
  402b25:	48 c7 84 24 a8 00 00 	movq   $0x0,0xa8(%rsp)
  402b2c:	00 00 00 00 00 
  402b31:	48 89 44 24 70       	mov    %rax,0x70(%rsp)
  402b36:	e9 45 ea ff ff       	jmp    401580 <kernelEntry+0x580>
  402b3b:	48 8b 84 24 d8 00 00 	mov    0xd8(%rsp),%rax
  402b42:	00 
  402b43:	4f 8b 3c 2c          	mov    (%r12,%r13,1),%r15
  402b47:	ba 70 00 00 00       	mov    $0x70,%edx
  402b4c:	49 8d 6c 05 00       	lea    0x0(%r13,%rax,1),%rbp
  402b51:	eb 14                	jmp    402b67 <kernelEntry+0x1b67>
  402b53:	41 ff 50 08          	call   *0x8(%r8)
  402b57:	0f b6 55 00          	movzbl 0x0(%rbp),%edx
  402b5b:	84 d2                	test   %dl,%dl
  402b5d:	0f 84 35 f6 ff ff    	je     402198 <kernelEntry+0x1198>
  402b63:	48 83 c5 01          	add    $0x1,%rbp
  402b67:	4d 8b 07             	mov    (%r15),%r8
  402b6a:	4d 85 c0             	test   %r8,%r8
  402b6d:	0f 84 25 f6 ff ff    	je     402198 <kernelEntry+0x1198>
  402b73:	49 8b 00             	mov    (%r8),%rax
  402b76:	0f b6 fa             	movzbl %dl,%edi
  402b79:	48 8b 00             	mov    (%rax),%rax
  402b7c:	48 3b 04 24          	cmp    (%rsp),%rax
  402b80:	74 d1                	je     402b53 <kernelEntry+0x1b53>
  402b82:	89 fe                	mov    %edi,%esi
  402b84:	4c 89 c7             	mov    %r8,%rdi
  402b87:	ff d0                	call   *%rax
  402b89:	eb cc                	jmp    402b57 <kernelEntry+0x1b57>
  402b8b:	be 5d 00 00 00       	mov    $0x5d,%esi
  402b90:	4c 89 c7             	mov    %r8,%rdi
  402b93:	ff d2                	call   *%rdx
  402b95:	e9 fe f5 ff ff       	jmp    402198 <kernelEntry+0x1198>
  402b9a:	48 ba 00 d7 fe ff ff 	movabs $0xfffffffffffed700,%rdx
  402ba1:	ff ff ff 
  402ba4:	44 88 54 24 10       	mov    %r10b,0x10(%rsp)
  402ba9:	4b 8b 1c 2c          	mov    (%r12,%r13,1),%rbx
  402bad:	48 b8 36 0a 00 00 00 	movabs $0xa36,%rax
  402bb4:	00 00 00 
  402bb7:	4a 8d 34 2a          	lea    (%rdx,%r13,1),%rsi
  402bbb:	4d 8d 7c 05 00       	lea    0x0(%r13,%rax,1),%r15
  402bc0:	b8 70 00 00 00       	mov    $0x70,%eax
  402bc5:	48 89 34 24          	mov    %rsi,(%rsp)
  402bc9:	eb 17                	jmp    402be2 <kernelEntry+0x1be2>
  402bcb:	89 f7                	mov    %esi,%edi
  402bcd:	41 ff 50 08          	call   *0x8(%r8)
  402bd1:	41 0f b6 47 01       	movzbl 0x1(%r15),%eax
  402bd6:	49 83 c7 01          	add    $0x1,%r15
  402bda:	84 c0                	test   %al,%al
  402bdc:	0f 84 6e 01 00 00    	je     402d50 <kernelEntry+0x1d50>
  402be2:	4c 8b 03             	mov    (%rbx),%r8
  402be5:	4d 85 c0             	test   %r8,%r8
  402be8:	74 e7                	je     402bd1 <kernelEntry+0x1bd1>
  402bea:	49 8b 10             	mov    (%r8),%rdx
  402bed:	0f b6 f0             	movzbl %al,%esi
  402bf0:	48 8b 12             	mov    (%rdx),%rdx
  402bf3:	48 3b 14 24          	cmp    (%rsp),%rdx
  402bf7:	74 d2                	je     402bcb <kernelEntry+0x1bcb>
  402bf9:	4c 89 c7             	mov    %r8,%rdi
  402bfc:	ff d2                	call   *%rdx
  402bfe:	eb d1                	jmp    402bd1 <kernelEntry+0x1bd1>
  402c00:	48 ba 00 d7 fe ff ff 	movabs $0xfffffffffffed700,%rdx
  402c07:	ff ff ff 
  402c0a:	4f 8b 34 2c          	mov    (%r12,%r13,1),%r14
  402c0e:	48 b8 36 0a 00 00 00 	movabs $0xa36,%rax
  402c15:	00 00 00 
  402c18:	4a 8d 0c 2a          	lea    (%rdx,%r13,1),%rcx
  402c1c:	49 8d 5c 05 00       	lea    0x0(%r13,%rax,1),%rbx
  402c21:	b8 70 00 00 00       	mov    $0x70,%eax
  402c26:	48 89 0c 24          	mov    %rcx,(%rsp)
  402c2a:	eb 12                	jmp    402c3e <kernelEntry+0x1c3e>
  402c2c:	89 f7                	mov    %esi,%edi
  402c2e:	41 ff 50 08          	call   *0x8(%r8)
  402c32:	0f b6 43 01          	movzbl 0x1(%rbx),%eax
  402c36:	48 83 c3 01          	add    $0x1,%rbx
  402c3a:	84 c0                	test   %al,%al
  402c3c:	74 49                	je     402c87 <kernelEntry+0x1c87>
  402c3e:	4d 8b 06             	mov    (%r14),%r8
  402c41:	4d 85 c0             	test   %r8,%r8
  402c44:	74 ec                	je     402c32 <kernelEntry+0x1c32>
  402c46:	49 8b 10             	mov    (%r8),%rdx
  402c49:	0f b6 f0             	movzbl %al,%esi
  402c4c:	48 8b 12             	mov    (%rdx),%rdx
  402c4f:	48 3b 14 24          	cmp    (%rsp),%rdx
  402c53:	74 d7                	je     402c2c <kernelEntry+0x1c2c>
  402c55:	4c 89 c7             	mov    %r8,%rdi
  402c58:	ff d2                	call   *%rdx
  402c5a:	eb d6                	jmp    402c32 <kernelEntry+0x1c32>
  402c5c:	4d 85 c0             	test   %r8,%r8
  402c5f:	74 26                	je     402c87 <kernelEntry+0x1c87>
  402c61:	48 b9 00 d7 fe ff ff 	movabs $0xfffffffffffed700,%rcx
  402c68:	ff ff ff 
  402c6b:	49 8b 00             	mov    (%r8),%rax
  402c6e:	4a 8d 14 29          	lea    (%rcx,%r13,1),%rdx
  402c72:	48 8b 00             	mov    (%rax),%rax
  402c75:	48 39 d0             	cmp    %rdx,%rax
  402c78:	0f 85 31 01 00 00    	jne    402daf <kernelEntry+0x1daf>
  402c7e:	bf 5d 00 00 00       	mov    $0x5d,%edi
  402c83:	41 ff 50 08          	call   *0x8(%r8)
  402c87:	48 b8 d0 be fe ff ff 	movabs $0xfffffffffffebed0,%rax
  402c8e:	ff ff ff 
  402c91:	4c 89 ff             	mov    %r15,%rdi
  402c94:	4c 01 e8             	add    %r13,%rax
  402c97:	ff d0                	call   *%rax
  402c99:	4b 8b 04 2c          	mov    (%r12,%r13,1),%rax
  402c9d:	48 8b 38             	mov    (%rax),%rdi
  402ca0:	e9 1e eb ff ff       	jmp    4017c3 <kernelEntry+0x7c3>
  402ca5:	48 8d b4 24 00 01 00 	lea    0x100(%rsp),%rsi
  402cac:	00 
  402cad:	66 0f ef c0          	pxor   %xmm0,%xmm0
  402cb1:	31 d2                	xor    %edx,%edx
  402cb3:	c6 84 24 10 01 00 00 	movb   $0x0,0x110(%rsp)
  402cba:	00 
  402cbb:	48 89 74 24 20       	mov    %rsi,0x20(%rsp)
  402cc0:	48 8b 8c 24 b8 00 00 	mov    0xb8(%rsp),%rcx
  402cc7:	00 
  402cc8:	48 b8 97 09 00 00 00 	movabs $0x997,%rax
  402ccf:	00 00 00 
  402cd2:	48 8d bc 24 0f 01 00 	lea    0x10f(%rsp),%rdi
  402cd9:	00 
  402cda:	0f 29 84 24 00 01 00 	movaps %xmm0,0x100(%rsp)
  402ce1:	00 
  402ce2:	4c 01 e8             	add    %r13,%rax
  402ce5:	48 89 ce             	mov    %rcx,%rsi
  402ce8:	48 c1 e9 04          	shr    $0x4,%rcx
  402cec:	83 e6 0f             	and    $0xf,%esi
  402cef:	0f b6 34 06          	movzbl (%rsi,%rax,1),%esi
  402cf3:	40 88 34 17          	mov    %sil,(%rdi,%rdx,1)
  402cf7:	48 83 ea 01          	sub    $0x1,%rdx
  402cfb:	48 83 fa f0          	cmp    $0xfffffffffffffff0,%rdx
  402cff:	75 e4                	jne    402ce5 <kernelEntry+0x1ce5>
  402d01:	48 b8 00 d7 fe ff ff 	movabs $0xfffffffffffed700,%rax
  402d08:	ff ff ff 
  402d0b:	48 8b 5c 24 20       	mov    0x20(%rsp),%rbx
  402d10:	4f 8b 34 2c          	mov    (%r12,%r13,1),%r14
  402d14:	4c 01 e8             	add    %r13,%rax
  402d17:	48 89 04 24          	mov    %rax,(%rsp)
  402d1b:	eb 0a                	jmp    402d27 <kernelEntry+0x1d27>
  402d1d:	89 f7                	mov    %esi,%edi
  402d1f:	41 ff 50 08          	call   *0x8(%r8)
  402d23:	48 83 c3 01          	add    $0x1,%rbx
  402d27:	0f b6 03             	movzbl (%rbx),%eax
  402d2a:	4d 8b 06             	mov    (%r14),%r8
  402d2d:	84 c0                	test   %al,%al
  402d2f:	0f 84 27 ff ff ff    	je     402c5c <kernelEntry+0x1c5c>
  402d35:	4d 85 c0             	test   %r8,%r8
  402d38:	74 e9                	je     402d23 <kernelEntry+0x1d23>
  402d3a:	49 8b 10             	mov    (%r8),%rdx
  402d3d:	0f b6 f0             	movzbl %al,%esi
  402d40:	48 8b 12             	mov    (%rdx),%rdx
  402d43:	48 3b 14 24          	cmp    (%rsp),%rdx
  402d47:	74 d4                	je     402d1d <kernelEntry+0x1d1d>
  402d49:	4c 89 c7             	mov    %r8,%rdi
  402d4c:	ff d2                	call   *%rdx
  402d4e:	eb d3                	jmp    402d23 <kernelEntry+0x1d23>
  402d50:	44 0f b6 54 24 10    	movzbl 0x10(%rsp),%r10d
  402d56:	e9 57 fc ff ff       	jmp    4029b2 <kernelEntry+0x19b2>
  402d5b:	be 5d 00 00 00       	mov    $0x5d,%esi
  402d60:	4c 89 c7             	mov    %r8,%rdi
  402d63:	ff d0                	call   *%rax
  402d65:	44 0f b6 14 24       	movzbl (%rsp),%r10d
  402d6a:	e9 43 fc ff ff       	jmp    4029b2 <kernelEntry+0x19b2>
  402d6f:	45 84 d2             	test   %r10b,%r10b
  402d72:	0f 85 4a fc ff ff    	jne    4029c2 <kernelEntry+0x19c2>
  402d78:	e9 55 ea ff ff       	jmp    4017d2 <kernelEntry+0x7d2>
  402d7d:	4d 85 c0             	test   %r8,%r8
  402d80:	0f 84 40 ef ff ff    	je     401cc6 <kernelEntry+0xcc6>
  402d86:	49 8b 10             	mov    (%r8),%rdx
  402d89:	48 8b 12             	mov    (%rdx),%rdx
  402d8c:	48 3b 14 24          	cmp    (%rsp),%rdx
  402d90:	75 0e                	jne    402da0 <kernelEntry+0x1da0>
  402d92:	bf 2d 00 00 00       	mov    $0x2d,%edi
  402d97:	41 ff 50 08          	call   *0x8(%r8)
  402d9b:	e9 26 ef ff ff       	jmp    401cc6 <kernelEntry+0xcc6>
  402da0:	be 2d 00 00 00       	mov    $0x2d,%esi
  402da5:	4c 89 c7             	mov    %r8,%rdi
  402da8:	ff d2                	call   *%rdx
  402daa:	e9 17 ef ff ff       	jmp    401cc6 <kernelEntry+0xcc6>
  402daf:	be 5d 00 00 00       	mov    $0x5d,%esi
  402db4:	4c 89 c7             	mov    %r8,%rdi
  402db7:	ff d0                	call   *%rax
  402db9:	e9 c9 fe ff ff       	jmp    402c87 <kernelEntry+0x1c87>

0000000000402dbe <interruptEntry00>:
  402dbe:	6a 00                	push   $0x0
  402dc0:	6a 00                	push   $0x0
  402dc2:	48 8d 04 25 08 3d 40 	lea    0x403d08,%rax
  402dc9:	00 
  402dca:	ff e0                	jmp    *%rax

0000000000402dcc <interruptEntry01>:
  402dcc:	6a 00                	push   $0x0
  402dce:	6a 01                	push   $0x1
  402dd0:	48 8d 04 25 08 3d 40 	lea    0x403d08,%rax
  402dd7:	00 
  402dd8:	ff e0                	jmp    *%rax

0000000000402dda <interruptEntry03>:
  402dda:	6a 00                	push   $0x0
  402ddc:	6a 03                	push   $0x3
  402dde:	48 8d 04 25 08 3d 40 	lea    0x403d08,%rax
  402de5:	00 
  402de6:	ff e0                	jmp    *%rax

0000000000402de8 <interruptEntry04>:
  402de8:	6a 00                	push   $0x0
  402dea:	6a 04                	push   $0x4
  402dec:	48 8d 04 25 08 3d 40 	lea    0x403d08,%rax
  402df3:	00 
  402df4:	ff e0                	jmp    *%rax

0000000000402df6 <interruptEntry05>:
  402df6:	6a 00                	push   $0x0
  402df8:	6a 05                	push   $0x5
  402dfa:	48 8d 04 25 08 3d 40 	lea    0x403d08,%rax
  402e01:	00 
  402e02:	ff e0                	jmp    *%rax

0000000000402e04 <interruptEntry06>:
  402e04:	6a 00                	push   $0x0
  402e06:	6a 06                	push   $0x6
  402e08:	48 8d 04 25 08 3d 40 	lea    0x403d08,%rax
  402e0f:	00 
  402e10:	ff e0                	jmp    *%rax

0000000000402e12 <interruptEntry07>:
  402e12:	6a 00                	push   $0x0
  402e14:	6a 07                	push   $0x7
  402e16:	48 8d 04 25 08 3d 40 	lea    0x403d08,%rax
  402e1d:	00 
  402e1e:	ff e0                	jmp    *%rax

0000000000402e20 <interruptEntry08>:
  402e20:	6a 08                	push   $0x8
  402e22:	48 8d 04 25 08 3d 40 	lea    0x403d08,%rax
  402e29:	00 
  402e2a:	ff e0                	jmp    *%rax

0000000000402e2c <interruptEntry0a>:
  402e2c:	6a 0a                	push   $0xa
  402e2e:	48 8d 04 25 08 3d 40 	lea    0x403d08,%rax
  402e35:	00 
  402e36:	ff e0                	jmp    *%rax

0000000000402e38 <interruptEntry0b>:
  402e38:	6a 0b                	push   $0xb
  402e3a:	48 8d 04 25 08 3d 40 	lea    0x403d08,%rax
  402e41:	00 
  402e42:	ff e0                	jmp    *%rax

0000000000402e44 <interruptEntry0c>:
  402e44:	6a 0c                	push   $0xc
  402e46:	48 8d 04 25 08 3d 40 	lea    0x403d08,%rax
  402e4d:	00 
  402e4e:	ff e0                	jmp    *%rax

0000000000402e50 <interruptEntry0d>:
  402e50:	6a 0d                	push   $0xd
  402e52:	48 8d 04 25 08 3d 40 	lea    0x403d08,%rax
  402e59:	00 
  402e5a:	ff e0                	jmp    *%rax

0000000000402e5c <interruptEntry0e>:
  402e5c:	6a 0e                	push   $0xe
  402e5e:	48 8d 04 25 08 3d 40 	lea    0x403d08,%rax
  402e65:	00 
  402e66:	ff e0                	jmp    *%rax

0000000000402e68 <interruptEntry10>:
  402e68:	6a 00                	push   $0x0
  402e6a:	6a 10                	push   $0x10
  402e6c:	48 8d 04 25 08 3d 40 	lea    0x403d08,%rax
  402e73:	00 
  402e74:	ff e0                	jmp    *%rax

0000000000402e76 <interruptEntry11>:
  402e76:	6a 00                	push   $0x0
  402e78:	6a 11                	push   $0x11
  402e7a:	48 8d 04 25 08 3d 40 	lea    0x403d08,%rax
  402e81:	00 
  402e82:	ff e0                	jmp    *%rax

0000000000402e84 <interruptEntry12>:
  402e84:	6a 00                	push   $0x0
  402e86:	6a 12                	push   $0x12
  402e88:	48 8d 04 25 08 3d 40 	lea    0x403d08,%rax
  402e8f:	00 
  402e90:	ff e0                	jmp    *%rax

0000000000402e92 <interruptEntry13>:
  402e92:	6a 00                	push   $0x0
  402e94:	6a 13                	push   $0x13
  402e96:	48 8d 04 25 08 3d 40 	lea    0x403d08,%rax
  402e9d:	00 
  402e9e:	ff e0                	jmp    *%rax

0000000000402ea0 <interruptEntry14>:
  402ea0:	6a 00                	push   $0x0
  402ea2:	6a 14                	push   $0x14
  402ea4:	48 8d 04 25 08 3d 40 	lea    0x403d08,%rax
  402eab:	00 
  402eac:	ff e0                	jmp    *%rax

0000000000402eae <interruptEntry15>:
  402eae:	6a 00                	push   $0x0
  402eb0:	6a 15                	push   $0x15
  402eb2:	48 8d 04 25 08 3d 40 	lea    0x403d08,%rax
  402eb9:	00 
  402eba:	ff e0                	jmp    *%rax

0000000000402ebc <interruptEntry16>:
  402ebc:	6a 00                	push   $0x0
  402ebe:	6a 16                	push   $0x16
  402ec0:	48 8d 04 25 08 3d 40 	lea    0x403d08,%rax
  402ec7:	00 
  402ec8:	ff e0                	jmp    *%rax

0000000000402eca <interruptEntry17>:
  402eca:	6a 00                	push   $0x0
  402ecc:	6a 17                	push   $0x17
  402ece:	48 8d 04 25 08 3d 40 	lea    0x403d08,%rax
  402ed5:	00 
  402ed6:	ff e0                	jmp    *%rax

0000000000402ed8 <interruptEntry18>:
  402ed8:	6a 00                	push   $0x0
  402eda:	6a 18                	push   $0x18
  402edc:	48 8d 04 25 08 3d 40 	lea    0x403d08,%rax
  402ee3:	00 
  402ee4:	ff e0                	jmp    *%rax

0000000000402ee6 <interruptEntry19>:
  402ee6:	6a 00                	push   $0x0
  402ee8:	6a 19                	push   $0x19
  402eea:	48 8d 04 25 08 3d 40 	lea    0x403d08,%rax
  402ef1:	00 
  402ef2:	ff e0                	jmp    *%rax

0000000000402ef4 <interruptEntry1a>:
  402ef4:	6a 00                	push   $0x0
  402ef6:	6a 1a                	push   $0x1a
  402ef8:	48 8d 04 25 08 3d 40 	lea    0x403d08,%rax
  402eff:	00 
  402f00:	ff e0                	jmp    *%rax

0000000000402f02 <interruptEntry1b>:
  402f02:	6a 00                	push   $0x0
  402f04:	6a 1b                	push   $0x1b
  402f06:	48 8d 04 25 08 3d 40 	lea    0x403d08,%rax
  402f0d:	00 
  402f0e:	ff e0                	jmp    *%rax

0000000000402f10 <interruptEntry1c>:
  402f10:	6a 00                	push   $0x0
  402f12:	6a 1c                	push   $0x1c
  402f14:	48 8d 04 25 08 3d 40 	lea    0x403d08,%rax
  402f1b:	00 
  402f1c:	ff e0                	jmp    *%rax

0000000000402f1e <interruptEntry1d>:
  402f1e:	6a 00                	push   $0x0
  402f20:	6a 1d                	push   $0x1d
  402f22:	48 8d 04 25 08 3d 40 	lea    0x403d08,%rax
  402f29:	00 
  402f2a:	ff e0                	jmp    *%rax

0000000000402f2c <interruptEntry1e>:
  402f2c:	6a 00                	push   $0x0
  402f2e:	6a 1e                	push   $0x1e
  402f30:	48 8d 04 25 08 3d 40 	lea    0x403d08,%rax
  402f37:	00 
  402f38:	ff e0                	jmp    *%rax

0000000000402f3a <interruptEntry1f>:
  402f3a:	6a 00                	push   $0x0
  402f3c:	6a 1f                	push   $0x1f
  402f3e:	48 8d 04 25 08 3d 40 	lea    0x403d08,%rax
  402f45:	00 
  402f46:	ff e0                	jmp    *%rax

0000000000402f48 <interruptEntry20>:
  402f48:	6a 00                	push   $0x0
  402f4a:	6a 20                	push   $0x20
  402f4c:	48 8d 04 25 08 3d 40 	lea    0x403d08,%rax
  402f53:	00 
  402f54:	ff e0                	jmp    *%rax

0000000000402f56 <interruptEntry21>:
  402f56:	6a 00                	push   $0x0
  402f58:	6a 21                	push   $0x21
  402f5a:	48 8d 04 25 08 3d 40 	lea    0x403d08,%rax
  402f61:	00 
  402f62:	ff e0                	jmp    *%rax

0000000000402f64 <interruptEntry22>:
  402f64:	6a 00                	push   $0x0
  402f66:	6a 22                	push   $0x22
  402f68:	48 8d 04 25 08 3d 40 	lea    0x403d08,%rax
  402f6f:	00 
  402f70:	ff e0                	jmp    *%rax

0000000000402f72 <interruptEntry23>:
  402f72:	6a 00                	push   $0x0
  402f74:	6a 23                	push   $0x23
  402f76:	48 8d 04 25 08 3d 40 	lea    0x403d08,%rax
  402f7d:	00 
  402f7e:	ff e0                	jmp    *%rax

0000000000402f80 <interruptEntry24>:
  402f80:	6a 00                	push   $0x0
  402f82:	6a 24                	push   $0x24
  402f84:	48 8d 04 25 08 3d 40 	lea    0x403d08,%rax
  402f8b:	00 
  402f8c:	ff e0                	jmp    *%rax

0000000000402f8e <interruptEntry25>:
  402f8e:	6a 00                	push   $0x0
  402f90:	6a 25                	push   $0x25
  402f92:	48 8d 04 25 08 3d 40 	lea    0x403d08,%rax
  402f99:	00 
  402f9a:	ff e0                	jmp    *%rax

0000000000402f9c <interruptEntry26>:
  402f9c:	6a 00                	push   $0x0
  402f9e:	6a 26                	push   $0x26
  402fa0:	48 8d 04 25 08 3d 40 	lea    0x403d08,%rax
  402fa7:	00 
  402fa8:	ff e0                	jmp    *%rax

0000000000402faa <interruptEntry27>:
  402faa:	6a 00                	push   $0x0
  402fac:	6a 27                	push   $0x27
  402fae:	48 8d 04 25 08 3d 40 	lea    0x403d08,%rax
  402fb5:	00 
  402fb6:	ff e0                	jmp    *%rax

0000000000402fb8 <interruptEntry28>:
  402fb8:	6a 00                	push   $0x0
  402fba:	6a 28                	push   $0x28
  402fbc:	48 8d 04 25 08 3d 40 	lea    0x403d08,%rax
  402fc3:	00 
  402fc4:	ff e0                	jmp    *%rax

0000000000402fc6 <interruptEntry29>:
  402fc6:	6a 00                	push   $0x0
  402fc8:	6a 29                	push   $0x29
  402fca:	48 8d 04 25 08 3d 40 	lea    0x403d08,%rax
  402fd1:	00 
  402fd2:	ff e0                	jmp    *%rax

0000000000402fd4 <interruptEntry2a>:
  402fd4:	6a 00                	push   $0x0
  402fd6:	6a 2a                	push   $0x2a
  402fd8:	48 8d 04 25 08 3d 40 	lea    0x403d08,%rax
  402fdf:	00 
  402fe0:	ff e0                	jmp    *%rax

0000000000402fe2 <interruptEntry2b>:
  402fe2:	6a 00                	push   $0x0
  402fe4:	6a 2b                	push   $0x2b
  402fe6:	48 8d 04 25 08 3d 40 	lea    0x403d08,%rax
  402fed:	00 
  402fee:	ff e0                	jmp    *%rax

0000000000402ff0 <interruptEntry2c>:
  402ff0:	6a 00                	push   $0x0
  402ff2:	6a 2c                	push   $0x2c
  402ff4:	48 8d 04 25 08 3d 40 	lea    0x403d08,%rax
  402ffb:	00 
  402ffc:	ff e0                	jmp    *%rax

0000000000402ffe <interruptEntry2d>:
  402ffe:	6a 00                	push   $0x0
  403000:	6a 2d                	push   $0x2d
  403002:	48 8d 04 25 08 3d 40 	lea    0x403d08,%rax
  403009:	00 
  40300a:	ff e0                	jmp    *%rax

000000000040300c <interruptEntry2e>:
  40300c:	6a 00                	push   $0x0
  40300e:	6a 2e                	push   $0x2e
  403010:	48 8d 04 25 08 3d 40 	lea    0x403d08,%rax
  403017:	00 
  403018:	ff e0                	jmp    *%rax

000000000040301a <interruptEntry2f>:
  40301a:	6a 00                	push   $0x0
  40301c:	6a 2f                	push   $0x2f
  40301e:	48 8d 04 25 08 3d 40 	lea    0x403d08,%rax
  403025:	00 
  403026:	ff e0                	jmp    *%rax

0000000000403028 <interruptEntry30>:
  403028:	6a 00                	push   $0x0
  40302a:	6a 30                	push   $0x30
  40302c:	48 8d 04 25 08 3d 40 	lea    0x403d08,%rax
  403033:	00 
  403034:	ff e0                	jmp    *%rax

0000000000403036 <interruptEntry31>:
  403036:	6a 00                	push   $0x0
  403038:	6a 31                	push   $0x31
  40303a:	48 8d 04 25 08 3d 40 	lea    0x403d08,%rax
  403041:	00 
  403042:	ff e0                	jmp    *%rax

0000000000403044 <interruptEntry32>:
  403044:	6a 00                	push   $0x0
  403046:	6a 32                	push   $0x32
  403048:	48 8d 04 25 08 3d 40 	lea    0x403d08,%rax
  40304f:	00 
  403050:	ff e0                	jmp    *%rax

0000000000403052 <interruptEntry33>:
  403052:	6a 00                	push   $0x0
  403054:	6a 33                	push   $0x33
  403056:	48 8d 04 25 08 3d 40 	lea    0x403d08,%rax
  40305d:	00 
  40305e:	ff e0                	jmp    *%rax

0000000000403060 <interruptEntry34>:
  403060:	6a 00                	push   $0x0
  403062:	6a 34                	push   $0x34
  403064:	48 8d 04 25 08 3d 40 	lea    0x403d08,%rax
  40306b:	00 
  40306c:	ff e0                	jmp    *%rax

000000000040306e <interruptEntry35>:
  40306e:	6a 00                	push   $0x0
  403070:	6a 35                	push   $0x35
  403072:	48 8d 04 25 08 3d 40 	lea    0x403d08,%rax
  403079:	00 
  40307a:	ff e0                	jmp    *%rax

000000000040307c <interruptEntry36>:
  40307c:	6a 00                	push   $0x0
  40307e:	6a 36                	push   $0x36
  403080:	48 8d 04 25 08 3d 40 	lea    0x403d08,%rax
  403087:	00 
  403088:	ff e0                	jmp    *%rax

000000000040308a <interruptEntry37>:
  40308a:	6a 00                	push   $0x0
  40308c:	6a 37                	push   $0x37
  40308e:	48 8d 04 25 08 3d 40 	lea    0x403d08,%rax
  403095:	00 
  403096:	ff e0                	jmp    *%rax

0000000000403098 <interruptEntry38>:
  403098:	6a 00                	push   $0x0
  40309a:	6a 38                	push   $0x38
  40309c:	48 8d 04 25 08 3d 40 	lea    0x403d08,%rax
  4030a3:	00 
  4030a4:	ff e0                	jmp    *%rax

00000000004030a6 <interruptEntry39>:
  4030a6:	6a 00                	push   $0x0
  4030a8:	6a 39                	push   $0x39
  4030aa:	48 8d 04 25 08 3d 40 	lea    0x403d08,%rax
  4030b1:	00 
  4030b2:	ff e0                	jmp    *%rax

00000000004030b4 <interruptEntry3a>:
  4030b4:	6a 00                	push   $0x0
  4030b6:	6a 3a                	push   $0x3a
  4030b8:	48 8d 04 25 08 3d 40 	lea    0x403d08,%rax
  4030bf:	00 
  4030c0:	ff e0                	jmp    *%rax

00000000004030c2 <interruptEntry3b>:
  4030c2:	6a 00                	push   $0x0
  4030c4:	6a 3b                	push   $0x3b
  4030c6:	48 8d 04 25 08 3d 40 	lea    0x403d08,%rax
  4030cd:	00 
  4030ce:	ff e0                	jmp    *%rax

00000000004030d0 <interruptEntry3c>:
  4030d0:	6a 00                	push   $0x0
  4030d2:	6a 3c                	push   $0x3c
  4030d4:	48 8d 04 25 08 3d 40 	lea    0x403d08,%rax
  4030db:	00 
  4030dc:	ff e0                	jmp    *%rax

00000000004030de <interruptEntry3d>:
  4030de:	6a 00                	push   $0x0
  4030e0:	6a 3d                	push   $0x3d
  4030e2:	48 8d 04 25 08 3d 40 	lea    0x403d08,%rax
  4030e9:	00 
  4030ea:	ff e0                	jmp    *%rax

00000000004030ec <interruptEntry3e>:
  4030ec:	6a 00                	push   $0x0
  4030ee:	6a 3e                	push   $0x3e
  4030f0:	48 8d 04 25 08 3d 40 	lea    0x403d08,%rax
  4030f7:	00 
  4030f8:	ff e0                	jmp    *%rax

00000000004030fa <interruptEntry3f>:
  4030fa:	6a 00                	push   $0x0
  4030fc:	6a 3f                	push   $0x3f
  4030fe:	48 8d 04 25 08 3d 40 	lea    0x403d08,%rax
  403105:	00 
  403106:	ff e0                	jmp    *%rax

0000000000403108 <interruptEntry40>:
  403108:	6a 00                	push   $0x0
  40310a:	6a 40                	push   $0x40
  40310c:	48 8d 04 25 08 3d 40 	lea    0x403d08,%rax
  403113:	00 
  403114:	ff e0                	jmp    *%rax

0000000000403116 <interruptEntry41>:
  403116:	6a 00                	push   $0x0
  403118:	6a 41                	push   $0x41
  40311a:	48 8d 04 25 08 3d 40 	lea    0x403d08,%rax
  403121:	00 
  403122:	ff e0                	jmp    *%rax

0000000000403124 <interruptEntry42>:
  403124:	6a 00                	push   $0x0
  403126:	6a 42                	push   $0x42
  403128:	48 8d 04 25 08 3d 40 	lea    0x403d08,%rax
  40312f:	00 
  403130:	ff e0                	jmp    *%rax

0000000000403132 <interruptEntry43>:
  403132:	6a 00                	push   $0x0
  403134:	6a 43                	push   $0x43
  403136:	48 8d 04 25 08 3d 40 	lea    0x403d08,%rax
  40313d:	00 
  40313e:	ff e0                	jmp    *%rax

0000000000403140 <interruptEntry44>:
  403140:	6a 00                	push   $0x0
  403142:	6a 44                	push   $0x44
  403144:	48 8d 04 25 08 3d 40 	lea    0x403d08,%rax
  40314b:	00 
  40314c:	ff e0                	jmp    *%rax

000000000040314e <interruptEntry45>:
  40314e:	6a 00                	push   $0x0
  403150:	6a 45                	push   $0x45
  403152:	48 8d 04 25 08 3d 40 	lea    0x403d08,%rax
  403159:	00 
  40315a:	ff e0                	jmp    *%rax

000000000040315c <interruptEntry46>:
  40315c:	6a 00                	push   $0x0
  40315e:	6a 46                	push   $0x46
  403160:	48 8d 04 25 08 3d 40 	lea    0x403d08,%rax
  403167:	00 
  403168:	ff e0                	jmp    *%rax

000000000040316a <interruptEntry47>:
  40316a:	6a 00                	push   $0x0
  40316c:	6a 47                	push   $0x47
  40316e:	48 8d 04 25 08 3d 40 	lea    0x403d08,%rax
  403175:	00 
  403176:	ff e0                	jmp    *%rax

0000000000403178 <interruptEntry48>:
  403178:	6a 00                	push   $0x0
  40317a:	6a 48                	push   $0x48
  40317c:	48 8d 04 25 08 3d 40 	lea    0x403d08,%rax
  403183:	00 
  403184:	ff e0                	jmp    *%rax

0000000000403186 <interruptEntry49>:
  403186:	6a 00                	push   $0x0
  403188:	6a 49                	push   $0x49
  40318a:	48 8d 04 25 08 3d 40 	lea    0x403d08,%rax
  403191:	00 
  403192:	ff e0                	jmp    *%rax

0000000000403194 <interruptEntry4a>:
  403194:	6a 00                	push   $0x0
  403196:	6a 4a                	push   $0x4a
  403198:	48 8d 04 25 08 3d 40 	lea    0x403d08,%rax
  40319f:	00 
  4031a0:	ff e0                	jmp    *%rax

00000000004031a2 <interruptEntry4b>:
  4031a2:	6a 00                	push   $0x0
  4031a4:	6a 4b                	push   $0x4b
  4031a6:	48 8d 04 25 08 3d 40 	lea    0x403d08,%rax
  4031ad:	00 
  4031ae:	ff e0                	jmp    *%rax

00000000004031b0 <interruptEntry4c>:
  4031b0:	6a 00                	push   $0x0
  4031b2:	6a 4c                	push   $0x4c
  4031b4:	48 8d 04 25 08 3d 40 	lea    0x403d08,%rax
  4031bb:	00 
  4031bc:	ff e0                	jmp    *%rax

00000000004031be <interruptEntry4d>:
  4031be:	6a 00                	push   $0x0
  4031c0:	6a 4d                	push   $0x4d
  4031c2:	48 8d 04 25 08 3d 40 	lea    0x403d08,%rax
  4031c9:	00 
  4031ca:	ff e0                	jmp    *%rax

00000000004031cc <interruptEntry4e>:
  4031cc:	6a 00                	push   $0x0
  4031ce:	6a 4e                	push   $0x4e
  4031d0:	48 8d 04 25 08 3d 40 	lea    0x403d08,%rax
  4031d7:	00 
  4031d8:	ff e0                	jmp    *%rax

00000000004031da <interruptEntry4f>:
  4031da:	6a 00                	push   $0x0
  4031dc:	6a 4f                	push   $0x4f
  4031de:	48 8d 04 25 08 3d 40 	lea    0x403d08,%rax
  4031e5:	00 
  4031e6:	ff e0                	jmp    *%rax

00000000004031e8 <interruptEntry50>:
  4031e8:	6a 00                	push   $0x0
  4031ea:	6a 50                	push   $0x50
  4031ec:	48 8d 04 25 08 3d 40 	lea    0x403d08,%rax
  4031f3:	00 
  4031f4:	ff e0                	jmp    *%rax

00000000004031f6 <interruptEntry51>:
  4031f6:	6a 00                	push   $0x0
  4031f8:	6a 51                	push   $0x51
  4031fa:	48 8d 04 25 08 3d 40 	lea    0x403d08,%rax
  403201:	00 
  403202:	ff e0                	jmp    *%rax

0000000000403204 <interruptEntry52>:
  403204:	6a 00                	push   $0x0
  403206:	6a 52                	push   $0x52
  403208:	48 8d 04 25 08 3d 40 	lea    0x403d08,%rax
  40320f:	00 
  403210:	ff e0                	jmp    *%rax

0000000000403212 <interruptEntry53>:
  403212:	6a 00                	push   $0x0
  403214:	6a 53                	push   $0x53
  403216:	48 8d 04 25 08 3d 40 	lea    0x403d08,%rax
  40321d:	00 
  40321e:	ff e0                	jmp    *%rax

0000000000403220 <interruptEntry54>:
  403220:	6a 00                	push   $0x0
  403222:	6a 54                	push   $0x54
  403224:	48 8d 04 25 08 3d 40 	lea    0x403d08,%rax
  40322b:	00 
  40322c:	ff e0                	jmp    *%rax

000000000040322e <interruptEntry55>:
  40322e:	6a 00                	push   $0x0
  403230:	6a 55                	push   $0x55
  403232:	48 8d 04 25 08 3d 40 	lea    0x403d08,%rax
  403239:	00 
  40323a:	ff e0                	jmp    *%rax

000000000040323c <interruptEntry56>:
  40323c:	6a 00                	push   $0x0
  40323e:	6a 56                	push   $0x56
  403240:	48 8d 04 25 08 3d 40 	lea    0x403d08,%rax
  403247:	00 
  403248:	ff e0                	jmp    *%rax

000000000040324a <interruptEntry57>:
  40324a:	6a 00                	push   $0x0
  40324c:	6a 57                	push   $0x57
  40324e:	48 8d 04 25 08 3d 40 	lea    0x403d08,%rax
  403255:	00 
  403256:	ff e0                	jmp    *%rax

0000000000403258 <interruptEntry58>:
  403258:	6a 00                	push   $0x0
  40325a:	6a 58                	push   $0x58
  40325c:	48 8d 04 25 08 3d 40 	lea    0x403d08,%rax
  403263:	00 
  403264:	ff e0                	jmp    *%rax

0000000000403266 <interruptEntry59>:
  403266:	6a 00                	push   $0x0
  403268:	6a 59                	push   $0x59
  40326a:	48 8d 04 25 08 3d 40 	lea    0x403d08,%rax
  403271:	00 
  403272:	ff e0                	jmp    *%rax

0000000000403274 <interruptEntry5a>:
  403274:	6a 00                	push   $0x0
  403276:	6a 5a                	push   $0x5a
  403278:	48 8d 04 25 08 3d 40 	lea    0x403d08,%rax
  40327f:	00 
  403280:	ff e0                	jmp    *%rax

0000000000403282 <interruptEntry5b>:
  403282:	6a 00                	push   $0x0
  403284:	6a 5b                	push   $0x5b
  403286:	48 8d 04 25 08 3d 40 	lea    0x403d08,%rax
  40328d:	00 
  40328e:	ff e0                	jmp    *%rax

0000000000403290 <interruptEntry5c>:
  403290:	6a 00                	push   $0x0
  403292:	6a 5c                	push   $0x5c
  403294:	48 8d 04 25 08 3d 40 	lea    0x403d08,%rax
  40329b:	00 
  40329c:	ff e0                	jmp    *%rax

000000000040329e <interruptEntry5d>:
  40329e:	6a 00                	push   $0x0
  4032a0:	6a 5d                	push   $0x5d
  4032a2:	48 8d 04 25 08 3d 40 	lea    0x403d08,%rax
  4032a9:	00 
  4032aa:	ff e0                	jmp    *%rax

00000000004032ac <interruptEntry5e>:
  4032ac:	6a 00                	push   $0x0
  4032ae:	6a 5e                	push   $0x5e
  4032b0:	48 8d 04 25 08 3d 40 	lea    0x403d08,%rax
  4032b7:	00 
  4032b8:	ff e0                	jmp    *%rax

00000000004032ba <interruptEntry5f>:
  4032ba:	6a 00                	push   $0x0
  4032bc:	6a 5f                	push   $0x5f
  4032be:	48 8d 04 25 08 3d 40 	lea    0x403d08,%rax
  4032c5:	00 
  4032c6:	ff e0                	jmp    *%rax

00000000004032c8 <interruptEntry60>:
  4032c8:	6a 00                	push   $0x0
  4032ca:	6a 60                	push   $0x60
  4032cc:	48 8d 04 25 08 3d 40 	lea    0x403d08,%rax
  4032d3:	00 
  4032d4:	ff e0                	jmp    *%rax

00000000004032d6 <interruptEntry61>:
  4032d6:	6a 00                	push   $0x0
  4032d8:	6a 61                	push   $0x61
  4032da:	48 8d 04 25 08 3d 40 	lea    0x403d08,%rax
  4032e1:	00 
  4032e2:	ff e0                	jmp    *%rax

00000000004032e4 <interruptEntry62>:
  4032e4:	6a 00                	push   $0x0
  4032e6:	6a 62                	push   $0x62
  4032e8:	48 8d 04 25 08 3d 40 	lea    0x403d08,%rax
  4032ef:	00 
  4032f0:	ff e0                	jmp    *%rax

00000000004032f2 <interruptEntry63>:
  4032f2:	6a 00                	push   $0x0
  4032f4:	6a 63                	push   $0x63
  4032f6:	48 8d 04 25 08 3d 40 	lea    0x403d08,%rax
  4032fd:	00 
  4032fe:	ff e0                	jmp    *%rax

0000000000403300 <interruptEntry64>:
  403300:	6a 00                	push   $0x0
  403302:	6a 64                	push   $0x64
  403304:	48 8d 04 25 08 3d 40 	lea    0x403d08,%rax
  40330b:	00 
  40330c:	ff e0                	jmp    *%rax

000000000040330e <interruptEntry65>:
  40330e:	6a 00                	push   $0x0
  403310:	6a 65                	push   $0x65
  403312:	48 8d 04 25 08 3d 40 	lea    0x403d08,%rax
  403319:	00 
  40331a:	ff e0                	jmp    *%rax

000000000040331c <interruptEntry66>:
  40331c:	6a 00                	push   $0x0
  40331e:	6a 66                	push   $0x66
  403320:	48 8d 04 25 08 3d 40 	lea    0x403d08,%rax
  403327:	00 
  403328:	ff e0                	jmp    *%rax

000000000040332a <interruptEntry67>:
  40332a:	6a 00                	push   $0x0
  40332c:	6a 67                	push   $0x67
  40332e:	48 8d 04 25 08 3d 40 	lea    0x403d08,%rax
  403335:	00 
  403336:	ff e0                	jmp    *%rax

0000000000403338 <interruptEntry68>:
  403338:	6a 00                	push   $0x0
  40333a:	6a 68                	push   $0x68
  40333c:	48 8d 04 25 08 3d 40 	lea    0x403d08,%rax
  403343:	00 
  403344:	ff e0                	jmp    *%rax

0000000000403346 <interruptEntry69>:
  403346:	6a 00                	push   $0x0
  403348:	6a 69                	push   $0x69
  40334a:	48 8d 04 25 08 3d 40 	lea    0x403d08,%rax
  403351:	00 
  403352:	ff e0                	jmp    *%rax

0000000000403354 <interruptEntry6a>:
  403354:	6a 00                	push   $0x0
  403356:	6a 6a                	push   $0x6a
  403358:	48 8d 04 25 08 3d 40 	lea    0x403d08,%rax
  40335f:	00 
  403360:	ff e0                	jmp    *%rax

0000000000403362 <interruptEntry6b>:
  403362:	6a 00                	push   $0x0
  403364:	6a 6b                	push   $0x6b
  403366:	48 8d 04 25 08 3d 40 	lea    0x403d08,%rax
  40336d:	00 
  40336e:	ff e0                	jmp    *%rax

0000000000403370 <interruptEntry6c>:
  403370:	6a 00                	push   $0x0
  403372:	6a 6c                	push   $0x6c
  403374:	48 8d 04 25 08 3d 40 	lea    0x403d08,%rax
  40337b:	00 
  40337c:	ff e0                	jmp    *%rax

000000000040337e <interruptEntry6d>:
  40337e:	6a 00                	push   $0x0
  403380:	6a 6d                	push   $0x6d
  403382:	48 8d 04 25 08 3d 40 	lea    0x403d08,%rax
  403389:	00 
  40338a:	ff e0                	jmp    *%rax

000000000040338c <interruptEntry6e>:
  40338c:	6a 00                	push   $0x0
  40338e:	6a 6e                	push   $0x6e
  403390:	48 8d 04 25 08 3d 40 	lea    0x403d08,%rax
  403397:	00 
  403398:	ff e0                	jmp    *%rax

000000000040339a <interruptEntry6f>:
  40339a:	6a 00                	push   $0x0
  40339c:	6a 6f                	push   $0x6f
  40339e:	48 8d 04 25 08 3d 40 	lea    0x403d08,%rax
  4033a5:	00 
  4033a6:	ff e0                	jmp    *%rax

00000000004033a8 <interruptEntry70>:
  4033a8:	6a 00                	push   $0x0
  4033aa:	6a 70                	push   $0x70
  4033ac:	48 8d 04 25 08 3d 40 	lea    0x403d08,%rax
  4033b3:	00 
  4033b4:	ff e0                	jmp    *%rax

00000000004033b6 <interruptEntry71>:
  4033b6:	6a 00                	push   $0x0
  4033b8:	6a 71                	push   $0x71
  4033ba:	48 8d 04 25 08 3d 40 	lea    0x403d08,%rax
  4033c1:	00 
  4033c2:	ff e0                	jmp    *%rax

00000000004033c4 <interruptEntry72>:
  4033c4:	6a 00                	push   $0x0
  4033c6:	6a 72                	push   $0x72
  4033c8:	48 8d 04 25 08 3d 40 	lea    0x403d08,%rax
  4033cf:	00 
  4033d0:	ff e0                	jmp    *%rax

00000000004033d2 <interruptEntry73>:
  4033d2:	6a 00                	push   $0x0
  4033d4:	6a 73                	push   $0x73
  4033d6:	48 8d 04 25 08 3d 40 	lea    0x403d08,%rax
  4033dd:	00 
  4033de:	ff e0                	jmp    *%rax

00000000004033e0 <interruptEntry74>:
  4033e0:	6a 00                	push   $0x0
  4033e2:	6a 74                	push   $0x74
  4033e4:	48 8d 04 25 08 3d 40 	lea    0x403d08,%rax
  4033eb:	00 
  4033ec:	ff e0                	jmp    *%rax

00000000004033ee <interruptEntry75>:
  4033ee:	6a 00                	push   $0x0
  4033f0:	6a 75                	push   $0x75
  4033f2:	48 8d 04 25 08 3d 40 	lea    0x403d08,%rax
  4033f9:	00 
  4033fa:	ff e0                	jmp    *%rax

00000000004033fc <interruptEntry76>:
  4033fc:	6a 00                	push   $0x0
  4033fe:	6a 76                	push   $0x76
  403400:	48 8d 04 25 08 3d 40 	lea    0x403d08,%rax
  403407:	00 
  403408:	ff e0                	jmp    *%rax

000000000040340a <interruptEntry77>:
  40340a:	6a 00                	push   $0x0
  40340c:	6a 77                	push   $0x77
  40340e:	48 8d 04 25 08 3d 40 	lea    0x403d08,%rax
  403415:	00 
  403416:	ff e0                	jmp    *%rax

0000000000403418 <interruptEntry78>:
  403418:	6a 00                	push   $0x0
  40341a:	6a 78                	push   $0x78
  40341c:	48 8d 04 25 08 3d 40 	lea    0x403d08,%rax
  403423:	00 
  403424:	ff e0                	jmp    *%rax

0000000000403426 <interruptEntry79>:
  403426:	6a 00                	push   $0x0
  403428:	6a 79                	push   $0x79
  40342a:	48 8d 04 25 08 3d 40 	lea    0x403d08,%rax
  403431:	00 
  403432:	ff e0                	jmp    *%rax

0000000000403434 <interruptEntry7a>:
  403434:	6a 00                	push   $0x0
  403436:	6a 7a                	push   $0x7a
  403438:	48 8d 04 25 08 3d 40 	lea    0x403d08,%rax
  40343f:	00 
  403440:	ff e0                	jmp    *%rax

0000000000403442 <interruptEntry7b>:
  403442:	6a 00                	push   $0x0
  403444:	6a 7b                	push   $0x7b
  403446:	48 8d 04 25 08 3d 40 	lea    0x403d08,%rax
  40344d:	00 
  40344e:	ff e0                	jmp    *%rax

0000000000403450 <interruptEntry7c>:
  403450:	6a 00                	push   $0x0
  403452:	6a 7c                	push   $0x7c
  403454:	48 8d 04 25 08 3d 40 	lea    0x403d08,%rax
  40345b:	00 
  40345c:	ff e0                	jmp    *%rax

000000000040345e <interruptEntry7d>:
  40345e:	6a 00                	push   $0x0
  403460:	6a 7d                	push   $0x7d
  403462:	48 8d 04 25 08 3d 40 	lea    0x403d08,%rax
  403469:	00 
  40346a:	ff e0                	jmp    *%rax

000000000040346c <interruptEntry7e>:
  40346c:	6a 00                	push   $0x0
  40346e:	6a 7e                	push   $0x7e
  403470:	48 8d 04 25 08 3d 40 	lea    0x403d08,%rax
  403477:	00 
  403478:	ff e0                	jmp    *%rax

000000000040347a <interruptEntry7f>:
  40347a:	6a 00                	push   $0x0
  40347c:	6a 7f                	push   $0x7f
  40347e:	48 8d 04 25 08 3d 40 	lea    0x403d08,%rax
  403485:	00 
  403486:	ff e0                	jmp    *%rax

0000000000403488 <interruptEntry80>:
  403488:	6a 00                	push   $0x0
  40348a:	68 80 00 00 00       	push   $0x80
  40348f:	48 8d 04 25 08 3d 40 	lea    0x403d08,%rax
  403496:	00 
  403497:	ff e0                	jmp    *%rax

0000000000403499 <interruptEntry81>:
  403499:	6a 00                	push   $0x0
  40349b:	68 81 00 00 00       	push   $0x81
  4034a0:	48 8d 04 25 08 3d 40 	lea    0x403d08,%rax
  4034a7:	00 
  4034a8:	ff e0                	jmp    *%rax

00000000004034aa <interruptEntry82>:
  4034aa:	6a 00                	push   $0x0
  4034ac:	68 82 00 00 00       	push   $0x82
  4034b1:	48 8d 04 25 08 3d 40 	lea    0x403d08,%rax
  4034b8:	00 
  4034b9:	ff e0                	jmp    *%rax

00000000004034bb <interruptEntry83>:
  4034bb:	6a 00                	push   $0x0
  4034bd:	68 83 00 00 00       	push   $0x83
  4034c2:	48 8d 04 25 08 3d 40 	lea    0x403d08,%rax
  4034c9:	00 
  4034ca:	ff e0                	jmp    *%rax

00000000004034cc <interruptEntry84>:
  4034cc:	6a 00                	push   $0x0
  4034ce:	68 84 00 00 00       	push   $0x84
  4034d3:	48 8d 04 25 08 3d 40 	lea    0x403d08,%rax
  4034da:	00 
  4034db:	ff e0                	jmp    *%rax

00000000004034dd <interruptEntry85>:
  4034dd:	6a 00                	push   $0x0
  4034df:	68 85 00 00 00       	push   $0x85
  4034e4:	48 8d 04 25 08 3d 40 	lea    0x403d08,%rax
  4034eb:	00 
  4034ec:	ff e0                	jmp    *%rax

00000000004034ee <interruptEntry86>:
  4034ee:	6a 00                	push   $0x0
  4034f0:	68 86 00 00 00       	push   $0x86
  4034f5:	48 8d 04 25 08 3d 40 	lea    0x403d08,%rax
  4034fc:	00 
  4034fd:	ff e0                	jmp    *%rax

00000000004034ff <interruptEntry87>:
  4034ff:	6a 00                	push   $0x0
  403501:	68 87 00 00 00       	push   $0x87
  403506:	48 8d 04 25 08 3d 40 	lea    0x403d08,%rax
  40350d:	00 
  40350e:	ff e0                	jmp    *%rax

0000000000403510 <interruptEntry88>:
  403510:	6a 00                	push   $0x0
  403512:	68 88 00 00 00       	push   $0x88
  403517:	48 8d 04 25 08 3d 40 	lea    0x403d08,%rax
  40351e:	00 
  40351f:	ff e0                	jmp    *%rax

0000000000403521 <interruptEntry89>:
  403521:	6a 00                	push   $0x0
  403523:	68 89 00 00 00       	push   $0x89
  403528:	48 8d 04 25 08 3d 40 	lea    0x403d08,%rax
  40352f:	00 
  403530:	ff e0                	jmp    *%rax

0000000000403532 <interruptEntry8a>:
  403532:	6a 00                	push   $0x0
  403534:	68 8a 00 00 00       	push   $0x8a
  403539:	48 8d 04 25 08 3d 40 	lea    0x403d08,%rax
  403540:	00 
  403541:	ff e0                	jmp    *%rax

0000000000403543 <interruptEntry8b>:
  403543:	6a 00                	push   $0x0
  403545:	68 8b 00 00 00       	push   $0x8b
  40354a:	48 8d 04 25 08 3d 40 	lea    0x403d08,%rax
  403551:	00 
  403552:	ff e0                	jmp    *%rax

0000000000403554 <interruptEntry8c>:
  403554:	6a 00                	push   $0x0
  403556:	68 8c 00 00 00       	push   $0x8c
  40355b:	48 8d 04 25 08 3d 40 	lea    0x403d08,%rax
  403562:	00 
  403563:	ff e0                	jmp    *%rax

0000000000403565 <interruptEntry8d>:
  403565:	6a 00                	push   $0x0
  403567:	68 8d 00 00 00       	push   $0x8d
  40356c:	48 8d 04 25 08 3d 40 	lea    0x403d08,%rax
  403573:	00 
  403574:	ff e0                	jmp    *%rax

0000000000403576 <interruptEntry8e>:
  403576:	6a 00                	push   $0x0
  403578:	68 8e 00 00 00       	push   $0x8e
  40357d:	48 8d 04 25 08 3d 40 	lea    0x403d08,%rax
  403584:	00 
  403585:	ff e0                	jmp    *%rax

0000000000403587 <interruptEntry8f>:
  403587:	6a 00                	push   $0x0
  403589:	68 8f 00 00 00       	push   $0x8f
  40358e:	48 8d 04 25 08 3d 40 	lea    0x403d08,%rax
  403595:	00 
  403596:	ff e0                	jmp    *%rax

0000000000403598 <interruptEntry90>:
  403598:	6a 00                	push   $0x0
  40359a:	68 90 00 00 00       	push   $0x90
  40359f:	48 8d 04 25 08 3d 40 	lea    0x403d08,%rax
  4035a6:	00 
  4035a7:	ff e0                	jmp    *%rax

00000000004035a9 <interruptEntry91>:
  4035a9:	6a 00                	push   $0x0
  4035ab:	68 91 00 00 00       	push   $0x91
  4035b0:	48 8d 04 25 08 3d 40 	lea    0x403d08,%rax
  4035b7:	00 
  4035b8:	ff e0                	jmp    *%rax

00000000004035ba <interruptEntry92>:
  4035ba:	6a 00                	push   $0x0
  4035bc:	68 92 00 00 00       	push   $0x92
  4035c1:	48 8d 04 25 08 3d 40 	lea    0x403d08,%rax
  4035c8:	00 
  4035c9:	ff e0                	jmp    *%rax

00000000004035cb <interruptEntry93>:
  4035cb:	6a 00                	push   $0x0
  4035cd:	68 93 00 00 00       	push   $0x93
  4035d2:	48 8d 04 25 08 3d 40 	lea    0x403d08,%rax
  4035d9:	00 
  4035da:	ff e0                	jmp    *%rax

00000000004035dc <interruptEntry94>:
  4035dc:	6a 00                	push   $0x0
  4035de:	68 94 00 00 00       	push   $0x94
  4035e3:	48 8d 04 25 08 3d 40 	lea    0x403d08,%rax
  4035ea:	00 
  4035eb:	ff e0                	jmp    *%rax

00000000004035ed <interruptEntry95>:
  4035ed:	6a 00                	push   $0x0
  4035ef:	68 95 00 00 00       	push   $0x95
  4035f4:	48 8d 04 25 08 3d 40 	lea    0x403d08,%rax
  4035fb:	00 
  4035fc:	ff e0                	jmp    *%rax

00000000004035fe <interruptEntry96>:
  4035fe:	6a 00                	push   $0x0
  403600:	68 96 00 00 00       	push   $0x96
  403605:	48 8d 04 25 08 3d 40 	lea    0x403d08,%rax
  40360c:	00 
  40360d:	ff e0                	jmp    *%rax

000000000040360f <interruptEntry97>:
  40360f:	6a 00                	push   $0x0
  403611:	68 97 00 00 00       	push   $0x97
  403616:	48 8d 04 25 08 3d 40 	lea    0x403d08,%rax
  40361d:	00 
  40361e:	ff e0                	jmp    *%rax

0000000000403620 <interruptEntry98>:
  403620:	6a 00                	push   $0x0
  403622:	68 98 00 00 00       	push   $0x98
  403627:	48 8d 04 25 08 3d 40 	lea    0x403d08,%rax
  40362e:	00 
  40362f:	ff e0                	jmp    *%rax

0000000000403631 <interruptEntry99>:
  403631:	6a 00                	push   $0x0
  403633:	68 99 00 00 00       	push   $0x99
  403638:	48 8d 04 25 08 3d 40 	lea    0x403d08,%rax
  40363f:	00 
  403640:	ff e0                	jmp    *%rax

0000000000403642 <interruptEntry9a>:
  403642:	6a 00                	push   $0x0
  403644:	68 9a 00 00 00       	push   $0x9a
  403649:	48 8d 04 25 08 3d 40 	lea    0x403d08,%rax
  403650:	00 
  403651:	ff e0                	jmp    *%rax

0000000000403653 <interruptEntry9b>:
  403653:	6a 00                	push   $0x0
  403655:	68 9b 00 00 00       	push   $0x9b
  40365a:	48 8d 04 25 08 3d 40 	lea    0x403d08,%rax
  403661:	00 
  403662:	ff e0                	jmp    *%rax

0000000000403664 <interruptEntry9c>:
  403664:	6a 00                	push   $0x0
  403666:	68 9c 00 00 00       	push   $0x9c
  40366b:	48 8d 04 25 08 3d 40 	lea    0x403d08,%rax
  403672:	00 
  403673:	ff e0                	jmp    *%rax

0000000000403675 <interruptEntry9d>:
  403675:	6a 00                	push   $0x0
  403677:	68 9d 00 00 00       	push   $0x9d
  40367c:	48 8d 04 25 08 3d 40 	lea    0x403d08,%rax
  403683:	00 
  403684:	ff e0                	jmp    *%rax

0000000000403686 <interruptEntry9e>:
  403686:	6a 00                	push   $0x0
  403688:	68 9e 00 00 00       	push   $0x9e
  40368d:	48 8d 04 25 08 3d 40 	lea    0x403d08,%rax
  403694:	00 
  403695:	ff e0                	jmp    *%rax

0000000000403697 <interruptEntry9f>:
  403697:	6a 00                	push   $0x0
  403699:	68 9f 00 00 00       	push   $0x9f
  40369e:	48 8d 04 25 08 3d 40 	lea    0x403d08,%rax
  4036a5:	00 
  4036a6:	ff e0                	jmp    *%rax

00000000004036a8 <interruptEntrya0>:
  4036a8:	6a 00                	push   $0x0
  4036aa:	68 a0 00 00 00       	push   $0xa0
  4036af:	48 8d 04 25 08 3d 40 	lea    0x403d08,%rax
  4036b6:	00 
  4036b7:	ff e0                	jmp    *%rax

00000000004036b9 <interruptEntrya1>:
  4036b9:	6a 00                	push   $0x0
  4036bb:	68 a1 00 00 00       	push   $0xa1
  4036c0:	48 8d 04 25 08 3d 40 	lea    0x403d08,%rax
  4036c7:	00 
  4036c8:	ff e0                	jmp    *%rax

00000000004036ca <interruptEntrya2>:
  4036ca:	6a 00                	push   $0x0
  4036cc:	68 a2 00 00 00       	push   $0xa2
  4036d1:	48 8d 04 25 08 3d 40 	lea    0x403d08,%rax
  4036d8:	00 
  4036d9:	ff e0                	jmp    *%rax

00000000004036db <interruptEntrya3>:
  4036db:	6a 00                	push   $0x0
  4036dd:	68 a3 00 00 00       	push   $0xa3
  4036e2:	48 8d 04 25 08 3d 40 	lea    0x403d08,%rax
  4036e9:	00 
  4036ea:	ff e0                	jmp    *%rax

00000000004036ec <interruptEntrya4>:
  4036ec:	6a 00                	push   $0x0
  4036ee:	68 a4 00 00 00       	push   $0xa4
  4036f3:	48 8d 04 25 08 3d 40 	lea    0x403d08,%rax
  4036fa:	00 
  4036fb:	ff e0                	jmp    *%rax

00000000004036fd <interruptEntrya5>:
  4036fd:	6a 00                	push   $0x0
  4036ff:	68 a5 00 00 00       	push   $0xa5
  403704:	48 8d 04 25 08 3d 40 	lea    0x403d08,%rax
  40370b:	00 
  40370c:	ff e0                	jmp    *%rax

000000000040370e <interruptEntrya6>:
  40370e:	6a 00                	push   $0x0
  403710:	68 a6 00 00 00       	push   $0xa6
  403715:	48 8d 04 25 08 3d 40 	lea    0x403d08,%rax
  40371c:	00 
  40371d:	ff e0                	jmp    *%rax

000000000040371f <interruptEntrya7>:
  40371f:	6a 00                	push   $0x0
  403721:	68 a7 00 00 00       	push   $0xa7
  403726:	48 8d 04 25 08 3d 40 	lea    0x403d08,%rax
  40372d:	00 
  40372e:	ff e0                	jmp    *%rax

0000000000403730 <interruptEntrya8>:
  403730:	6a 00                	push   $0x0
  403732:	68 a8 00 00 00       	push   $0xa8
  403737:	48 8d 04 25 08 3d 40 	lea    0x403d08,%rax
  40373e:	00 
  40373f:	ff e0                	jmp    *%rax

0000000000403741 <interruptEntrya9>:
  403741:	6a 00                	push   $0x0
  403743:	68 a9 00 00 00       	push   $0xa9
  403748:	48 8d 04 25 08 3d 40 	lea    0x403d08,%rax
  40374f:	00 
  403750:	ff e0                	jmp    *%rax

0000000000403752 <interruptEntryaa>:
  403752:	6a 00                	push   $0x0
  403754:	68 aa 00 00 00       	push   $0xaa
  403759:	48 8d 04 25 08 3d 40 	lea    0x403d08,%rax
  403760:	00 
  403761:	ff e0                	jmp    *%rax

0000000000403763 <interruptEntryab>:
  403763:	6a 00                	push   $0x0
  403765:	68 ab 00 00 00       	push   $0xab
  40376a:	48 8d 04 25 08 3d 40 	lea    0x403d08,%rax
  403771:	00 
  403772:	ff e0                	jmp    *%rax

0000000000403774 <interruptEntryac>:
  403774:	6a 00                	push   $0x0
  403776:	68 ac 00 00 00       	push   $0xac
  40377b:	48 8d 04 25 08 3d 40 	lea    0x403d08,%rax
  403782:	00 
  403783:	ff e0                	jmp    *%rax

0000000000403785 <interruptEntryad>:
  403785:	6a 00                	push   $0x0
  403787:	68 ad 00 00 00       	push   $0xad
  40378c:	48 8d 04 25 08 3d 40 	lea    0x403d08,%rax
  403793:	00 
  403794:	ff e0                	jmp    *%rax

0000000000403796 <interruptEntryae>:
  403796:	6a 00                	push   $0x0
  403798:	68 ae 00 00 00       	push   $0xae
  40379d:	48 8d 04 25 08 3d 40 	lea    0x403d08,%rax
  4037a4:	00 
  4037a5:	ff e0                	jmp    *%rax

00000000004037a7 <interruptEntryaf>:
  4037a7:	6a 00                	push   $0x0
  4037a9:	68 af 00 00 00       	push   $0xaf
  4037ae:	48 8d 04 25 08 3d 40 	lea    0x403d08,%rax
  4037b5:	00 
  4037b6:	ff e0                	jmp    *%rax

00000000004037b8 <interruptEntryb0>:
  4037b8:	6a 00                	push   $0x0
  4037ba:	68 b0 00 00 00       	push   $0xb0
  4037bf:	48 8d 04 25 08 3d 40 	lea    0x403d08,%rax
  4037c6:	00 
  4037c7:	ff e0                	jmp    *%rax

00000000004037c9 <interruptEntryb1>:
  4037c9:	6a 00                	push   $0x0
  4037cb:	68 b1 00 00 00       	push   $0xb1
  4037d0:	48 8d 04 25 08 3d 40 	lea    0x403d08,%rax
  4037d7:	00 
  4037d8:	ff e0                	jmp    *%rax

00000000004037da <interruptEntryb2>:
  4037da:	6a 00                	push   $0x0
  4037dc:	68 b2 00 00 00       	push   $0xb2
  4037e1:	48 8d 04 25 08 3d 40 	lea    0x403d08,%rax
  4037e8:	00 
  4037e9:	ff e0                	jmp    *%rax

00000000004037eb <interruptEntryb3>:
  4037eb:	6a 00                	push   $0x0
  4037ed:	68 b3 00 00 00       	push   $0xb3
  4037f2:	48 8d 04 25 08 3d 40 	lea    0x403d08,%rax
  4037f9:	00 
  4037fa:	ff e0                	jmp    *%rax

00000000004037fc <interruptEntryb4>:
  4037fc:	6a 00                	push   $0x0
  4037fe:	68 b4 00 00 00       	push   $0xb4
  403803:	48 8d 04 25 08 3d 40 	lea    0x403d08,%rax
  40380a:	00 
  40380b:	ff e0                	jmp    *%rax

000000000040380d <interruptEntryb5>:
  40380d:	6a 00                	push   $0x0
  40380f:	68 b5 00 00 00       	push   $0xb5
  403814:	48 8d 04 25 08 3d 40 	lea    0x403d08,%rax
  40381b:	00 
  40381c:	ff e0                	jmp    *%rax

000000000040381e <interruptEntryb6>:
  40381e:	6a 00                	push   $0x0
  403820:	68 b6 00 00 00       	push   $0xb6
  403825:	48 8d 04 25 08 3d 40 	lea    0x403d08,%rax
  40382c:	00 
  40382d:	ff e0                	jmp    *%rax

000000000040382f <interruptEntryb7>:
  40382f:	6a 00                	push   $0x0
  403831:	68 b7 00 00 00       	push   $0xb7
  403836:	48 8d 04 25 08 3d 40 	lea    0x403d08,%rax
  40383d:	00 
  40383e:	ff e0                	jmp    *%rax

0000000000403840 <interruptEntryb8>:
  403840:	6a 00                	push   $0x0
  403842:	68 b8 00 00 00       	push   $0xb8
  403847:	48 8d 04 25 08 3d 40 	lea    0x403d08,%rax
  40384e:	00 
  40384f:	ff e0                	jmp    *%rax

0000000000403851 <interruptEntryb9>:
  403851:	6a 00                	push   $0x0
  403853:	68 b9 00 00 00       	push   $0xb9
  403858:	48 8d 04 25 08 3d 40 	lea    0x403d08,%rax
  40385f:	00 
  403860:	ff e0                	jmp    *%rax

0000000000403862 <interruptEntryba>:
  403862:	6a 00                	push   $0x0
  403864:	68 ba 00 00 00       	push   $0xba
  403869:	48 8d 04 25 08 3d 40 	lea    0x403d08,%rax
  403870:	00 
  403871:	ff e0                	jmp    *%rax

0000000000403873 <interruptEntrybb>:
  403873:	6a 00                	push   $0x0
  403875:	68 bb 00 00 00       	push   $0xbb
  40387a:	48 8d 04 25 08 3d 40 	lea    0x403d08,%rax
  403881:	00 
  403882:	ff e0                	jmp    *%rax

0000000000403884 <interruptEntrybc>:
  403884:	6a 00                	push   $0x0
  403886:	68 bc 00 00 00       	push   $0xbc
  40388b:	48 8d 04 25 08 3d 40 	lea    0x403d08,%rax
  403892:	00 
  403893:	ff e0                	jmp    *%rax

0000000000403895 <interruptEntrybd>:
  403895:	6a 00                	push   $0x0
  403897:	68 bd 00 00 00       	push   $0xbd
  40389c:	48 8d 04 25 08 3d 40 	lea    0x403d08,%rax
  4038a3:	00 
  4038a4:	ff e0                	jmp    *%rax

00000000004038a6 <interruptEntrybe>:
  4038a6:	6a 00                	push   $0x0
  4038a8:	68 be 00 00 00       	push   $0xbe
  4038ad:	48 8d 04 25 08 3d 40 	lea    0x403d08,%rax
  4038b4:	00 
  4038b5:	ff e0                	jmp    *%rax

00000000004038b7 <interruptEntrybf>:
  4038b7:	6a 00                	push   $0x0
  4038b9:	68 bf 00 00 00       	push   $0xbf
  4038be:	48 8d 04 25 08 3d 40 	lea    0x403d08,%rax
  4038c5:	00 
  4038c6:	ff e0                	jmp    *%rax

00000000004038c8 <interruptEntryc0>:
  4038c8:	6a 00                	push   $0x0
  4038ca:	68 c0 00 00 00       	push   $0xc0
  4038cf:	48 8d 04 25 08 3d 40 	lea    0x403d08,%rax
  4038d6:	00 
  4038d7:	ff e0                	jmp    *%rax

00000000004038d9 <interruptEntryc1>:
  4038d9:	6a 00                	push   $0x0
  4038db:	68 c1 00 00 00       	push   $0xc1
  4038e0:	48 8d 04 25 08 3d 40 	lea    0x403d08,%rax
  4038e7:	00 
  4038e8:	ff e0                	jmp    *%rax

00000000004038ea <interruptEntryc2>:
  4038ea:	6a 00                	push   $0x0
  4038ec:	68 c2 00 00 00       	push   $0xc2
  4038f1:	48 8d 04 25 08 3d 40 	lea    0x403d08,%rax
  4038f8:	00 
  4038f9:	ff e0                	jmp    *%rax

00000000004038fb <interruptEntryc3>:
  4038fb:	6a 00                	push   $0x0
  4038fd:	68 c3 00 00 00       	push   $0xc3
  403902:	48 8d 04 25 08 3d 40 	lea    0x403d08,%rax
  403909:	00 
  40390a:	ff e0                	jmp    *%rax

000000000040390c <interruptEntryc4>:
  40390c:	6a 00                	push   $0x0
  40390e:	68 c4 00 00 00       	push   $0xc4
  403913:	48 8d 04 25 08 3d 40 	lea    0x403d08,%rax
  40391a:	00 
  40391b:	ff e0                	jmp    *%rax

000000000040391d <interruptEntryc5>:
  40391d:	6a 00                	push   $0x0
  40391f:	68 c5 00 00 00       	push   $0xc5
  403924:	48 8d 04 25 08 3d 40 	lea    0x403d08,%rax
  40392b:	00 
  40392c:	ff e0                	jmp    *%rax

000000000040392e <interruptEntryc6>:
  40392e:	6a 00                	push   $0x0
  403930:	68 c6 00 00 00       	push   $0xc6
  403935:	48 8d 04 25 08 3d 40 	lea    0x403d08,%rax
  40393c:	00 
  40393d:	ff e0                	jmp    *%rax

000000000040393f <interruptEntryc7>:
  40393f:	6a 00                	push   $0x0
  403941:	68 c7 00 00 00       	push   $0xc7
  403946:	48 8d 04 25 08 3d 40 	lea    0x403d08,%rax
  40394d:	00 
  40394e:	ff e0                	jmp    *%rax

0000000000403950 <interruptEntryc8>:
  403950:	6a 00                	push   $0x0
  403952:	68 c8 00 00 00       	push   $0xc8
  403957:	48 8d 04 25 08 3d 40 	lea    0x403d08,%rax
  40395e:	00 
  40395f:	ff e0                	jmp    *%rax

0000000000403961 <interruptEntryc9>:
  403961:	6a 00                	push   $0x0
  403963:	68 c9 00 00 00       	push   $0xc9
  403968:	48 8d 04 25 08 3d 40 	lea    0x403d08,%rax
  40396f:	00 
  403970:	ff e0                	jmp    *%rax

0000000000403972 <interruptEntryca>:
  403972:	6a 00                	push   $0x0
  403974:	68 ca 00 00 00       	push   $0xca
  403979:	48 8d 04 25 08 3d 40 	lea    0x403d08,%rax
  403980:	00 
  403981:	ff e0                	jmp    *%rax

0000000000403983 <interruptEntrycb>:
  403983:	6a 00                	push   $0x0
  403985:	68 cb 00 00 00       	push   $0xcb
  40398a:	48 8d 04 25 08 3d 40 	lea    0x403d08,%rax
  403991:	00 
  403992:	ff e0                	jmp    *%rax

0000000000403994 <interruptEntrycc>:
  403994:	6a 00                	push   $0x0
  403996:	68 cc 00 00 00       	push   $0xcc
  40399b:	48 8d 04 25 08 3d 40 	lea    0x403d08,%rax
  4039a2:	00 
  4039a3:	ff e0                	jmp    *%rax

00000000004039a5 <interruptEntrycd>:
  4039a5:	6a 00                	push   $0x0
  4039a7:	68 cd 00 00 00       	push   $0xcd
  4039ac:	48 8d 04 25 08 3d 40 	lea    0x403d08,%rax
  4039b3:	00 
  4039b4:	ff e0                	jmp    *%rax

00000000004039b6 <interruptEntryce>:
  4039b6:	6a 00                	push   $0x0
  4039b8:	68 ce 00 00 00       	push   $0xce
  4039bd:	48 8d 04 25 08 3d 40 	lea    0x403d08,%rax
  4039c4:	00 
  4039c5:	ff e0                	jmp    *%rax

00000000004039c7 <interruptEntrycf>:
  4039c7:	6a 00                	push   $0x0
  4039c9:	68 cf 00 00 00       	push   $0xcf
  4039ce:	48 8d 04 25 08 3d 40 	lea    0x403d08,%rax
  4039d5:	00 
  4039d6:	ff e0                	jmp    *%rax

00000000004039d8 <interruptEntryd0>:
  4039d8:	6a 00                	push   $0x0
  4039da:	68 d0 00 00 00       	push   $0xd0
  4039df:	48 8d 04 25 08 3d 40 	lea    0x403d08,%rax
  4039e6:	00 
  4039e7:	ff e0                	jmp    *%rax

00000000004039e9 <interruptEntryd1>:
  4039e9:	6a 00                	push   $0x0
  4039eb:	68 d1 00 00 00       	push   $0xd1
  4039f0:	48 8d 04 25 08 3d 40 	lea    0x403d08,%rax
  4039f7:	00 
  4039f8:	ff e0                	jmp    *%rax

00000000004039fa <interruptEntryd2>:
  4039fa:	6a 00                	push   $0x0
  4039fc:	68 d2 00 00 00       	push   $0xd2
  403a01:	48 8d 04 25 08 3d 40 	lea    0x403d08,%rax
  403a08:	00 
  403a09:	ff e0                	jmp    *%rax

0000000000403a0b <interruptEntryd3>:
  403a0b:	6a 00                	push   $0x0
  403a0d:	68 d3 00 00 00       	push   $0xd3
  403a12:	48 8d 04 25 08 3d 40 	lea    0x403d08,%rax
  403a19:	00 
  403a1a:	ff e0                	jmp    *%rax

0000000000403a1c <interruptEntryd4>:
  403a1c:	6a 00                	push   $0x0
  403a1e:	68 d4 00 00 00       	push   $0xd4
  403a23:	48 8d 04 25 08 3d 40 	lea    0x403d08,%rax
  403a2a:	00 
  403a2b:	ff e0                	jmp    *%rax

0000000000403a2d <interruptEntryd5>:
  403a2d:	6a 00                	push   $0x0
  403a2f:	68 d5 00 00 00       	push   $0xd5
  403a34:	48 8d 04 25 08 3d 40 	lea    0x403d08,%rax
  403a3b:	00 
  403a3c:	ff e0                	jmp    *%rax

0000000000403a3e <interruptEntryd6>:
  403a3e:	6a 00                	push   $0x0
  403a40:	68 d6 00 00 00       	push   $0xd6
  403a45:	48 8d 04 25 08 3d 40 	lea    0x403d08,%rax
  403a4c:	00 
  403a4d:	ff e0                	jmp    *%rax

0000000000403a4f <interruptEntryd7>:
  403a4f:	6a 00                	push   $0x0
  403a51:	68 d7 00 00 00       	push   $0xd7
  403a56:	48 8d 04 25 08 3d 40 	lea    0x403d08,%rax
  403a5d:	00 
  403a5e:	ff e0                	jmp    *%rax

0000000000403a60 <interruptEntryd8>:
  403a60:	6a 00                	push   $0x0
  403a62:	68 d8 00 00 00       	push   $0xd8
  403a67:	48 8d 04 25 08 3d 40 	lea    0x403d08,%rax
  403a6e:	00 
  403a6f:	ff e0                	jmp    *%rax

0000000000403a71 <interruptEntryd9>:
  403a71:	6a 00                	push   $0x0
  403a73:	68 d9 00 00 00       	push   $0xd9
  403a78:	48 8d 04 25 08 3d 40 	lea    0x403d08,%rax
  403a7f:	00 
  403a80:	ff e0                	jmp    *%rax

0000000000403a82 <interruptEntryda>:
  403a82:	6a 00                	push   $0x0
  403a84:	68 da 00 00 00       	push   $0xda
  403a89:	48 8d 04 25 08 3d 40 	lea    0x403d08,%rax
  403a90:	00 
  403a91:	ff e0                	jmp    *%rax

0000000000403a93 <interruptEntrydb>:
  403a93:	6a 00                	push   $0x0
  403a95:	68 db 00 00 00       	push   $0xdb
  403a9a:	48 8d 04 25 08 3d 40 	lea    0x403d08,%rax
  403aa1:	00 
  403aa2:	ff e0                	jmp    *%rax

0000000000403aa4 <interruptEntrydc>:
  403aa4:	6a 00                	push   $0x0
  403aa6:	68 dc 00 00 00       	push   $0xdc
  403aab:	48 8d 04 25 08 3d 40 	lea    0x403d08,%rax
  403ab2:	00 
  403ab3:	ff e0                	jmp    *%rax

0000000000403ab5 <interruptEntrydd>:
  403ab5:	6a 00                	push   $0x0
  403ab7:	68 dd 00 00 00       	push   $0xdd
  403abc:	48 8d 04 25 08 3d 40 	lea    0x403d08,%rax
  403ac3:	00 
  403ac4:	ff e0                	jmp    *%rax

0000000000403ac6 <interruptEntryde>:
  403ac6:	6a 00                	push   $0x0
  403ac8:	68 de 00 00 00       	push   $0xde
  403acd:	48 8d 04 25 08 3d 40 	lea    0x403d08,%rax
  403ad4:	00 
  403ad5:	ff e0                	jmp    *%rax

0000000000403ad7 <interruptEntrydf>:
  403ad7:	6a 00                	push   $0x0
  403ad9:	68 df 00 00 00       	push   $0xdf
  403ade:	48 8d 04 25 08 3d 40 	lea    0x403d08,%rax
  403ae5:	00 
  403ae6:	ff e0                	jmp    *%rax

0000000000403ae8 <interruptEntrye0>:
  403ae8:	6a 00                	push   $0x0
  403aea:	68 e0 00 00 00       	push   $0xe0
  403aef:	48 8d 04 25 08 3d 40 	lea    0x403d08,%rax
  403af6:	00 
  403af7:	ff e0                	jmp    *%rax

0000000000403af9 <interruptEntrye1>:
  403af9:	6a 00                	push   $0x0
  403afb:	68 e1 00 00 00       	push   $0xe1
  403b00:	48 8d 04 25 08 3d 40 	lea    0x403d08,%rax
  403b07:	00 
  403b08:	ff e0                	jmp    *%rax

0000000000403b0a <interruptEntrye2>:
  403b0a:	6a 00                	push   $0x0
  403b0c:	68 e2 00 00 00       	push   $0xe2
  403b11:	48 8d 04 25 08 3d 40 	lea    0x403d08,%rax
  403b18:	00 
  403b19:	ff e0                	jmp    *%rax

0000000000403b1b <interruptEntrye3>:
  403b1b:	6a 00                	push   $0x0
  403b1d:	68 e3 00 00 00       	push   $0xe3
  403b22:	48 8d 04 25 08 3d 40 	lea    0x403d08,%rax
  403b29:	00 
  403b2a:	ff e0                	jmp    *%rax

0000000000403b2c <interruptEntrye4>:
  403b2c:	6a 00                	push   $0x0
  403b2e:	68 e4 00 00 00       	push   $0xe4
  403b33:	48 8d 04 25 08 3d 40 	lea    0x403d08,%rax
  403b3a:	00 
  403b3b:	ff e0                	jmp    *%rax

0000000000403b3d <interruptEntrye5>:
  403b3d:	6a 00                	push   $0x0
  403b3f:	68 e5 00 00 00       	push   $0xe5
  403b44:	48 8d 04 25 08 3d 40 	lea    0x403d08,%rax
  403b4b:	00 
  403b4c:	ff e0                	jmp    *%rax

0000000000403b4e <interruptEntrye6>:
  403b4e:	6a 00                	push   $0x0
  403b50:	68 e6 00 00 00       	push   $0xe6
  403b55:	48 8d 04 25 08 3d 40 	lea    0x403d08,%rax
  403b5c:	00 
  403b5d:	ff e0                	jmp    *%rax

0000000000403b5f <interruptEntrye7>:
  403b5f:	6a 00                	push   $0x0
  403b61:	68 e7 00 00 00       	push   $0xe7
  403b66:	48 8d 04 25 08 3d 40 	lea    0x403d08,%rax
  403b6d:	00 
  403b6e:	ff e0                	jmp    *%rax

0000000000403b70 <interruptEntrye8>:
  403b70:	6a 00                	push   $0x0
  403b72:	68 e8 00 00 00       	push   $0xe8
  403b77:	48 8d 04 25 08 3d 40 	lea    0x403d08,%rax
  403b7e:	00 
  403b7f:	ff e0                	jmp    *%rax

0000000000403b81 <interruptEntrye9>:
  403b81:	6a 00                	push   $0x0
  403b83:	68 e9 00 00 00       	push   $0xe9
  403b88:	48 8d 04 25 08 3d 40 	lea    0x403d08,%rax
  403b8f:	00 
  403b90:	ff e0                	jmp    *%rax

0000000000403b92 <interruptEntryea>:
  403b92:	6a 00                	push   $0x0
  403b94:	68 ea 00 00 00       	push   $0xea
  403b99:	48 8d 04 25 08 3d 40 	lea    0x403d08,%rax
  403ba0:	00 
  403ba1:	ff e0                	jmp    *%rax

0000000000403ba3 <interruptEntryeb>:
  403ba3:	6a 00                	push   $0x0
  403ba5:	68 eb 00 00 00       	push   $0xeb
  403baa:	48 8d 04 25 08 3d 40 	lea    0x403d08,%rax
  403bb1:	00 
  403bb2:	ff e0                	jmp    *%rax

0000000000403bb4 <interruptEntryec>:
  403bb4:	6a 00                	push   $0x0
  403bb6:	68 ec 00 00 00       	push   $0xec
  403bbb:	48 8d 04 25 08 3d 40 	lea    0x403d08,%rax
  403bc2:	00 
  403bc3:	ff e0                	jmp    *%rax

0000000000403bc5 <interruptEntryed>:
  403bc5:	6a 00                	push   $0x0
  403bc7:	68 ed 00 00 00       	push   $0xed
  403bcc:	48 8d 04 25 08 3d 40 	lea    0x403d08,%rax
  403bd3:	00 
  403bd4:	ff e0                	jmp    *%rax

0000000000403bd6 <interruptEntryee>:
  403bd6:	6a 00                	push   $0x0
  403bd8:	68 ee 00 00 00       	push   $0xee
  403bdd:	48 8d 04 25 08 3d 40 	lea    0x403d08,%rax
  403be4:	00 
  403be5:	ff e0                	jmp    *%rax

0000000000403be7 <interruptEntryef>:
  403be7:	6a 00                	push   $0x0
  403be9:	68 ef 00 00 00       	push   $0xef
  403bee:	48 8d 04 25 08 3d 40 	lea    0x403d08,%rax
  403bf5:	00 
  403bf6:	ff e0                	jmp    *%rax

0000000000403bf8 <interruptEntryf0>:
  403bf8:	6a 00                	push   $0x0
  403bfa:	68 f0 00 00 00       	push   $0xf0
  403bff:	48 8d 04 25 08 3d 40 	lea    0x403d08,%rax
  403c06:	00 
  403c07:	ff e0                	jmp    *%rax

0000000000403c09 <interruptEntryf1>:
  403c09:	6a 00                	push   $0x0
  403c0b:	68 f1 00 00 00       	push   $0xf1
  403c10:	48 8d 04 25 08 3d 40 	lea    0x403d08,%rax
  403c17:	00 
  403c18:	ff e0                	jmp    *%rax

0000000000403c1a <interruptEntryf2>:
  403c1a:	6a 00                	push   $0x0
  403c1c:	68 f2 00 00 00       	push   $0xf2
  403c21:	48 8d 04 25 08 3d 40 	lea    0x403d08,%rax
  403c28:	00 
  403c29:	ff e0                	jmp    *%rax

0000000000403c2b <interruptEntryf3>:
  403c2b:	6a 00                	push   $0x0
  403c2d:	68 f3 00 00 00       	push   $0xf3
  403c32:	48 8d 04 25 08 3d 40 	lea    0x403d08,%rax
  403c39:	00 
  403c3a:	ff e0                	jmp    *%rax

0000000000403c3c <interruptEntryf4>:
  403c3c:	6a 00                	push   $0x0
  403c3e:	68 f4 00 00 00       	push   $0xf4
  403c43:	48 8d 04 25 08 3d 40 	lea    0x403d08,%rax
  403c4a:	00 
  403c4b:	ff e0                	jmp    *%rax

0000000000403c4d <interruptEntryf5>:
  403c4d:	6a 00                	push   $0x0
  403c4f:	68 f5 00 00 00       	push   $0xf5
  403c54:	48 8d 04 25 08 3d 40 	lea    0x403d08,%rax
  403c5b:	00 
  403c5c:	ff e0                	jmp    *%rax

0000000000403c5e <interruptEntryf6>:
  403c5e:	6a 00                	push   $0x0
  403c60:	68 f6 00 00 00       	push   $0xf6
  403c65:	48 8d 04 25 08 3d 40 	lea    0x403d08,%rax
  403c6c:	00 
  403c6d:	ff e0                	jmp    *%rax

0000000000403c6f <interruptEntryf7>:
  403c6f:	6a 00                	push   $0x0
  403c71:	68 f7 00 00 00       	push   $0xf7
  403c76:	48 8d 04 25 08 3d 40 	lea    0x403d08,%rax
  403c7d:	00 
  403c7e:	ff e0                	jmp    *%rax

0000000000403c80 <interruptEntryf8>:
  403c80:	6a 00                	push   $0x0
  403c82:	68 f8 00 00 00       	push   $0xf8
  403c87:	48 8d 04 25 08 3d 40 	lea    0x403d08,%rax
  403c8e:	00 
  403c8f:	ff e0                	jmp    *%rax

0000000000403c91 <interruptEntryf9>:
  403c91:	6a 00                	push   $0x0
  403c93:	68 f9 00 00 00       	push   $0xf9
  403c98:	48 8d 04 25 08 3d 40 	lea    0x403d08,%rax
  403c9f:	00 
  403ca0:	ff e0                	jmp    *%rax

0000000000403ca2 <interruptEntryfa>:
  403ca2:	6a 00                	push   $0x0
  403ca4:	68 fa 00 00 00       	push   $0xfa
  403ca9:	48 8d 04 25 08 3d 40 	lea    0x403d08,%rax
  403cb0:	00 
  403cb1:	ff e0                	jmp    *%rax

0000000000403cb3 <interruptEntryfb>:
  403cb3:	6a 00                	push   $0x0
  403cb5:	68 fb 00 00 00       	push   $0xfb
  403cba:	48 8d 04 25 08 3d 40 	lea    0x403d08,%rax
  403cc1:	00 
  403cc2:	ff e0                	jmp    *%rax

0000000000403cc4 <interruptEntryfc>:
  403cc4:	6a 00                	push   $0x0
  403cc6:	68 fc 00 00 00       	push   $0xfc
  403ccb:	48 8d 04 25 08 3d 40 	lea    0x403d08,%rax
  403cd2:	00 
  403cd3:	ff e0                	jmp    *%rax

0000000000403cd5 <interruptEntryfd>:
  403cd5:	6a 00                	push   $0x0
  403cd7:	68 fd 00 00 00       	push   $0xfd
  403cdc:	48 8d 04 25 08 3d 40 	lea    0x403d08,%rax
  403ce3:	00 
  403ce4:	ff e0                	jmp    *%rax

0000000000403ce6 <interruptEntryfe>:
  403ce6:	6a 00                	push   $0x0
  403ce8:	68 fe 00 00 00       	push   $0xfe
  403ced:	48 8d 04 25 08 3d 40 	lea    0x403d08,%rax
  403cf4:	00 
  403cf5:	ff e0                	jmp    *%rax

0000000000403cf7 <interruptEntryff>:
  403cf7:	6a 00                	push   $0x0
  403cf9:	68 ff 00 00 00       	push   $0xff
  403cfe:	48 8d 04 25 08 3d 40 	lea    0x403d08,%rax
  403d05:	00 
  403d06:	ff e0                	jmp    *%rax

0000000000403d08 <_handleIntr>:
  403d08:	fa                   	cli    
  403d09:	50                   	push   %rax
  403d0a:	53                   	push   %rbx
  403d0b:	51                   	push   %rcx
  403d0c:	52                   	push   %rdx
  403d0d:	56                   	push   %rsi
  403d0e:	57                   	push   %rdi
  403d0f:	55                   	push   %rbp
  403d10:	41 50                	push   %r8
  403d12:	41 51                	push   %r9
  403d14:	41 52                	push   %r10
  403d16:	41 53                	push   %r11
  403d18:	41 54                	push   %r12
  403d1a:	41 55                	push   %r13
  403d1c:	41 56                	push   %r14
  403d1e:	41 57                	push   %r15
  403d20:	48 89 e7             	mov    %rsp,%rdi
  403d23:	48 8d 04 25 30 8c 40 	lea    0x408c30,%rax
  403d2a:	00 
  403d2b:	ff d0                	call   *%rax
  403d2d:	48 89 c4             	mov    %rax,%rsp
  403d30:	41 5f                	pop    %r15
  403d32:	41 5e                	pop    %r14
  403d34:	41 5d                	pop    %r13
  403d36:	41 5c                	pop    %r12
  403d38:	41 5b                	pop    %r11
  403d3a:	41 5a                	pop    %r10
  403d3c:	41 59                	pop    %r9
  403d3e:	41 58                	pop    %r8
  403d40:	5d                   	pop    %rbp
  403d41:	5f                   	pop    %rdi
  403d42:	5e                   	pop    %rsi
  403d43:	5a                   	pop    %rdx
  403d44:	59                   	pop    %rcx
  403d45:	5b                   	pop    %rbx
  403d46:	58                   	pop    %rax
  403d47:	48 83 c4 10          	add    $0x10,%rsp
  403d4b:	fb                   	sti    
  403d4c:	48 cf                	iretq  
  403d4e:	66 90                	xchg   %ax,%ax

0000000000403d50 <memcpy>:
  403d50:	f3 0f 1e fa          	endbr64 
  403d54:	48 89 f8             	mov    %rdi,%rax
  403d57:	48 89 f1             	mov    %rsi,%rcx
  403d5a:	48 83 fa 0f          	cmp    $0xf,%rdx
  403d5e:	0f 86 bc 01 00 00    	jbe    403f20 <memcpy+0x1d0>
  403d64:	48 83 fa 20          	cmp    $0x20,%rdx
  403d68:	0f 86 92 01 00 00    	jbe    403f00 <memcpy+0x1b0>
  403d6e:	48 83 fa 40          	cmp    $0x40,%rdx
  403d72:	0f 86 58 02 00 00    	jbe    403fd0 <memcpy+0x280>
  403d78:	48 81 fa 80 00 00 00 	cmp    $0x80,%rdx
  403d7f:	0f 86 eb 01 00 00    	jbe    403f70 <memcpy+0x220>
  403d85:	48 81 fa ff 00 00 00 	cmp    $0xff,%rdx
  403d8c:	0f 86 b6 02 00 00    	jbe    404048 <memcpy+0x2f8>
  403d92:	48 8d b2 00 ff ff ff 	lea    -0x100(%rdx),%rsi
  403d99:	40 30 f6             	xor    %sil,%sil
  403d9c:	4c 8d 96 00 01 00 00 	lea    0x100(%rsi),%r10
  403da3:	48 89 c6             	mov    %rax,%rsi
  403da6:	4a 8d 3c 11          	lea    (%rcx,%r10,1),%rdi
  403daa:	66 0f 1f 44 00 00    	nopw   0x0(%rax,%rax,1)
  403db0:	f3 0f 6f 01          	movdqu (%rcx),%xmm0
  403db4:	f3 0f 6f 49 10       	movdqu 0x10(%rcx),%xmm1
  403db9:	f3 0f 6f 51 20       	movdqu 0x20(%rcx),%xmm2
  403dbe:	f3 0f 6f 59 30       	movdqu 0x30(%rcx),%xmm3
  403dc3:	f3 0f 6f 61 40       	movdqu 0x40(%rcx),%xmm4
  403dc8:	f3 0f 6f 69 50       	movdqu 0x50(%rcx),%xmm5
  403dcd:	f3 0f 6f 71 60       	movdqu 0x60(%rcx),%xmm6
  403dd2:	f3 0f 6f 79 70       	movdqu 0x70(%rcx),%xmm7
  403dd7:	f3 0f 7f 06          	movdqu %xmm0,(%rsi)
  403ddb:	f3 0f 7f 4e 10       	movdqu %xmm1,0x10(%rsi)
  403de0:	f3 0f 7f 56 20       	movdqu %xmm2,0x20(%rsi)
  403de5:	f3 0f 7f 5e 30       	movdqu %xmm3,0x30(%rsi)
  403dea:	f3 0f 7f 66 40       	movdqu %xmm4,0x40(%rsi)
  403def:	f3 0f 7f 6e 50       	movdqu %xmm5,0x50(%rsi)
  403df4:	f3 0f 7f 76 60       	movdqu %xmm6,0x60(%rsi)
  403df9:	f3 0f 7f 7e 70       	movdqu %xmm7,0x70(%rsi)
  403dfe:	4c 8d 81 80 00 00 00 	lea    0x80(%rcx),%r8
  403e05:	4c 8d 8e 80 00 00 00 	lea    0x80(%rsi),%r9
  403e0c:	f3 41 0f 6f 00       	movdqu (%r8),%xmm0
  403e11:	f3 41 0f 6f 48 10    	movdqu 0x10(%r8),%xmm1
  403e17:	f3 41 0f 6f 50 20    	movdqu 0x20(%r8),%xmm2
  403e1d:	f3 41 0f 6f 58 30    	movdqu 0x30(%r8),%xmm3
  403e23:	f3 41 0f 6f 60 40    	movdqu 0x40(%r8),%xmm4
  403e29:	f3 41 0f 6f 68 50    	movdqu 0x50(%r8),%xmm5
  403e2f:	f3 41 0f 6f 70 60    	movdqu 0x60(%r8),%xmm6
  403e35:	f3 41 0f 6f 78 70    	movdqu 0x70(%r8),%xmm7
  403e3b:	f3 41 0f 7f 01       	movdqu %xmm0,(%r9)
  403e40:	f3 41 0f 7f 49 10    	movdqu %xmm1,0x10(%r9)
  403e46:	f3 41 0f 7f 51 20    	movdqu %xmm2,0x20(%r9)
  403e4c:	f3 41 0f 7f 59 30    	movdqu %xmm3,0x30(%r9)
  403e52:	f3 41 0f 7f 61 40    	movdqu %xmm4,0x40(%r9)
  403e58:	f3 41 0f 7f 69 50    	movdqu %xmm5,0x50(%r9)
  403e5e:	f3 41 0f 7f 71 60    	movdqu %xmm6,0x60(%r9)
  403e64:	f3 41 0f 7f 79 70    	movdqu %xmm7,0x70(%r9)
  403e6a:	48 81 c1 00 01 00 00 	add    $0x100,%rcx
  403e71:	48 81 c6 00 01 00 00 	add    $0x100,%rsi
  403e78:	48 39 f9             	cmp    %rdi,%rcx
  403e7b:	0f 85 2f ff ff ff    	jne    403db0 <memcpy+0x60>
  403e81:	0f b6 d2             	movzbl %dl,%edx
  403e84:	b9 03 00 00 00       	mov    $0x3,%ecx
  403e89:	4a 8d 34 10          	lea    (%rax,%r10,1),%rsi
  403e8d:	49 89 d0             	mov    %rdx,%r8
  403e90:	49 c1 e8 06          	shr    $0x6,%r8
  403e94:	4c 29 c1             	sub    %r8,%rcx
  403e97:	48 83 f9 01          	cmp    $0x1,%rcx
  403e9b:	0f 84 f0 01 00 00    	je     404091 <memcpy+0x341>
  403ea1:	48 83 f9 02          	cmp    $0x2,%rcx
  403ea5:	0f 84 18 02 00 00    	je     4040c3 <memcpy+0x373>
  403eab:	48 85 c9             	test   %rcx,%rcx
  403eae:	0f 84 ab 01 00 00    	je     40405f <memcpy+0x30f>
  403eb4:	49 89 d0             	mov    %rdx,%r8
  403eb7:	b9 03 00 00 00       	mov    $0x3,%ecx
  403ebc:	49 c1 e8 04          	shr    $0x4,%r8
  403ec0:	4c 29 c1             	sub    %r8,%rcx
  403ec3:	48 83 f9 01          	cmp    $0x1,%rcx
  403ec7:	0f 84 47 01 00 00    	je     404014 <memcpy+0x2c4>
  403ecd:	48 83 f9 02          	cmp    $0x2,%rcx
  403ed1:	0f 84 51 01 00 00    	je     404028 <memcpy+0x2d8>
  403ed7:	48 85 c9             	test   %rcx,%rcx
  403eda:	0f 84 20 01 00 00    	je     404000 <memcpy+0x2b0>
  403ee0:	48 85 d2             	test   %rdx,%rdx
  403ee3:	0f 84 7f 00 00 00    	je     403f68 <memcpy+0x218>
  403ee9:	48 83 ea 10          	sub    $0x10,%rdx
  403eed:	48 01 d7             	add    %rdx,%rdi
  403ef0:	48 01 d6             	add    %rdx,%rsi
  403ef3:	f3 0f 6f 07          	movdqu (%rdi),%xmm0
  403ef7:	f3 0f 7f 06          	movdqu %xmm0,(%rsi)
  403efb:	c3                   	ret    
  403efc:	0f 1f 40 00          	nopl   0x0(%rax)
  403f00:	f3 0f 6f 06          	movdqu (%rsi),%xmm0
  403f04:	f3 0f 7f 07          	movdqu %xmm0,(%rdi)
  403f08:	48 83 ea 10          	sub    $0x10,%rdx
  403f0c:	48 01 d1             	add    %rdx,%rcx
  403f0f:	48 01 fa             	add    %rdi,%rdx
  403f12:	f3 0f 6f 01          	movdqu (%rcx),%xmm0
  403f16:	f3 0f 7f 02          	movdqu %xmm0,(%rdx)
  403f1a:	c3                   	ret    
  403f1b:	0f 1f 44 00 00       	nopl   0x0(%rax,%rax,1)
  403f20:	f6 c2 01             	test   $0x1,%dl
  403f23:	74 0e                	je     403f33 <memcpy+0x1e3>
  403f25:	0f b6 36             	movzbl (%rsi),%esi
  403f28:	48 83 c0 01          	add    $0x1,%rax
  403f2c:	48 83 c1 01          	add    $0x1,%rcx
  403f30:	40 88 37             	mov    %sil,(%rdi)
  403f33:	f6 c2 02             	test   $0x2,%dl
  403f36:	74 0f                	je     403f47 <memcpy+0x1f7>
  403f38:	0f b7 31             	movzwl (%rcx),%esi
  403f3b:	48 83 c0 02          	add    $0x2,%rax
  403f3f:	48 83 c1 02          	add    $0x2,%rcx
  403f43:	66 89 70 fe          	mov    %si,-0x2(%rax)
  403f47:	f6 c2 04             	test   $0x4,%dl
  403f4a:	74 0d                	je     403f59 <memcpy+0x209>
  403f4c:	8b 31                	mov    (%rcx),%esi
  403f4e:	48 83 c0 04          	add    $0x4,%rax
  403f52:	48 83 c1 04          	add    $0x4,%rcx
  403f56:	89 70 fc             	mov    %esi,-0x4(%rax)
  403f59:	83 e2 08             	and    $0x8,%edx
  403f5c:	74 0a                	je     403f68 <memcpy+0x218>
  403f5e:	48 8b 11             	mov    (%rcx),%rdx
  403f61:	48 89 10             	mov    %rdx,(%rax)
  403f64:	c3                   	ret    
  403f65:	0f 1f 00             	nopl   (%rax)
  403f68:	c3                   	ret    
  403f69:	0f 1f 80 00 00 00 00 	nopl   0x0(%rax)
  403f70:	f3 0f 6f 06          	movdqu (%rsi),%xmm0
  403f74:	f3 0f 6f 4e 10       	movdqu 0x10(%rsi),%xmm1
  403f79:	f3 0f 6f 56 20       	movdqu 0x20(%rsi),%xmm2
  403f7e:	f3 0f 6f 5e 30       	movdqu 0x30(%rsi),%xmm3
  403f83:	f3 0f 7f 07          	movdqu %xmm0,(%rdi)
  403f87:	f3 0f 7f 4f 10       	movdqu %xmm1,0x10(%rdi)
  403f8c:	f3 0f 7f 57 20       	movdqu %xmm2,0x20(%rdi)
  403f91:	f3 0f 7f 5f 30       	movdqu %xmm3,0x30(%rdi)
  403f96:	48 83 ea 40          	sub    $0x40,%rdx
  403f9a:	48 01 d1             	add    %rdx,%rcx
  403f9d:	48 01 fa             	add    %rdi,%rdx
  403fa0:	f3 0f 6f 01          	movdqu (%rcx),%xmm0
  403fa4:	f3 0f 6f 49 10       	movdqu 0x10(%rcx),%xmm1
  403fa9:	f3 0f 6f 51 20       	movdqu 0x20(%rcx),%xmm2
  403fae:	f3 0f 6f 59 30       	movdqu 0x30(%rcx),%xmm3
  403fb3:	f3 0f 7f 02          	movdqu %xmm0,(%rdx)
  403fb7:	f3 0f 7f 4a 10       	movdqu %xmm1,0x10(%rdx)
  403fbc:	f3 0f 7f 52 20       	movdqu %xmm2,0x20(%rdx)
  403fc1:	f3 0f 7f 5a 30       	movdqu %xmm3,0x30(%rdx)
  403fc6:	c3                   	ret    
  403fc7:	66 0f 1f 84 00 00 00 	nopw   0x0(%rax,%rax,1)
  403fce:	00 00 
  403fd0:	f3 0f 6f 06          	movdqu (%rsi),%xmm0
  403fd4:	f3 0f 6f 4e 10       	movdqu 0x10(%rsi),%xmm1
  403fd9:	f3 0f 7f 07          	movdqu %xmm0,(%rdi)
  403fdd:	f3 0f 7f 4f 10       	movdqu %xmm1,0x10(%rdi)
  403fe2:	48 83 ea 20          	sub    $0x20,%rdx
  403fe6:	48 01 d1             	add    %rdx,%rcx
  403fe9:	48 01 fa             	add    %rdi,%rdx
  403fec:	f3 0f 6f 01          	movdqu (%rcx),%xmm0
  403ff0:	f3 0f 6f 49 10       	movdqu 0x10(%rcx),%xmm1
  403ff5:	f3 0f 7f 02          	movdqu %xmm0,(%rdx)
  403ff9:	f3 0f 7f 4a 10       	movdqu %xmm1,0x10(%rdx)
  403ffe:	c3                   	ret    
  403fff:	90                   	nop
  404000:	f3 0f 6f 07          	movdqu (%rdi),%xmm0
  404004:	f3 0f 7f 06          	movdqu %xmm0,(%rsi)
  404008:	48 83 ea 10          	sub    $0x10,%rdx
  40400c:	48 83 c6 10          	add    $0x10,%rsi
  404010:	48 83 c7 10          	add    $0x10,%rdi
  404014:	f3 0f 6f 07          	movdqu (%rdi),%xmm0
  404018:	f3 0f 7f 06          	movdqu %xmm0,(%rsi)
  40401c:	48 83 ea 10          	sub    $0x10,%rdx
  404020:	48 83 c6 10          	add    $0x10,%rsi
  404024:	48 83 c7 10          	add    $0x10,%rdi
  404028:	f3 0f 6f 07          	movdqu (%rdi),%xmm0
  40402c:	f3 0f 7f 06          	movdqu %xmm0,(%rsi)
  404030:	48 83 ea 10          	sub    $0x10,%rdx
  404034:	48 83 c6 10          	add    $0x10,%rsi
  404038:	48 83 c7 10          	add    $0x10,%rdi
  40403c:	e9 9f fe ff ff       	jmp    403ee0 <memcpy+0x190>
  404041:	0f 1f 80 00 00 00 00 	nopl   0x0(%rax)
  404048:	48 89 d6             	mov    %rdx,%rsi
  40404b:	48 c1 ee 06          	shr    $0x6,%rsi
  40404f:	48 83 fe 02          	cmp    $0x2,%rsi
  404053:	0f 84 a1 00 00 00    	je     4040fa <memcpy+0x3aa>
  404059:	48 89 fe             	mov    %rdi,%rsi
  40405c:	48 89 cf             	mov    %rcx,%rdi
  40405f:	f3 0f 6f 07          	movdqu (%rdi),%xmm0
  404063:	f3 0f 6f 4f 10       	movdqu 0x10(%rdi),%xmm1
  404068:	f3 0f 6f 57 20       	movdqu 0x20(%rdi),%xmm2
  40406d:	f3 0f 6f 5f 30       	movdqu 0x30(%rdi),%xmm3
  404072:	f3 0f 7f 06          	movdqu %xmm0,(%rsi)
  404076:	f3 0f 7f 4e 10       	movdqu %xmm1,0x10(%rsi)
  40407b:	f3 0f 7f 56 20       	movdqu %xmm2,0x20(%rsi)
  404080:	f3 0f 7f 5e 30       	movdqu %xmm3,0x30(%rsi)
  404085:	48 83 ea 40          	sub    $0x40,%rdx
  404089:	48 83 c6 40          	add    $0x40,%rsi
  40408d:	48 83 c7 40          	add    $0x40,%rdi
  404091:	f3 0f 6f 07          	movdqu (%rdi),%xmm0
  404095:	f3 0f 6f 4f 10       	movdqu 0x10(%rdi),%xmm1
  40409a:	f3 0f 6f 57 20       	movdqu 0x20(%rdi),%xmm2
  40409f:	f3 0f 6f 5f 30       	movdqu 0x30(%rdi),%xmm3
  4040a4:	f3 0f 7f 06          	movdqu %xmm0,(%rsi)
  4040a8:	f3 0f 7f 4e 10       	movdqu %xmm1,0x10(%rsi)
  4040ad:	f3 0f 7f 56 20       	movdqu %xmm2,0x20(%rsi)
  4040b2:	f3 0f 7f 5e 30       	movdqu %xmm3,0x30(%rsi)
  4040b7:	48 83 ea 40          	sub    $0x40,%rdx
  4040bb:	48 83 c6 40          	add    $0x40,%rsi
  4040bf:	48 83 c7 40          	add    $0x40,%rdi
  4040c3:	f3 0f 6f 07          	movdqu (%rdi),%xmm0
  4040c7:	f3 0f 6f 4f 10       	movdqu 0x10(%rdi),%xmm1
  4040cc:	f3 0f 6f 57 20       	movdqu 0x20(%rdi),%xmm2
  4040d1:	f3 0f 6f 5f 30       	movdqu 0x30(%rdi),%xmm3
  4040d6:	f3 0f 7f 06          	movdqu %xmm0,(%rsi)
  4040da:	f3 0f 7f 4e 10       	movdqu %xmm1,0x10(%rsi)
  4040df:	f3 0f 7f 56 20       	movdqu %xmm2,0x20(%rsi)
  4040e4:	f3 0f 7f 5e 30       	movdqu %xmm3,0x30(%rsi)
  4040e9:	48 83 ea 40          	sub    $0x40,%rdx
  4040ed:	48 83 c6 40          	add    $0x40,%rsi
  4040f1:	48 83 c7 40          	add    $0x40,%rdi
  4040f5:	e9 ba fd ff ff       	jmp    403eb4 <memcpy+0x164>
  4040fa:	48 89 cf             	mov    %rcx,%rdi
  4040fd:	48 89 c6             	mov    %rax,%rsi
  404100:	eb 8f                	jmp    404091 <memcpy+0x341>
  404102:	66 66 2e 0f 1f 84 00 	data16 cs nopw 0x0(%rax,%rax,1)
  404109:	00 00 00 00 
  40410d:	0f 1f 00             	nopl   (%rax)

0000000000404110 <memcmp>:
  404110:	f3 0f 1e fa          	endbr64 
  404114:	0f b6 06             	movzbl (%rsi),%eax
  404117:	38 07                	cmp    %al,(%rdi)
  404119:	b8 00 00 00 00       	mov    $0x0,%eax
  40411e:	75 0d                	jne    40412d <memcmp+0x1d>
  404120:	48 83 c0 01          	add    $0x1,%rax
  404124:	0f b6 0c 06          	movzbl (%rsi,%rax,1),%ecx
  404128:	38 0c 07             	cmp    %cl,(%rdi,%rax,1)
  40412b:	74 f3                	je     404120 <memcmp+0x10>
  40412d:	48 39 c2             	cmp    %rax,%rdx
  404130:	0f 95 c0             	setne  %al
  404133:	0f b6 c0             	movzbl %al,%eax
  404136:	f7 d8                	neg    %eax
  404138:	c3                   	ret    
  404139:	0f 1f 80 00 00 00 00 	nopl   0x0(%rax)

0000000000404140 <platformGetCoreApicID>:
  404140:	f3 0f 1e fa          	endbr64 
  404144:	b8 01 00 00 00       	mov    $0x1,%eax
  404149:	48 87 de             	xchg   %rbx,%rsi
  40414c:	0f a2                	cpuid  
  40414e:	48 87 de             	xchg   %rbx,%rsi
  404151:	c1 ee 18             	shr    $0x18,%esi
  404154:	89 f0                	mov    %esi,%eax
  404156:	c3                   	ret    
  404157:	66 0f 1f 84 00 00 00 	nopw   0x0(%rax,%rax,1)
  40415e:	00 00 

0000000000404160 <makeGDTEntry>:
  404160:	f3 0f 1e fa          	endbr64 
  404164:	48 8d 0d f9 ff ff ff 	lea    -0x7(%rip),%rcx        # 404164 <makeGDTEntry+0x4>
  40416b:	89 d0                	mov    %edx,%eax
  40416d:	40 0f b6 ff          	movzbl %dil,%edi
  404171:	83 e6 03             	and    $0x3,%esi
  404174:	49 bb 3c 8d 01 00 00 	movabs $0x18d3c,%r11
  40417b:	00 00 00 
  40417e:	c1 e6 05             	shl    $0x5,%esi
  404181:	48 ba 40 de fe ff ff 	movabs $0xfffffffffffede40,%rdx
  404188:	ff ff ff 
  40418b:	4c 01 d9             	add    %r11,%rcx
  40418e:	0f b6 14 0a          	movzbl (%rdx,%rcx,1),%edx
  404192:	48 8d 14 92          	lea    (%rdx,%rdx,4),%rdx
  404196:	48 8d 3c 97          	lea    (%rdi,%rdx,4),%rdi
  40419a:	48 ba 60 ee fe ff ff 	movabs $0xfffffffffffeee60,%rdx
  4041a1:	ff ff ff 
  4041a4:	48 01 ca             	add    %rcx,%rdx
  4041a7:	48 8d 0c fa          	lea    (%rdx,%rdi,8),%rcx
  4041ab:	89 c2                	mov    %eax,%edx
  4041ad:	c1 e8 03             	shr    $0x3,%eax
  4041b0:	83 e2 0f             	and    $0xf,%edx
  4041b3:	83 e0 01             	and    $0x1,%eax
  4041b6:	80 ca 90             	or     $0x90,%dl
  4041b9:	c1 e0 0d             	shl    $0xd,%eax
  4041bc:	09 d6                	or     %edx,%esi
  4041be:	09 c6                	or     %eax,%esi
  4041c0:	0f b7 41 05          	movzwl 0x5(%rcx),%eax
  4041c4:	66 25 00 df          	and    $0xdf00,%ax
  4041c8:	09 c6                	or     %eax,%esi
  4041ca:	66 89 71 05          	mov    %si,0x5(%rcx)
  4041ce:	c3                   	ret    
  4041cf:	90                   	nop

00000000004041d0 <makeGDTSSEntry>:
  4041d0:	f3 0f 1e fa          	endbr64 
  4041d4:	4c 8d 0d f9 ff ff ff 	lea    -0x7(%rip),%r9        # 4041d4 <makeGDTSSEntry+0x4>
  4041db:	41 89 c8             	mov    %ecx,%r8d
  4041de:	40 0f b6 ff          	movzbl %dil,%edi
  4041e2:	48 89 f0             	mov    %rsi,%rax
  4041e5:	49 bb cc 8c 01 00 00 	movabs $0x18ccc,%r11
  4041ec:	00 00 00 
  4041ef:	41 83 e0 0f          	and    $0xf,%r8d
  4041f3:	48 b9 40 de fe ff ff 	movabs $0xfffffffffffede40,%rcx
  4041fa:	ff ff ff 
  4041fd:	4d 01 d9             	add    %r11,%r9
  404200:	41 80 c8 80          	or     $0x80,%r8b
  404204:	41 0f b6 0c 09       	movzbl (%r9,%rcx,1),%ecx
  404209:	48 8d 0c 89          	lea    (%rcx,%rcx,4),%rcx
  40420d:	48 c1 e1 02          	shl    $0x2,%rcx
  404211:	48 8d 74 79 04       	lea    0x4(%rcx,%rdi,2),%rsi
  404216:	48 b9 60 ee fe ff ff 	movabs $0xfffffffffffeee60,%rcx
  40421d:	ff ff ff 
  404220:	4c 01 c9             	add    %r9,%rcx
  404223:	48 8d 0c f1          	lea    (%rcx,%rsi,8),%rcx
  404227:	66 89 11             	mov    %dx,(%rcx)
  40422a:	c1 ea 10             	shr    $0x10,%edx
  40422d:	0f b7 71 05          	movzwl 0x5(%rcx),%esi
  404231:	83 e2 0f             	and    $0xf,%edx
  404234:	66 89 41 02          	mov    %ax,0x2(%rcx)
  404238:	c1 e2 08             	shl    $0x8,%edx
  40423b:	66 81 e6 00 f0       	and    $0xf000,%si
  404240:	44 09 c2             	or     %r8d,%edx
  404243:	09 f2                	or     %esi,%edx
  404245:	66 89 51 05          	mov    %dx,0x5(%rcx)
  404249:	48 89 c2             	mov    %rax,%rdx
  40424c:	48 c1 ea 10          	shr    $0x10,%rdx
  404250:	88 51 04             	mov    %dl,0x4(%rcx)
  404253:	48 89 c2             	mov    %rax,%rdx
  404256:	48 c1 e8 20          	shr    $0x20,%rax
  40425a:	48 c1 ea 18          	shr    $0x18,%rdx
  40425e:	89 41 08             	mov    %eax,0x8(%rcx)
  404261:	88 51 07             	mov    %dl,0x7(%rcx)
  404264:	c3                   	ret    
  404265:	66 66 2e 0f 1f 84 00 	data16 cs nopw 0x0(%rax,%rax,1)
  40426c:	00 00 00 00 

0000000000404270 <registerInterrupt>:
  404270:	f3 0f 1e fa          	endbr64 
  404274:	48 89 f0             	mov    %rsi,%rax
  404277:	41 89 ca             	mov    %ecx,%r10d
  40427a:	4c 8d 0d f3 ff ff ff 	lea    -0xd(%rip),%r9        # 404274 <registerInterrupt+0x4>
  404281:	89 d1                	mov    %edx,%ecx
  404283:	c1 e1 10             	shl    $0x10,%ecx
  404286:	0f b7 d0             	movzwl %ax,%edx
  404289:	40 0f b6 ff          	movzbl %dil,%edi
  40428d:	41 83 e2 07          	and    $0x7,%r10d
  404291:	49 bb 2c 8c 01 00 00 	movabs $0x18c2c,%r11
  404298:	00 00 00 
  40429b:	48 c1 e7 04          	shl    $0x4,%rdi
  40429f:	09 ca                	or     %ecx,%edx
  4042a1:	31 c9                	xor    %ecx,%ecx
  4042a3:	4d 01 d9             	add    %r11,%r9
  4042a6:	53                   	push   %rbx
  4042a7:	44 88 d1             	mov    %r10b,%cl
  4042aa:	44 89 c3             	mov    %r8d,%ebx
  4042ad:	48 be 60 de fe ff ff 	movabs $0xfffffffffffede60,%rsi
  4042b4:	ff ff ff 
  4042b7:	88 dd                	mov    %bl,%ch
  4042b9:	4d 8d 1c 31          	lea    (%r9,%rsi,1),%r11
  4042bd:	42 89 14 1f          	mov    %edx,(%rdi,%r11,1)
  4042c1:	48 ba 64 de fe ff ff 	movabs $0xfffffffffffede64,%rdx
  4042c8:	ff ff ff 
  4042cb:	4c 01 ca             	add    %r9,%rdx
  4042ce:	66 89 0c 17          	mov    %cx,(%rdi,%rdx,1)
  4042d2:	48 89 c2             	mov    %rax,%rdx
  4042d5:	4c 01 cf             	add    %r9,%rdi
  4042d8:	48 c1 e8 20          	shr    $0x20,%rax
  4042dc:	48 01 f7             	add    %rsi,%rdi
  4042df:	48 c1 ea 10          	shr    $0x10,%rdx
  4042e3:	66 89 57 06          	mov    %dx,0x6(%rdi)
  4042e7:	89 47 08             	mov    %eax,0x8(%rdi)
  4042ea:	5b                   	pop    %rbx
  4042eb:	c3                   	ret    
  4042ec:	0f 1f 40 00          	nopl   0x0(%rax)

00000000004042f0 <loadDT>:
  4042f0:	f3 0f 1e fa          	endbr64 
  4042f4:	0f 01 15 cd 8b 01 00 	lgdt   0x18bcd(%rip)        # 41cec8 <gdtr>
  4042fb:	48 c7 c0 00 00 00 00 	mov    $0x0,%rax
  404302:	8e d8                	mov    %eax,%ds
  404304:	8e c0                	mov    %eax,%es
  404306:	8e e0                	mov    %eax,%fs
  404308:	8e e8                	mov    %eax,%gs
  40430a:	48 c7 c0 00 00 00 00 	mov    $0x0,%rax
  404311:	8e d0                	mov    %eax,%ss
  404313:	6a 08                	push   $0x8
  404315:	48 8d 05 03 00 00 00 	lea    0x3(%rip),%rax        # 40431f <loadDT+0x2f>
  40431c:	50                   	push   %rax
  40431d:	48 cb                	lretq  
  40431f:	0f 01 1d 92 8b 01 00 	lidt   0x18b92(%rip)        # 41ceb8 <idtr>
  404326:	c3                   	ret    
  404327:	66 0f 1f 84 00 00 00 	nopw   0x0(%rax,%rax,1)
  40432e:	00 00 

0000000000404330 <platformTryHandleException>:
  404330:	f3 0f 1e fa          	endbr64 
  404334:	41 57                	push   %r15
  404336:	48 8b 4f 78          	mov    0x78(%rdi),%rcx
  40433a:	b8 01 00 00 00       	mov    $0x1,%eax
  40433f:	4c 8d 3d ee ff ff ff 	lea    -0x12(%rip),%r15        # 404334 <platformTryHandleException+0x4>
  404346:	49 bb 6c 8b 01 00 00 	movabs $0x18b6c,%r11
  40434d:	00 00 00 
  404350:	4d 01 df             	add    %r11,%r15
  404353:	48 83 f9 1f          	cmp    $0x1f,%rcx
  404357:	77 2e                	ja     404387 <platformTryHandleException+0x57>
  404359:	48 89 fe             	mov    %rdi,%rsi
  40435c:	48 83 f9 13          	cmp    $0x13,%rcx
  404360:	77 4e                	ja     4043b0 <platformTryHandleException+0x80>
  404362:	b8 01 00 00 00       	mov    $0x1,%eax
  404367:	bf 02 00 00 00       	mov    $0x2,%edi
  40436c:	48 d3 e0             	shl    %cl,%rax
  40436f:	a9 e1 7c 0b 00       	test   $0xb7ce1,%eax
  404374:	74 1a                	je     404390 <platformTryHandleException+0x60>
  404376:	48 b8 f0 b6 fe ff ff 	movabs $0xfffffffffffeb6f0,%rax
  40437d:	ff ff ff 
  404380:	4c 01 f8             	add    %r15,%rax
  404383:	ff d0                	call   *%rax
  404385:	31 c0                	xor    %eax,%eax
  404387:	41 5f                	pop    %r15
  404389:	c3                   	ret    
  40438a:	66 0f 1f 44 00 00    	nopw   0x0(%rax,%rax,1)
  404390:	bf 01 00 00 00       	mov    $0x1,%edi
  404395:	a8 1a                	test   $0x1a,%al
  404397:	75 dd                	jne    404376 <platformTryHandleException+0x46>
  404399:	25 00 01 04 00       	and    $0x40100,%eax
  40439e:	48 f7 d8             	neg    %rax
  4043a1:	19 ff                	sbb    %edi,%edi
  4043a3:	83 e7 03             	and    $0x3,%edi
  4043a6:	eb ce                	jmp    404376 <platformTryHandleException+0x46>
  4043a8:	0f 1f 84 00 00 00 00 	nopl   0x0(%rax,%rax,1)
  4043af:	00 
  4043b0:	31 ff                	xor    %edi,%edi
  4043b2:	eb c2                	jmp    404376 <platformTryHandleException+0x46>
  4043b4:	66 2e 0f 1f 84 00 00 	cs nopw 0x0(%rax,%rax,1)
  4043bb:	00 00 00 
  4043be:	66 90                	xchg   %ax,%ax

00000000004043c0 <registerInterruptHandlers>:
  4043c0:	f3 0f 1e fa          	endbr64 
  4043c4:	41 57                	push   %r15
  4043c6:	4c 8d 3d f7 ff ff ff 	lea    -0x9(%rip),%r15        # 4043c4 <registerInterruptHandlers+0x4>
  4043cd:	31 c9                	xor    %ecx,%ecx
  4043cf:	31 ff                	xor    %edi,%edi
  4043d1:	53                   	push   %rbx
  4043d2:	41 b8 8f 00 00 00    	mov    $0x8f,%r8d
  4043d8:	ba 08 00 00 00       	mov    $0x8,%edx
  4043dd:	49 bb dc 8a 01 00 00 	movabs $0x18adc,%r11
  4043e4:	00 00 00 
  4043e7:	48 b8 f8 fb ff ff ff 	movabs $0xfffffffffffffbf8,%rax
  4043ee:	ff ff ff 
  4043f1:	4d 01 df             	add    %r11,%r15
  4043f4:	48 bb d0 73 fe ff ff 	movabs $0xfffffffffffe73d0,%rbx
  4043fb:	ff ff ff 
  4043fe:	4c 01 fb             	add    %r15,%rbx
  404401:	48 83 ec 08          	sub    $0x8,%rsp
  404405:	49 8b 34 07          	mov    (%r15,%rax,1),%rsi
  404409:	ff d3                	call   *%rbx
  40440b:	31 c9                	xor    %ecx,%ecx
  40440d:	41 b8 8f 00 00 00    	mov    $0x8f,%r8d
  404413:	ba 08 00 00 00       	mov    $0x8,%edx
  404418:	48 b8 c8 fe ff ff ff 	movabs $0xfffffffffffffec8,%rax
  40441f:	ff ff ff 
  404422:	bf 01 00 00 00       	mov    $0x1,%edi
  404427:	49 8b 34 07          	mov    (%r15,%rax,1),%rsi
  40442b:	ff d3                	call   *%rbx
  40442d:	31 c9                	xor    %ecx,%ecx
  40442f:	41 b8 8f 00 00 00    	mov    $0x8f,%r8d
  404435:	ba 08 00 00 00       	mov    $0x8,%edx
  40443a:	48 b8 c0 f8 ff ff ff 	movabs $0xfffffffffffff8c0,%rax
  404441:	ff ff ff 
  404444:	bf 03 00 00 00       	mov    $0x3,%edi
  404449:	49 8b 34 07          	mov    (%r15,%rax,1),%rsi
  40444d:	ff d3                	call   *%rbx
  40444f:	31 c9                	xor    %ecx,%ecx
  404451:	41 b8 8f 00 00 00    	mov    $0x8f,%r8d
  404457:	ba 08 00 00 00       	mov    $0x8,%edx
  40445c:	48 b8 00 f8 ff ff ff 	movabs $0xfffffffffffff800,%rax
  404463:	ff ff ff 
  404466:	bf 04 00 00 00       	mov    $0x4,%edi
  40446b:	49 8b 34 07          	mov    (%r15,%rax,1),%rsi
  40446f:	ff d3                	call   *%rbx
  404471:	31 c9                	xor    %ecx,%ecx
  404473:	41 b8 8f 00 00 00    	mov    $0x8f,%r8d
  404479:	ba 08 00 00 00       	mov    $0x8,%edx
  40447e:	48 b8 88 fa ff ff ff 	movabs $0xfffffffffffffa88,%rax
  404485:	ff ff ff 
  404488:	bf 05 00 00 00       	mov    $0x5,%edi
  40448d:	49 8b 34 07          	mov    (%r15,%rax,1),%rsi
  404491:	ff d3                	call   *%rbx
  404493:	31 c9                	xor    %ecx,%ecx
  404495:	41 b8 8f 00 00 00    	mov    $0x8f,%r8d
  40449b:	ba 08 00 00 00       	mov    $0x8,%edx
  4044a0:	48 b8 f0 f9 ff ff ff 	movabs $0xfffffffffffff9f0,%rax
  4044a7:	ff ff ff 
  4044aa:	bf 06 00 00 00       	mov    $0x6,%edi
  4044af:	49 8b 34 07          	mov    (%r15,%rax,1),%rsi
  4044b3:	ff d3                	call   *%rbx
  4044b5:	31 c9                	xor    %ecx,%ecx
  4044b7:	41 b8 8f 00 00 00    	mov    $0x8f,%r8d
  4044bd:	ba 08 00 00 00       	mov    $0x8,%edx
  4044c2:	48 b8 80 fc ff ff ff 	movabs $0xfffffffffffffc80,%rax
  4044c9:	ff ff ff 
  4044cc:	bf 07 00 00 00       	mov    $0x7,%edi
  4044d1:	49 8b 34 07          	mov    (%r15,%rax,1),%rsi
  4044d5:	ff d3                	call   *%rbx
  4044d7:	31 c9                	xor    %ecx,%ecx
  4044d9:	41 b8 8f 00 00 00    	mov    $0x8f,%r8d
  4044df:	ba 08 00 00 00       	mov    $0x8,%edx
  4044e4:	48 b8 90 f9 ff ff ff 	movabs $0xfffffffffffff990,%rax
  4044eb:	ff ff ff 
  4044ee:	bf 08 00 00 00       	mov    $0x8,%edi
  4044f3:	49 8b 34 07          	mov    (%r15,%rax,1),%rsi
  4044f7:	ff d3                	call   *%rbx
  4044f9:	31 c9                	xor    %ecx,%ecx
  4044fb:	41 b8 8f 00 00 00    	mov    $0x8f,%r8d
  404501:	ba 08 00 00 00       	mov    $0x8,%edx
  404506:	48 b8 28 fb ff ff ff 	movabs $0xfffffffffffffb28,%rax
  40450d:	ff ff ff 
  404510:	bf 0a 00 00 00       	mov    $0xa,%edi
  404515:	49 8b 34 07          	mov    (%r15,%rax,1),%rsi
  404519:	ff d3                	call   *%rbx
  40451b:	31 c9                	xor    %ecx,%ecx
  40451d:	41 b8 8f 00 00 00    	mov    $0x8f,%r8d
  404523:	ba 08 00 00 00       	mov    $0x8,%edx
  404528:	48 b8 88 fb ff ff ff 	movabs $0xfffffffffffffb88,%rax
  40452f:	ff ff ff 
  404532:	bf 0b 00 00 00       	mov    $0xb,%edi
  404537:	49 8b 34 07          	mov    (%r15,%rax,1),%rsi
  40453b:	ff d3                	call   *%rbx
  40453d:	31 c9                	xor    %ecx,%ecx
  40453f:	41 b8 8f 00 00 00    	mov    $0x8f,%r8d
  404545:	ba 08 00 00 00       	mov    $0x8,%edx
  40454a:	48 b8 a0 f8 ff ff ff 	movabs $0xfffffffffffff8a0,%rax
  404551:	ff ff ff 
  404554:	bf 0c 00 00 00       	mov    $0xc,%edi
  404559:	49 8b 34 07          	mov    (%r15,%rax,1),%rsi
  40455d:	ff d3                	call   *%rbx
  40455f:	31 c9                	xor    %ecx,%ecx
  404561:	41 b8 8f 00 00 00    	mov    $0x8f,%r8d
  404567:	ba 08 00 00 00       	mov    $0x8,%edx
  40456c:	48 b8 e8 f8 ff ff ff 	movabs $0xfffffffffffff8e8,%rax
  404573:	ff ff ff 
  404576:	bf 0d 00 00 00       	mov    $0xd,%edi
  40457b:	49 8b 34 07          	mov    (%r15,%rax,1),%rsi
  40457f:	ff d3                	call   *%rbx
  404581:	31 c9                	xor    %ecx,%ecx
  404583:	41 b8 8f 00 00 00    	mov    $0x8f,%r8d
  404589:	ba 08 00 00 00       	mov    $0x8,%edx
  40458e:	48 b8 e8 fd ff ff ff 	movabs $0xfffffffffffffde8,%rax
  404595:	ff ff ff 
  404598:	bf 0e 00 00 00       	mov    $0xe,%edi
  40459d:	49 8b 34 07          	mov    (%r15,%rax,1),%rsi
  4045a1:	ff d3                	call   *%rbx
  4045a3:	41 b8 8f 00 00 00    	mov    $0x8f,%r8d
  4045a9:	31 c9                	xor    %ecx,%ecx
  4045ab:	ba 08 00 00 00       	mov    $0x8,%edx
  4045b0:	48 b8 20 fa ff ff ff 	movabs $0xfffffffffffffa20,%rax
  4045b7:	ff ff ff 
  4045ba:	bf 10 00 00 00       	mov    $0x10,%edi
  4045bf:	49 8b 34 07          	mov    (%r15,%rax,1),%rsi
  4045c3:	ff d3                	call   *%rbx
  4045c5:	31 c9                	xor    %ecx,%ecx
  4045c7:	41 b8 8f 00 00 00    	mov    $0x8f,%r8d
  4045cd:	ba 08 00 00 00       	mov    $0x8,%edx
  4045d2:	48 b8 40 f9 ff ff ff 	movabs $0xfffffffffffff940,%rax
  4045d9:	ff ff ff 
  4045dc:	bf 11 00 00 00       	mov    $0x11,%edi
  4045e1:	49 8b 34 07          	mov    (%r15,%rax,1),%rsi
  4045e5:	ff d3                	call   *%rbx
  4045e7:	31 c9                	xor    %ecx,%ecx
  4045e9:	41 b8 8f 00 00 00    	mov    $0x8f,%r8d
  4045ef:	ba 08 00 00 00       	mov    $0x8,%edx
  4045f4:	48 b8 d8 fb ff ff ff 	movabs $0xfffffffffffffbd8,%rax
  4045fb:	ff ff ff 
  4045fe:	bf 12 00 00 00       	mov    $0x12,%edi
  404603:	49 8b 34 07          	mov    (%r15,%rax,1),%rsi
  404607:	ff d3                	call   *%rbx
  404609:	31 c9                	xor    %ecx,%ecx
  40460b:	41 b8 8f 00 00 00    	mov    $0x8f,%r8d
  404611:	ba 08 00 00 00       	mov    $0x8,%edx
  404616:	48 b8 c0 fc ff ff ff 	movabs $0xfffffffffffffcc0,%rax
  40461d:	ff ff ff 
  404620:	bf 13 00 00 00       	mov    $0x13,%edi
  404625:	49 8b 34 07          	mov    (%r15,%rax,1),%rsi
  404629:	ff d3                	call   *%rbx
  40462b:	31 c9                	xor    %ecx,%ecx
  40462d:	41 b8 8e 00 00 00    	mov    $0x8e,%r8d
  404633:	ba 08 00 00 00       	mov    $0x8,%edx
  404638:	48 b8 78 ff ff ff ff 	movabs $0xffffffffffffff78,%rax
  40463f:	ff ff ff 
  404642:	bf 14 00 00 00       	mov    $0x14,%edi
  404647:	49 8b 34 07          	mov    (%r15,%rax,1),%rsi
  40464b:	ff d3                	call   *%rbx
  40464d:	31 c9                	xor    %ecx,%ecx
  40464f:	41 b8 8e 00 00 00    	mov    $0x8e,%r8d
  404655:	ba 08 00 00 00       	mov    $0x8,%edx
  40465a:	48 b8 a8 fe ff ff ff 	movabs $0xfffffffffffffea8,%rax
  404661:	ff ff ff 
  404664:	bf 15 00 00 00       	mov    $0x15,%edi
  404669:	49 8b 34 07          	mov    (%r15,%rax,1),%rsi
  40466d:	ff d3                	call   *%rbx
  40466f:	31 c9                	xor    %ecx,%ecx
  404671:	41 b8 8e 00 00 00    	mov    $0x8e,%r8d
  404677:	ba 08 00 00 00       	mov    $0x8,%edx
  40467c:	48 b8 78 f9 ff ff ff 	movabs $0xfffffffffffff978,%rax
  404683:	ff ff ff 
  404686:	bf 16 00 00 00       	mov    $0x16,%edi
  40468b:	49 8b 34 07          	mov    (%r15,%rax,1),%rsi
  40468f:	ff d3                	call   *%rbx
  404691:	31 c9                	xor    %ecx,%ecx
  404693:	41 b8 8e 00 00 00    	mov    $0x8e,%r8d
  404699:	ba 08 00 00 00       	mov    $0x8,%edx
  40469e:	48 b8 d8 fc ff ff ff 	movabs $0xfffffffffffffcd8,%rax
  4046a5:	ff ff ff 
  4046a8:	bf 17 00 00 00       	mov    $0x17,%edi
  4046ad:	49 8b 34 07          	mov    (%r15,%rax,1),%rsi
  4046b1:	ff d3                	call   *%rbx
  4046b3:	31 c9                	xor    %ecx,%ecx
  4046b5:	41 b8 8e 00 00 00    	mov    $0x8e,%r8d
  4046bb:	ba 08 00 00 00       	mov    $0x8,%edx
  4046c0:	48 b8 90 ff ff ff ff 	movabs $0xffffffffffffff90,%rax
  4046c7:	ff ff ff 
  4046ca:	bf 18 00 00 00       	mov    $0x18,%edi
  4046cf:	49 8b 34 07          	mov    (%r15,%rax,1),%rsi
  4046d3:	ff d3                	call   *%rbx
  4046d5:	31 c9                	xor    %ecx,%ecx
  4046d7:	41 b8 8e 00 00 00    	mov    $0x8e,%r8d
  4046dd:	ba 08 00 00 00       	mov    $0x8,%edx
  4046e2:	48 b8 d8 fe ff ff ff 	movabs $0xfffffffffffffed8,%rax
  4046e9:	ff ff ff 
  4046ec:	bf 19 00 00 00       	mov    $0x19,%edi
  4046f1:	49 8b 34 07          	mov    (%r15,%rax,1),%rsi
  4046f5:	ff d3                	call   *%rbx
  4046f7:	31 c9                	xor    %ecx,%ecx
  4046f9:	41 b8 8e 00 00 00    	mov    $0x8e,%r8d
  4046ff:	ba 08 00 00 00       	mov    $0x8,%edx
  404704:	48 b8 f8 fe ff ff ff 	movabs $0xfffffffffffffef8,%rax
  40470b:	ff ff ff 
  40470e:	bf 1a 00 00 00       	mov    $0x1a,%edi
  404713:	49 8b 34 07          	mov    (%r15,%rax,1),%rsi
  404717:	ff d3                	call   *%rbx
  404719:	31 c9                	xor    %ecx,%ecx
  40471b:	41 b8 8e 00 00 00    	mov    $0x8e,%r8d
  404721:	ba 08 00 00 00       	mov    $0x8,%edx
  404726:	48 b8 c8 fb ff ff ff 	movabs $0xfffffffffffffbc8,%rax
  40472d:	ff ff ff 
  404730:	bf 1b 00 00 00       	mov    $0x1b,%edi
  404735:	49 8b 34 07          	mov    (%r15,%rax,1),%rsi
  404739:	ff d3                	call   *%rbx
  40473b:	31 c9                	xor    %ecx,%ecx
  40473d:	41 b8 8e 00 00 00    	mov    $0x8e,%r8d
  404743:	ba 08 00 00 00       	mov    $0x8,%edx
  404748:	48 b8 a0 fd ff ff ff 	movabs $0xfffffffffffffda0,%rax
  40474f:	ff ff ff 
  404752:	bf 1c 00 00 00       	mov    $0x1c,%edi
  404757:	49 8b 34 07          	mov    (%r15,%rax,1),%rsi
  40475b:	ff d3                	call   *%rbx
  40475d:	31 c9                	xor    %ecx,%ecx
  40475f:	41 b8 8e 00 00 00    	mov    $0x8e,%r8d
  404765:	ba 08 00 00 00       	mov    $0x8,%edx
  40476a:	48 b8 a8 fa ff ff ff 	movabs $0xfffffffffffffaa8,%rax
  404771:	ff ff ff 
  404774:	bf 1d 00 00 00       	mov    $0x1d,%edi
  404779:	49 8b 34 07          	mov    (%r15,%rax,1),%rsi
  40477d:	ff d3                	call   *%rbx
  40477f:	31 c9                	xor    %ecx,%ecx
  404781:	41 b8 8e 00 00 00    	mov    $0x8e,%r8d
  404787:	ba 08 00 00 00       	mov    $0x8,%edx
  40478c:	48 b8 f0 fa ff ff ff 	movabs $0xfffffffffffffaf0,%rax
  404793:	ff ff ff 
  404796:	bf 1e 00 00 00       	mov    $0x1e,%edi
  40479b:	49 8b 34 07          	mov    (%r15,%rax,1),%rsi
  40479f:	ff d3                	call   *%rbx
  4047a1:	31 c9                	xor    %ecx,%ecx
  4047a3:	41 b8 8e 00 00 00    	mov    $0x8e,%r8d
  4047a9:	ba 08 00 00 00       	mov    $0x8,%edx
  4047ae:	48 b8 50 f8 ff ff ff 	movabs $0xfffffffffffff850,%rax
  4047b5:	ff ff ff 
  4047b8:	bf 1f 00 00 00       	mov    $0x1f,%edi
  4047bd:	49 8b 34 07          	mov    (%r15,%rax,1),%rsi
  4047c1:	ff d3                	call   *%rbx
  4047c3:	41 b8 8e 00 00 00    	mov    $0x8e,%r8d
  4047c9:	31 c9                	xor    %ecx,%ecx
  4047cb:	ba 08 00 00 00       	mov    $0x8,%edx
  4047d0:	48 b8 10 fb ff ff ff 	movabs $0xfffffffffffffb10,%rax
  4047d7:	ff ff ff 
  4047da:	bf 20 00 00 00       	mov    $0x20,%edi
  4047df:	49 8b 34 07          	mov    (%r15,%rax,1),%rsi
  4047e3:	ff d3                	call   *%rbx
  4047e5:	31 c9                	xor    %ecx,%ecx
  4047e7:	41 b8 8e 00 00 00    	mov    $0x8e,%r8d
  4047ed:	ba 08 00 00 00       	mov    $0x8,%edx
  4047f2:	48 b8 c8 fa ff ff ff 	movabs $0xfffffffffffffac8,%rax
  4047f9:	ff ff ff 
  4047fc:	bf 21 00 00 00       	mov    $0x21,%edi
  404801:	49 8b 34 07          	mov    (%r15,%rax,1),%rsi
  404805:	ff d3                	call   *%rbx
  404807:	31 c9                	xor    %ecx,%ecx
  404809:	41 b8 8e 00 00 00    	mov    $0x8e,%r8d
  40480f:	ba 08 00 00 00       	mov    $0x8,%edx
  404814:	48 b8 80 fd ff ff ff 	movabs $0xfffffffffffffd80,%rax
  40481b:	ff ff ff 
  40481e:	bf 22 00 00 00       	mov    $0x22,%edi
  404823:	49 8b 34 07          	mov    (%r15,%rax,1),%rsi
  404827:	ff d3                	call   *%rbx
  404829:	31 c9                	xor    %ecx,%ecx
  40482b:	41 b8 8e 00 00 00    	mov    $0x8e,%r8d
  404831:	ba 08 00 00 00       	mov    $0x8,%edx
  404836:	48 b8 90 fc ff ff ff 	movabs $0xfffffffffffffc90,%rax
  40483d:	ff ff ff 
  404840:	bf 23 00 00 00       	mov    $0x23,%edi
  404845:	49 8b 34 07          	mov    (%r15,%rax,1),%rsi
  404849:	ff d3                	call   *%rbx
  40484b:	31 c9                	xor    %ecx,%ecx
  40484d:	41 b8 8e 00 00 00    	mov    $0x8e,%r8d
  404853:	ba 08 00 00 00       	mov    $0x8,%edx
  404858:	48 b8 60 ff ff ff ff 	movabs $0xffffffffffffff60,%rax
  40485f:	ff ff ff 
  404862:	bf 24 00 00 00       	mov    $0x24,%edi
  404867:	49 8b 34 07          	mov    (%r15,%rax,1),%rsi
  40486b:	ff d3                	call   *%rbx
  40486d:	31 c9                	xor    %ecx,%ecx
  40486f:	41 b8 8e 00 00 00    	mov    $0x8e,%r8d
  404875:	ba 08 00 00 00       	mov    $0x8,%edx
  40487a:	48 b8 b8 fe ff ff ff 	movabs $0xfffffffffffffeb8,%rax
  404881:	ff ff ff 
  404884:	bf 25 00 00 00       	mov    $0x25,%edi
  404889:	49 8b 34 07          	mov    (%r15,%rax,1),%rsi
  40488d:	ff d3                	call   *%rbx
  40488f:	31 c9                	xor    %ecx,%ecx
  404891:	41 b8 8e 00 00 00    	mov    $0x8e,%r8d
  404897:	ba 08 00 00 00       	mov    $0x8,%edx
  40489c:	48 b8 58 f9 ff ff ff 	movabs $0xfffffffffffff958,%rax
  4048a3:	ff ff ff 
  4048a6:	bf 26 00 00 00       	mov    $0x26,%edi
  4048ab:	49 8b 34 07          	mov    (%r15,%rax,1),%rsi
  4048af:	ff d3                	call   *%rbx
  4048b1:	31 c9                	xor    %ecx,%ecx
  4048b3:	41 b8 8e 00 00 00    	mov    $0x8e,%r8d
  4048b9:	ba 08 00 00 00       	mov    $0x8,%edx
  4048be:	48 b8 b0 f8 ff ff ff 	movabs $0xfffffffffffff8b0,%rax
  4048c5:	ff ff ff 
  4048c8:	bf 27 00 00 00       	mov    $0x27,%edi
  4048cd:	49 8b 34 07          	mov    (%r15,%rax,1),%rsi
  4048d1:	ff d3                	call   *%rbx
  4048d3:	31 c9                	xor    %ecx,%ecx
  4048d5:	41 b8 8e 00 00 00    	mov    $0x8e,%r8d
  4048db:	ba 08 00 00 00       	mov    $0x8,%edx
  4048e0:	48 b8 58 fb ff ff ff 	movabs $0xfffffffffffffb58,%rax
  4048e7:	ff ff ff 
  4048ea:	bf 28 00 00 00       	mov    $0x28,%edi
  4048ef:	49 8b 34 07          	mov    (%r15,%rax,1),%rsi
  4048f3:	ff d3                	call   *%rbx
  4048f5:	31 c9                	xor    %ecx,%ecx
  4048f7:	41 b8 8e 00 00 00    	mov    $0x8e,%r8d
  4048fd:	ba 08 00 00 00       	mov    $0x8,%edx
  404902:	48 b8 40 fe ff ff ff 	movabs $0xfffffffffffffe40,%rax
  404909:	ff ff ff 
  40490c:	bf 29 00 00 00       	mov    $0x29,%edi
  404911:	49 8b 34 07          	mov    (%r15,%rax,1),%rsi
  404915:	ff d3                	call   *%rbx
  404917:	31 c9                	xor    %ecx,%ecx
  404919:	41 b8 8e 00 00 00    	mov    $0x8e,%r8d
  40491f:	ba 08 00 00 00       	mov    $0x8,%edx
  404924:	48 b8 f8 fc ff ff ff 	movabs $0xfffffffffffffcf8,%rax
  40492b:	ff ff ff 
  40492e:	bf 2a 00 00 00       	mov    $0x2a,%edi
  404933:	49 8b 34 07          	mov    (%r15,%rax,1),%rsi
  404937:	ff d3                	call   *%rbx
  404939:	31 c9                	xor    %ecx,%ecx
  40493b:	41 b8 8e 00 00 00    	mov    $0x8e,%r8d
  404941:	ba 08 00 00 00       	mov    $0x8,%edx
  404946:	48 b8 e8 f9 ff ff ff 	movabs $0xfffffffffffff9e8,%rax
  40494d:	ff ff ff 
  404950:	bf 2b 00 00 00       	mov    $0x2b,%edi
  404955:	49 8b 34 07          	mov    (%r15,%rax,1),%rsi
  404959:	ff d3                	call   *%rbx
  40495b:	31 c9                	xor    %ecx,%ecx
  40495d:	41 b8 8e 00 00 00    	mov    $0x8e,%r8d
  404963:	ba 08 00 00 00       	mov    $0x8,%edx
  404968:	48 b8 50 fa ff ff ff 	movabs $0xfffffffffffffa50,%rax
  40496f:	ff ff ff 
  404972:	bf 2c 00 00 00       	mov    $0x2c,%edi
  404977:	49 8b 34 07          	mov    (%r15,%rax,1),%rsi
  40497b:	ff d3                	call   *%rbx
  40497d:	31 c9                	xor    %ecx,%ecx
  40497f:	41 b8 8e 00 00 00    	mov    $0x8e,%r8d
  404985:	ba 08 00 00 00       	mov    $0x8,%edx
  40498a:	48 b8 48 ff ff ff ff 	movabs $0xffffffffffffff48,%rax
  404991:	ff ff ff 
  404994:	bf 2d 00 00 00       	mov    $0x2d,%edi
  404999:	49 8b 34 07          	mov    (%r15,%rax,1),%rsi
  40499d:	ff d3                	call   *%rbx
  40499f:	31 c9                	xor    %ecx,%ecx
  4049a1:	41 b8 8e 00 00 00    	mov    $0x8e,%r8d
  4049a7:	ba 08 00 00 00       	mov    $0x8,%edx
  4049ac:	48 b8 b8 ff ff ff ff 	movabs $0xffffffffffffffb8,%rax
  4049b3:	ff ff ff 
  4049b6:	bf 2e 00 00 00       	mov    $0x2e,%edi
  4049bb:	49 8b 34 07          	mov    (%r15,%rax,1),%rsi
  4049bf:	ff d3                	call   *%rbx
  4049c1:	31 c9                	xor    %ecx,%ecx
  4049c3:	41 b8 8e 00 00 00    	mov    $0x8e,%r8d
  4049c9:	ba 08 00 00 00       	mov    $0x8,%edx
  4049ce:	48 b8 88 fc ff ff ff 	movabs $0xfffffffffffffc88,%rax
  4049d5:	ff ff ff 
  4049d8:	bf 2f 00 00 00       	mov    $0x2f,%edi
  4049dd:	49 8b 34 07          	mov    (%r15,%rax,1),%rsi
  4049e1:	ff d3                	call   *%rbx
  4049e3:	41 b8 8e 00 00 00    	mov    $0x8e,%r8d
  4049e9:	31 c9                	xor    %ecx,%ecx
  4049eb:	ba 08 00 00 00       	mov    $0x8,%edx
  4049f0:	48 b8 48 fd ff ff ff 	movabs $0xfffffffffffffd48,%rax
  4049f7:	ff ff ff 
  4049fa:	bf 30 00 00 00       	mov    $0x30,%edi
  4049ff:	49 8b 34 07          	mov    (%r15,%rax,1),%rsi
  404a03:	ff d3                	call   *%rbx
  404a05:	31 c9                	xor    %ecx,%ecx
  404a07:	41 b8 8e 00 00 00    	mov    $0x8e,%r8d
  404a0d:	ba 08 00 00 00       	mov    $0x8,%edx
  404a12:	48 b8 e0 ff ff ff ff 	movabs $0xffffffffffffffe0,%rax
  404a19:	ff ff ff 
  404a1c:	bf 31 00 00 00       	mov    $0x31,%edi
  404a21:	49 8b 34 07          	mov    (%r15,%rax,1),%rsi
  404a25:	ff d3                	call   *%rbx
  404a27:	31 c9                	xor    %ecx,%ecx
  404a29:	41 b8 8e 00 00 00    	mov    $0x8e,%r8d
  404a2f:	ba 08 00 00 00       	mov    $0x8,%edx
  404a34:	48 b8 08 fe ff ff ff 	movabs $0xfffffffffffffe08,%rax
  404a3b:	ff ff ff 
  404a3e:	bf 32 00 00 00       	mov    $0x32,%edi
  404a43:	49 8b 34 07          	mov    (%r15,%rax,1),%rsi
  404a47:	ff d3                	call   *%rbx
  404a49:	31 c9                	xor    %ecx,%ecx
  404a4b:	41 b8 8e 00 00 00    	mov    $0x8e,%r8d
  404a51:	ba 08 00 00 00       	mov    $0x8,%edx
  404a56:	48 b8 d8 f8 ff ff ff 	movabs $0xfffffffffffff8d8,%rax
  404a5d:	ff ff ff 
  404a60:	bf 33 00 00 00       	mov    $0x33,%edi
  404a65:	49 8b 34 07          	mov    (%r15,%rax,1),%rsi
  404a69:	ff d3                	call   *%rbx
  404a6b:	31 c9                	xor    %ecx,%ecx
  404a6d:	41 b8 8e 00 00 00    	mov    $0x8e,%r8d
  404a73:	ba 08 00 00 00       	mov    $0x8,%edx
  404a78:	48 b8 30 f8 ff ff ff 	movabs $0xfffffffffffff830,%rax
  404a7f:	ff ff ff 
  404a82:	bf 34 00 00 00       	mov    $0x34,%edi
  404a87:	49 8b 34 07          	mov    (%r15,%rax,1),%rsi
  404a8b:	ff d3                	call   *%rbx
  404a8d:	31 c9                	xor    %ecx,%ecx
  404a8f:	41 b8 8e 00 00 00    	mov    $0x8e,%r8d
  404a95:	ba 08 00 00 00       	mov    $0x8,%edx
  404a9a:	48 b8 e0 fa ff ff ff 	movabs $0xfffffffffffffae0,%rax
  404aa1:	ff ff ff 
  404aa4:	bf 35 00 00 00       	mov    $0x35,%edi
  404aa9:	49 8b 34 07          	mov    (%r15,%rax,1),%rsi
  404aad:	ff d3                	call   *%rbx
  404aaf:	31 c9                	xor    %ecx,%ecx
  404ab1:	41 b8 8e 00 00 00    	mov    $0x8e,%r8d
  404ab7:	ba 08 00 00 00       	mov    $0x8,%edx
  404abc:	48 b8 70 fb ff ff ff 	movabs $0xfffffffffffffb70,%rax
  404ac3:	ff ff ff 
  404ac6:	bf 36 00 00 00       	mov    $0x36,%edi
  404acb:	49 8b 34 07          	mov    (%r15,%rax,1),%rsi
  404acf:	ff d3                	call   *%rbx
  404ad1:	31 c9                	xor    %ecx,%ecx
  404ad3:	41 b8 8e 00 00 00    	mov    $0x8e,%r8d
  404ad9:	ba 08 00 00 00       	mov    $0x8,%edx
  404ade:	48 b8 30 fe ff ff ff 	movabs $0xfffffffffffffe30,%rax
  404ae5:	ff ff ff 
  404ae8:	bf 37 00 00 00       	mov    $0x37,%edi
  404aed:	49 8b 34 07          	mov    (%r15,%rax,1),%rsi
  404af1:	ff d3                	call   *%rbx
  404af3:	31 c9                	xor    %ecx,%ecx
  404af5:	41 b8 8e 00 00 00    	mov    $0x8e,%r8d
  404afb:	ba 08 00 00 00       	mov    $0x8,%edx
  404b00:	48 b8 90 fd ff ff ff 	movabs $0xfffffffffffffd90,%rax
  404b07:	ff ff ff 
  404b0a:	bf 38 00 00 00       	mov    $0x38,%edi
  404b0f:	49 8b 34 07          	mov    (%r15,%rax,1),%rsi
  404b13:	ff d3                	call   *%rbx
  404b15:	31 c9                	xor    %ecx,%ecx
  404b17:	41 b8 8e 00 00 00    	mov    $0x8e,%r8d
  404b1d:	ba 08 00 00 00       	mov    $0x8,%edx
  404b22:	48 b8 48 f8 ff ff ff 	movabs $0xfffffffffffff848,%rax
  404b29:	ff ff ff 
  404b2c:	bf 39 00 00 00       	mov    $0x39,%edi
  404b31:	49 8b 34 07          	mov    (%r15,%rax,1),%rsi
  404b35:	ff d3                	call   *%rbx
  404b37:	31 c9                	xor    %ecx,%ecx
  404b39:	41 b8 8e 00 00 00    	mov    $0x8e,%r8d
  404b3f:	ba 08 00 00 00       	mov    $0x8,%edx
  404b44:	48 b8 78 fe ff ff ff 	movabs $0xfffffffffffffe78,%rax
  404b4b:	ff ff ff 
  404b4e:	bf 3a 00 00 00       	mov    $0x3a,%edi
  404b53:	49 8b 34 07          	mov    (%r15,%rax,1),%rsi
  404b57:	ff d3                	call   *%rbx
  404b59:	31 c9                	xor    %ecx,%ecx
  404b5b:	41 b8 8e 00 00 00    	mov    $0x8e,%r8d
  404b61:	ba 08 00 00 00       	mov    $0x8,%edx
  404b66:	48 b8 60 f8 ff ff ff 	movabs $0xfffffffffffff860,%rax
  404b6d:	ff ff ff 
  404b70:	bf 3b 00 00 00       	mov    $0x3b,%edi
  404b75:	49 8b 34 07          	mov    (%r15,%rax,1),%rsi
  404b79:	ff d3                	call   *%rbx
  404b7b:	31 c9                	xor    %ecx,%ecx
  404b7d:	41 b8 8e 00 00 00    	mov    $0x8e,%r8d
  404b83:	ba 08 00 00 00       	mov    $0x8,%edx
  404b88:	48 b8 68 fd ff ff ff 	movabs $0xfffffffffffffd68,%rax
  404b8f:	ff ff ff 
  404b92:	bf 3c 00 00 00       	mov    $0x3c,%edi
  404b97:	49 8b 34 07          	mov    (%r15,%rax,1),%rsi
  404b9b:	ff d3                	call   *%rbx
  404b9d:	31 c9                	xor    %ecx,%ecx
  404b9f:	41 b8 8e 00 00 00    	mov    $0x8e,%r8d
  404ba5:	ba 08 00 00 00       	mov    $0x8,%edx
  404baa:	48 b8 b0 fd ff ff ff 	movabs $0xfffffffffffffdb0,%rax
  404bb1:	ff ff ff 
  404bb4:	bf 3d 00 00 00       	mov    $0x3d,%edi
  404bb9:	49 8b 34 07          	mov    (%r15,%rax,1),%rsi
  404bbd:	ff d3                	call   *%rbx
  404bbf:	31 c9                	xor    %ecx,%ecx
  404bc1:	41 b8 8e 00 00 00    	mov    $0x8e,%r8d
  404bc7:	ba 08 00 00 00       	mov    $0x8,%edx
  404bcc:	48 b8 b8 fa ff ff ff 	movabs $0xfffffffffffffab8,%rax
  404bd3:	ff ff ff 
  404bd6:	bf 3e 00 00 00       	mov    $0x3e,%edi
  404bdb:	49 8b 34 07          	mov    (%r15,%rax,1),%rsi
  404bdf:	ff d3                	call   *%rbx
  404be1:	31 c9                	xor    %ecx,%ecx
  404be3:	41 b8 8e 00 00 00    	mov    $0x8e,%r8d
  404be9:	ba 08 00 00 00       	mov    $0x8,%edx
  404bee:	48 b8 48 fc ff ff ff 	movabs $0xfffffffffffffc48,%rax
  404bf5:	ff ff ff 
  404bf8:	bf 3f 00 00 00       	mov    $0x3f,%edi
  404bfd:	49 8b 34 07          	mov    (%r15,%rax,1),%rsi
  404c01:	ff d3                	call   *%rbx
  404c03:	41 b8 8e 00 00 00    	mov    $0x8e,%r8d
  404c09:	31 c9                	xor    %ecx,%ecx
  404c0b:	ba 08 00 00 00       	mov    $0x8,%edx
  404c10:	48 b8 90 fa ff ff ff 	movabs $0xfffffffffffffa90,%rax
  404c17:	ff ff ff 
  404c1a:	bf 40 00 00 00       	mov    $0x40,%edi
  404c1f:	49 8b 34 07          	mov    (%r15,%rax,1),%rsi
  404c23:	ff d3                	call   *%rbx
  404c25:	31 c9                	xor    %ecx,%ecx
  404c27:	41 b8 8e 00 00 00    	mov    $0x8e,%r8d
  404c2d:	ba 08 00 00 00       	mov    $0x8,%edx
  404c32:	48 b8 f8 f9 ff ff ff 	movabs $0xfffffffffffff9f8,%rax
  404c39:	ff ff ff 
  404c3c:	bf 41 00 00 00       	mov    $0x41,%edi
  404c41:	49 8b 34 07          	mov    (%r15,%rax,1),%rsi
  404c45:	ff d3                	call   *%rbx
  404c47:	31 c9                	xor    %ecx,%ecx
  404c49:	41 b8 8e 00 00 00    	mov    $0x8e,%r8d
  404c4f:	ba 08 00 00 00       	mov    $0x8,%edx
  404c54:	48 b8 68 fc ff ff ff 	movabs $0xfffffffffffffc68,%rax
  404c5b:	ff ff ff 
  404c5e:	bf 42 00 00 00       	mov    $0x42,%edi
  404c63:	49 8b 34 07          	mov    (%r15,%rax,1),%rsi
  404c67:	ff d3                	call   *%rbx
  404c69:	31 c9                	xor    %ecx,%ecx
  404c6b:	41 b8 8e 00 00 00    	mov    $0x8e,%r8d
  404c71:	ba 08 00 00 00       	mov    $0x8,%edx
  404c76:	48 b8 60 f9 ff ff ff 	movabs $0xfffffffffffff960,%rax
  404c7d:	ff ff ff 
  404c80:	bf 43 00 00 00       	mov    $0x43,%edi
  404c85:	49 8b 34 07          	mov    (%r15,%rax,1),%rsi
  404c89:	ff d3                	call   *%rbx
  404c8b:	31 c9                	xor    %ecx,%ecx
  404c8d:	41 b8 8e 00 00 00    	mov    $0x8e,%r8d
  404c93:	ba 08 00 00 00       	mov    $0x8,%edx
  404c98:	48 b8 10 fc ff ff ff 	movabs $0xfffffffffffffc10,%rax
  404c9f:	ff ff ff 
  404ca2:	bf 44 00 00 00       	mov    $0x44,%edi
  404ca7:	49 8b 34 07          	mov    (%r15,%rax,1),%rsi
  404cab:	ff d3                	call   *%rbx
  404cad:	31 c9                	xor    %ecx,%ecx
  404caf:	41 b8 8e 00 00 00    	mov    $0x8e,%r8d
  404cb5:	ba 08 00 00 00       	mov    $0x8,%edx
  404cba:	48 b8 68 fb ff ff ff 	movabs $0xfffffffffffffb68,%rax
  404cc1:	ff ff ff 
  404cc4:	bf 45 00 00 00       	mov    $0x45,%edi
  404cc9:	49 8b 34 07          	mov    (%r15,%rax,1),%rsi
  404ccd:	ff d3                	call   *%rbx
  404ccf:	31 c9                	xor    %ecx,%ecx
  404cd1:	41 b8 8e 00 00 00    	mov    $0x8e,%r8d
  404cd7:	ba 08 00 00 00       	mov    $0x8,%edx
  404cdc:	48 b8 20 fe ff ff ff 	movabs $0xfffffffffffffe20,%rax
  404ce3:	ff ff ff 
  404ce6:	bf 46 00 00 00       	mov    $0x46,%edi
  404ceb:	49 8b 34 07          	mov    (%r15,%rax,1),%rsi
  404cef:	ff d3                	call   *%rbx
  404cf1:	31 c9                	xor    %ecx,%ecx
  404cf3:	41 b8 8e 00 00 00    	mov    $0x8e,%r8d
  404cf9:	ba 08 00 00 00       	mov    $0x8,%edx
  404cfe:	48 b8 78 fd ff ff ff 	movabs $0xfffffffffffffd78,%rax
  404d05:	ff ff ff 
  404d08:	bf 47 00 00 00       	mov    $0x47,%edi
  404d0d:	49 8b 34 07          	mov    (%r15,%rax,1),%rsi
  404d11:	ff d3                	call   *%rbx
  404d13:	31 c9                	xor    %ecx,%ecx
  404d15:	41 b8 8e 00 00 00    	mov    $0x8e,%r8d
  404d1b:	ba 08 00 00 00       	mov    $0x8,%edx
  404d20:	48 b8 20 f8 ff ff ff 	movabs $0xfffffffffffff820,%rax
  404d27:	ff ff ff 
  404d2a:	bf 48 00 00 00       	mov    $0x48,%edi
  404d2f:	49 8b 34 07          	mov    (%r15,%rax,1),%rsi
  404d33:	ff d3                	call   *%rbx
  404d35:	31 c9                	xor    %ecx,%ecx
  404d37:	41 b8 8e 00 00 00    	mov    $0x8e,%r8d
  404d3d:	ba 08 00 00 00       	mov    $0x8,%edx
  404d42:	48 b8 68 ff ff ff ff 	movabs $0xffffffffffffff68,%rax
  404d49:	ff ff ff 
  404d4c:	bf 49 00 00 00       	mov    $0x49,%edi
  404d51:	49 8b 34 07          	mov    (%r15,%rax,1),%rsi
  404d55:	ff d3                	call   *%rbx
  404d57:	31 c9                	xor    %ecx,%ecx
  404d59:	41 b8 8e 00 00 00    	mov    $0x8e,%r8d
  404d5f:	ba 08 00 00 00       	mov    $0x8,%edx
  404d64:	48 b8 50 fe ff ff ff 	movabs $0xfffffffffffffe50,%rax
  404d6b:	ff ff ff 
  404d6e:	bf 4a 00 00 00       	mov    $0x4a,%edi
  404d73:	49 8b 34 07          	mov    (%r15,%rax,1),%rsi
  404d77:	ff d3                	call   *%rbx
  404d79:	31 c9                	xor    %ecx,%ecx
  404d7b:	41 b8 8e 00 00 00    	mov    $0x8e,%r8d
  404d81:	ba 08 00 00 00       	mov    $0x8,%edx
  404d86:	48 b8 30 fb ff ff ff 	movabs $0xfffffffffffffb30,%rax
  404d8d:	ff ff ff 
  404d90:	bf 4b 00 00 00       	mov    $0x4b,%edi
  404d95:	49 8b 34 07          	mov    (%r15,%rax,1),%rsi
  404d99:	ff d3                	call   *%rbx
  404d9b:	31 c9                	xor    %ecx,%ecx
  404d9d:	41 b8 8e 00 00 00    	mov    $0x8e,%r8d
  404da3:	ba 08 00 00 00       	mov    $0x8,%edx
  404da8:	48 b8 90 fb ff ff ff 	movabs $0xfffffffffffffb90,%rax
  404daf:	ff ff ff 
  404db2:	bf 4c 00 00 00       	mov    $0x4c,%edi
  404db7:	49 8b 34 07          	mov    (%r15,%rax,1),%rsi
  404dbb:	ff d3                	call   *%rbx
  404dbd:	31 c9                	xor    %ecx,%ecx
  404dbf:	41 b8 8e 00 00 00    	mov    $0x8e,%r8d
  404dc5:	ba 08 00 00 00       	mov    $0x8,%edx
  404dca:	48 b8 b8 f8 ff ff ff 	movabs $0xfffffffffffff8b8,%rax
  404dd1:	ff ff ff 
  404dd4:	bf 4d 00 00 00       	mov    $0x4d,%edi
  404dd9:	49 8b 34 07          	mov    (%r15,%rax,1),%rsi
  404ddd:	ff d3                	call   *%rbx
  404ddf:	31 c9                	xor    %ecx,%ecx
  404de1:	41 b8 8e 00 00 00    	mov    $0x8e,%r8d
  404de7:	ba 08 00 00 00       	mov    $0x8,%edx
  404dec:	48 b8 00 f9 ff ff ff 	movabs $0xfffffffffffff900,%rax
  404df3:	ff ff ff 
  404df6:	bf 4e 00 00 00       	mov    $0x4e,%edi
  404dfb:	49 8b 34 07          	mov    (%r15,%rax,1),%rsi
  404dff:	ff d3                	call   *%rbx
  404e01:	31 c9                	xor    %ecx,%ecx
  404e03:	41 b8 8e 00 00 00    	mov    $0x8e,%r8d
  404e09:	ba 08 00 00 00       	mov    $0x8,%edx
  404e0e:	48 b8 f8 fd ff ff ff 	movabs $0xfffffffffffffdf8,%rax
  404e15:	ff ff ff 
  404e18:	bf 4f 00 00 00       	mov    $0x4f,%edi
  404e1d:	49 8b 34 07          	mov    (%r15,%rax,1),%rsi
  404e21:	ff d3                	call   *%rbx
  404e23:	41 b8 8e 00 00 00    	mov    $0x8e,%r8d
  404e29:	31 c9                	xor    %ecx,%ecx
  404e2b:	ba 08 00 00 00       	mov    $0x8,%edx
  404e30:	48 b8 b0 fc ff ff ff 	movabs $0xfffffffffffffcb0,%rax
  404e37:	ff ff ff 
  404e3a:	bf 50 00 00 00       	mov    $0x50,%edi
  404e3f:	49 8b 34 07          	mov    (%r15,%rax,1),%rsi
  404e43:	ff d3                	call   *%rbx
  404e45:	31 c9                	xor    %ecx,%ecx
  404e47:	41 b8 8e 00 00 00    	mov    $0x8e,%r8d
  404e4d:	ba 08 00 00 00       	mov    $0x8,%edx
  404e52:	48 b8 a0 ff ff ff ff 	movabs $0xffffffffffffffa0,%rax
  404e59:	ff ff ff 
  404e5c:	bf 51 00 00 00       	mov    $0x51,%edi
  404e61:	49 8b 34 07          	mov    (%r15,%rax,1),%rsi
  404e65:	ff d3                	call   *%rbx
  404e67:	31 c9                	xor    %ecx,%ecx
  404e69:	41 b8 8e 00 00 00    	mov    $0x8e,%r8d
  404e6f:	ba 08 00 00 00       	mov    $0x8,%edx
  404e74:	48 b8 e8 fe ff ff ff 	movabs $0xfffffffffffffee8,%rax
  404e7b:	ff ff ff 
  404e7e:	bf 52 00 00 00       	mov    $0x52,%edi
  404e83:	49 8b 34 07          	mov    (%r15,%rax,1),%rsi
  404e87:	ff d3                	call   *%rbx
  404e89:	31 c9                	xor    %ecx,%ecx
  404e8b:	41 b8 8e 00 00 00    	mov    $0x8e,%r8d
  404e91:	ba 08 00 00 00       	mov    $0x8,%edx
  404e96:	48 b8 88 f9 ff ff ff 	movabs $0xfffffffffffff988,%rax
  404e9d:	ff ff ff 
  404ea0:	bf 53 00 00 00       	mov    $0x53,%edi
  404ea5:	49 8b 34 07          	mov    (%r15,%rax,1),%rsi
  404ea9:	ff d3                	call   *%rbx
  404eab:	31 c9                	xor    %ecx,%ecx
  404ead:	41 b8 8e 00 00 00    	mov    $0x8e,%r8d
  404eb3:	ba 08 00 00 00       	mov    $0x8,%edx
  404eb8:	48 b8 e0 fc ff ff ff 	movabs $0xfffffffffffffce0,%rax
  404ebf:	ff ff ff 
  404ec2:	bf 54 00 00 00       	mov    $0x54,%edi
  404ec7:	49 8b 34 07          	mov    (%r15,%rax,1),%rsi
  404ecb:	ff d3                	call   *%rbx
  404ecd:	31 c9                	xor    %ecx,%ecx
  404ecf:	41 b8 8e 00 00 00    	mov    $0x8e,%r8d
  404ed5:	ba 08 00 00 00       	mov    $0x8,%edx
  404eda:	48 b8 98 ff ff ff ff 	movabs $0xffffffffffffff98,%rax
  404ee1:	ff ff ff 
  404ee4:	bf 55 00 00 00       	mov    $0x55,%edi
  404ee9:	49 8b 34 07          	mov    (%r15,%rax,1),%rsi
  404eed:	ff d3                	call   *%rbx
  404eef:	31 c9                	xor    %ecx,%ecx
  404ef1:	41 b8 8e 00 00 00    	mov    $0x8e,%r8d
  404ef7:	ba 08 00 00 00       	mov    $0x8,%edx
  404efc:	48 b8 e0 fe ff ff ff 	movabs $0xfffffffffffffee0,%rax
  404f03:	ff ff ff 
  404f06:	bf 56 00 00 00       	mov    $0x56,%edi
  404f0b:	49 8b 34 07          	mov    (%r15,%rax,1),%rsi
  404f0f:	ff d3                	call   *%rbx
  404f11:	31 c9                	xor    %ecx,%ecx
  404f13:	41 b8 8e 00 00 00    	mov    $0x8e,%r8d
  404f19:	ba 08 00 00 00       	mov    $0x8,%edx
  404f1e:	48 b8 80 f9 ff ff ff 	movabs $0xfffffffffffff980,%rax
  404f25:	ff ff ff 
  404f28:	bf 57 00 00 00       	mov    $0x57,%edi
  404f2d:	49 8b 34 07          	mov    (%r15,%rax,1),%rsi
  404f31:	ff d3                	call   *%rbx
  404f33:	31 c9                	xor    %ecx,%ecx
  404f35:	41 b8 8e 00 00 00    	mov    $0x8e,%r8d
  404f3b:	ba 08 00 00 00       	mov    $0x8,%edx
  404f40:	48 b8 38 fa ff ff ff 	movabs $0xfffffffffffffa38,%rax
  404f47:	ff ff ff 
  404f4a:	bf 58 00 00 00       	mov    $0x58,%edi
  404f4f:	49 8b 34 07          	mov    (%r15,%rax,1),%rsi
  404f53:	ff d3                	call   *%rbx
  404f55:	31 c9                	xor    %ecx,%ecx
  404f57:	41 b8 8e 00 00 00    	mov    $0x8e,%r8d
  404f5d:	ba 08 00 00 00       	mov    $0x8,%edx
  404f62:	48 b8 d0 fc ff ff ff 	movabs $0xfffffffffffffcd0,%rax
  404f69:	ff ff ff 
  404f6c:	bf 59 00 00 00       	mov    $0x59,%edi
  404f71:	49 8b 34 07          	mov    (%r15,%rax,1),%rsi
  404f75:	ff d3                	call   *%rbx
  404f77:	31 c9                	xor    %ecx,%ecx
  404f79:	41 b8 8e 00 00 00    	mov    $0x8e,%r8d
  404f7f:	ba 08 00 00 00       	mov    $0x8,%edx
  404f84:	48 b8 e8 fa ff ff ff 	movabs $0xfffffffffffffae8,%rax
  404f8b:	ff ff ff 
  404f8e:	bf 5a 00 00 00       	mov    $0x5a,%edi
  404f93:	49 8b 34 07          	mov    (%r15,%rax,1),%rsi
  404f97:	ff d3                	call   *%rbx
  404f99:	31 c9                	xor    %ecx,%ecx
  404f9b:	41 b8 8e 00 00 00    	mov    $0x8e,%r8d
  404fa1:	ba 08 00 00 00       	mov    $0x8,%edx
  404fa6:	48 b8 18 fb ff ff ff 	movabs $0xfffffffffffffb18,%rax
  404fad:	ff ff ff 
  404fb0:	bf 5b 00 00 00       	mov    $0x5b,%edi
  404fb5:	49 8b 34 07          	mov    (%r15,%rax,1),%rsi
  404fb9:	ff d3                	call   *%rbx
  404fbb:	31 c9                	xor    %ecx,%ecx
  404fbd:	41 b8 8e 00 00 00    	mov    $0x8e,%r8d
  404fc3:	ba 08 00 00 00       	mov    $0x8,%edx
  404fc8:	48 b8 40 f8 ff ff ff 	movabs $0xfffffffffffff840,%rax
  404fcf:	ff ff ff 
  404fd2:	bf 5c 00 00 00       	mov    $0x5c,%edi
  404fd7:	49 8b 34 07          	mov    (%r15,%rax,1),%rsi
  404fdb:	ff d3                	call   *%rbx
  404fdd:	31 c9                	xor    %ecx,%ecx
  404fdf:	41 b8 8e 00 00 00    	mov    $0x8e,%r8d
  404fe5:	ba 08 00 00 00       	mov    $0x8,%edx
  404fea:	48 b8 18 ff ff ff ff 	movabs $0xffffffffffffff18,%rax
  404ff1:	ff ff ff 
  404ff4:	bf 5d 00 00 00       	mov    $0x5d,%edi
  404ff9:	49 8b 34 07          	mov    (%r15,%rax,1),%rsi
  404ffd:	ff d3                	call   *%rbx
  404fff:	31 c9                	xor    %ecx,%ecx
  405001:	41 b8 8e 00 00 00    	mov    $0x8e,%r8d
  405007:	ba 08 00 00 00       	mov    $0x8,%edx
  40500c:	48 b8 e0 fb ff ff ff 	movabs $0xfffffffffffffbe0,%rax
  405013:	ff ff ff 
  405016:	bf 5e 00 00 00       	mov    $0x5e,%edi
  40501b:	48 bb d0 73 fe ff ff 	movabs $0xfffffffffffe73d0,%rbx
  405022:	ff ff ff 
  405025:	4c 01 fb             	add    %r15,%rbx
  405028:	49 8b 34 07          	mov    (%r15,%rax,1),%rsi
  40502c:	ff d3                	call   *%rbx
  40502e:	31 c9                	xor    %ecx,%ecx
  405030:	41 b8 8e 00 00 00    	mov    $0x8e,%r8d
  405036:	ba 08 00 00 00       	mov    $0x8,%edx
  40503b:	48 b8 28 fc ff ff ff 	movabs $0xfffffffffffffc28,%rax
  405042:	ff ff ff 
  405045:	bf 5f 00 00 00       	mov    $0x5f,%edi
  40504a:	49 8b 34 07          	mov    (%r15,%rax,1),%rsi
  40504e:	ff d3                	call   *%rbx
  405050:	41 b8 8e 00 00 00    	mov    $0x8e,%r8d
  405056:	31 c9                	xor    %ecx,%ecx
  405058:	ba 08 00 00 00       	mov    $0x8,%edx
  40505d:	48 b8 78 fa ff ff ff 	movabs $0xfffffffffffffa78,%rax
  405064:	ff ff ff 
  405067:	bf 60 00 00 00       	mov    $0x60,%edi
  40506c:	49 8b 34 07          	mov    (%r15,%rax,1),%rsi
  405070:	ff d3                	call   *%rbx
  405072:	31 c9                	xor    %ecx,%ecx
  405074:	41 b8 8e 00 00 00    	mov    $0x8e,%r8d
  40507a:	ba 08 00 00 00       	mov    $0x8,%edx
  40507f:	48 b8 a8 ff ff ff ff 	movabs $0xffffffffffffffa8,%rax
  405086:	ff ff ff 
  405089:	bf 61 00 00 00       	mov    $0x61,%edi
  40508e:	49 8b 34 07          	mov    (%r15,%rax,1),%rsi
  405092:	ff d3                	call   *%rbx
  405094:	31 c9                	xor    %ecx,%ecx
  405096:	41 b8 8e 00 00 00    	mov    $0x8e,%r8d
  40509c:	ba 08 00 00 00       	mov    $0x8,%edx
  4050a1:	48 b8 f8 ff ff ff ff 	movabs $0xfffffffffffffff8,%rax
  4050a8:	ff ff ff 
  4050ab:	bf 62 00 00 00       	mov    $0x62,%edi
  4050b0:	49 8b 34 07          	mov    (%r15,%rax,1),%rsi
  4050b4:	ff d3                	call   *%rbx
  4050b6:	31 c9                	xor    %ecx,%ecx
  4050b8:	41 b8 8e 00 00 00    	mov    $0x8e,%r8d
  4050be:	ba 08 00 00 00       	mov    $0x8,%edx
  4050c3:	48 b8 00 fd ff ff ff 	movabs $0xfffffffffffffd00,%rax
  4050ca:	ff ff ff 
  4050cd:	bf 63 00 00 00       	mov    $0x63,%edi
  4050d2:	49 8b 34 07          	mov    (%r15,%rax,1),%rsi
  4050d6:	ff d3                	call   *%rbx
  4050d8:	31 c9                	xor    %ecx,%ecx
  4050da:	41 b8 8e 00 00 00    	mov    $0x8e,%r8d
  4050e0:	ba 08 00 00 00       	mov    $0x8,%edx
  4050e5:	48 b8 80 fa ff ff ff 	movabs $0xfffffffffffffa80,%rax
  4050ec:	ff ff ff 
  4050ef:	bf 64 00 00 00       	mov    $0x64,%edi
  4050f4:	49 8b 34 07          	mov    (%r15,%rax,1),%rsi
  4050f8:	ff d3                	call   *%rbx
  4050fa:	31 c9                	xor    %ecx,%ecx
  4050fc:	41 b8 8e 00 00 00    	mov    $0x8e,%r8d
  405102:	ba 08 00 00 00       	mov    $0x8,%edx
  405107:	48 b8 60 fd ff ff ff 	movabs $0xfffffffffffffd60,%rax
  40510e:	ff ff ff 
  405111:	bf 65 00 00 00       	mov    $0x65,%edi
  405116:	49 8b 34 07          	mov    (%r15,%rax,1),%rsi
  40511a:	ff d3                	call   *%rbx
  40511c:	31 c9                	xor    %ecx,%ecx
  40511e:	41 b8 8e 00 00 00    	mov    $0x8e,%r8d
  405124:	ba 08 00 00 00       	mov    $0x8,%edx
  405129:	48 b8 60 fc ff ff ff 	movabs $0xfffffffffffffc60,%rax
  405130:	ff ff ff 
  405133:	bf 66 00 00 00       	mov    $0x66,%edi
  405138:	49 8b 34 07          	mov    (%r15,%rax,1),%rsi
  40513c:	ff d3                	call   *%rbx
  40513e:	31 c9                	xor    %ecx,%ecx
  405140:	41 b8 8e 00 00 00    	mov    $0x8e,%r8d
  405146:	ba 08 00 00 00       	mov    $0x8,%edx
  40514b:	48 b8 50 ff ff ff ff 	movabs $0xffffffffffffff50,%rax
  405152:	ff ff ff 
  405155:	bf 67 00 00 00       	mov    $0x67,%edi
  40515a:	49 8b 34 07          	mov    (%r15,%rax,1),%rsi
  40515e:	ff d3                	call   *%rbx
  405160:	31 c9                	xor    %ecx,%ecx
  405162:	41 b8 8e 00 00 00    	mov    $0x8e,%r8d
  405168:	ba 08 00 00 00       	mov    $0x8,%edx
  40516d:	48 b8 88 fe ff ff ff 	movabs $0xfffffffffffffe88,%rax
  405174:	ff ff ff 
  405177:	bf 68 00 00 00       	mov    $0x68,%edi
  40517c:	49 8b 34 07          	mov    (%r15,%rax,1),%rsi
  405180:	ff d3                	call   *%rbx
  405182:	31 c9                	xor    %ecx,%ecx
  405184:	41 b8 8e 00 00 00    	mov    $0x8e,%r8d
  40518a:	ba 08 00 00 00       	mov    $0x8,%edx
  40518f:	48 b8 30 f9 ff ff ff 	movabs $0xfffffffffffff930,%rax
  405196:	ff ff ff 
  405199:	bf 69 00 00 00       	mov    $0x69,%edi
  40519e:	49 8b 34 07          	mov    (%r15,%rax,1),%rsi
  4051a2:	ff d3                	call   *%rbx
  4051a4:	31 c9                	xor    %ecx,%ecx
  4051a6:	41 b8 8e 00 00 00    	mov    $0x8e,%r8d
  4051ac:	ba 08 00 00 00       	mov    $0x8,%edx
  4051b1:	48 b8 38 fe ff ff ff 	movabs $0xfffffffffffffe38,%rax
  4051b8:	ff ff ff 
  4051bb:	bf 6a 00 00 00       	mov    $0x6a,%edi
  4051c0:	49 8b 34 07          	mov    (%r15,%rax,1),%rsi
  4051c4:	ff d3                	call   *%rbx
  4051c6:	31 c9                	xor    %ecx,%ecx
  4051c8:	41 b8 8e 00 00 00    	mov    $0x8e,%r8d
  4051ce:	ba 08 00 00 00       	mov    $0x8,%edx
  4051d3:	48 b8 f0 f8 ff ff ff 	movabs $0xfffffffffffff8f0,%rax
  4051da:	ff ff ff 
  4051dd:	bf 6b 00 00 00       	mov    $0x6b,%edi
  4051e2:	49 8b 34 07          	mov    (%r15,%rax,1),%rsi
  4051e6:	ff d3                	call   *%rbx
  4051e8:	31 c9                	xor    %ecx,%ecx
  4051ea:	41 b8 8e 00 00 00    	mov    $0x8e,%r8d
  4051f0:	ba 08 00 00 00       	mov    $0x8,%edx
  4051f5:	48 b8 a0 fb ff ff ff 	movabs $0xfffffffffffffba0,%rax
  4051fc:	ff ff ff 
  4051ff:	bf 6c 00 00 00       	mov    $0x6c,%edi
  405204:	49 8b 34 07          	mov    (%r15,%rax,1),%rsi
  405208:	ff d3                	call   *%rbx
  40520a:	31 c9                	xor    %ecx,%ecx
  40520c:	41 b8 8e 00 00 00    	mov    $0x8e,%r8d
  405212:	ba 08 00 00 00       	mov    $0x8,%edx
  405217:	48 b8 f0 fc ff ff ff 	movabs $0xfffffffffffffcf0,%rax
  40521e:	ff ff ff 
  405221:	bf 6d 00 00 00       	mov    $0x6d,%edi
  405226:	49 8b 34 07          	mov    (%r15,%rax,1),%rsi
  40522a:	ff d3                	call   *%rbx
  40522c:	31 c9                	xor    %ecx,%ecx
  40522e:	41 b8 8e 00 00 00    	mov    $0x8e,%r8d
  405234:	ba 08 00 00 00       	mov    $0x8,%edx
  405239:	48 b8 e0 f9 ff ff ff 	movabs $0xfffffffffffff9e0,%rax
  405240:	ff ff ff 
  405243:	bf 6e 00 00 00       	mov    $0x6e,%edi
  405248:	49 8b 34 07          	mov    (%r15,%rax,1),%rsi
  40524c:	ff d3                	call   *%rbx
  40524e:	31 c9                	xor    %ecx,%ecx
  405250:	41 b8 8e 00 00 00    	mov    $0x8e,%r8d
  405256:	ba 08 00 00 00       	mov    $0x8,%edx
  40525b:	48 b8 48 fa ff ff ff 	movabs $0xfffffffffffffa48,%rax
  405262:	ff ff ff 
  405265:	bf 6f 00 00 00       	mov    $0x6f,%edi
  40526a:	49 8b 34 07          	mov    (%r15,%rax,1),%rsi
  40526e:	ff d3                	call   *%rbx
  405270:	41 b8 8e 00 00 00    	mov    $0x8e,%r8d
  405276:	31 c9                	xor    %ecx,%ecx
  405278:	ba 08 00 00 00       	mov    $0x8,%edx
  40527d:	48 b8 18 fc ff ff ff 	movabs $0xfffffffffffffc18,%rax
  405284:	ff ff ff 
  405287:	bf 70 00 00 00       	mov    $0x70,%edi
  40528c:	49 8b 34 07          	mov    (%r15,%rax,1),%rsi
  405290:	ff d3                	call   *%rbx
  405292:	31 c9                	xor    %ecx,%ecx
  405294:	41 b8 8e 00 00 00    	mov    $0x8e,%r8d
  40529a:	ba 08 00 00 00       	mov    $0x8,%edx
  40529f:	48 b8 78 fc ff ff ff 	movabs $0xfffffffffffffc78,%rax
  4052a6:	ff ff ff 
  4052a9:	bf 71 00 00 00       	mov    $0x71,%edi
  4052ae:	49 8b 34 07          	mov    (%r15,%rax,1),%rsi
  4052b2:	ff d3                	call   *%rbx
  4052b4:	31 c9                	xor    %ecx,%ecx
  4052b6:	41 b8 8e 00 00 00    	mov    $0x8e,%r8d
  4052bc:	ba 08 00 00 00       	mov    $0x8,%edx
  4052c1:	48 b8 a0 f9 ff ff ff 	movabs $0xfffffffffffff9a0,%rax
  4052c8:	ff ff ff 
  4052cb:	bf 72 00 00 00       	mov    $0x72,%edi
  4052d0:	49 8b 34 07          	mov    (%r15,%rax,1),%rsi
  4052d4:	ff d3                	call   *%rbx
  4052d6:	31 c9                	xor    %ecx,%ecx
  4052d8:	41 b8 8e 00 00 00    	mov    $0x8e,%r8d
  4052de:	ba 08 00 00 00       	mov    $0x8,%edx
  4052e3:	48 b8 f0 fd ff ff ff 	movabs $0xfffffffffffffdf0,%rax
  4052ea:	ff ff ff 
  4052ed:	bf 73 00 00 00       	mov    $0x73,%edi
  4052f2:	49 8b 34 07          	mov    (%r15,%rax,1),%rsi
  4052f6:	ff d3                	call   *%rbx
  4052f8:	31 c9                	xor    %ecx,%ecx
  4052fa:	41 b8 8e 00 00 00    	mov    $0x8e,%r8d
  405300:	ba 08 00 00 00       	mov    $0x8,%edx
  405305:	48 b8 98 f8 ff ff ff 	movabs $0xfffffffffffff898,%rax
  40530c:	ff ff ff 
  40530f:	bf 74 00 00 00       	mov    $0x74,%edi
  405314:	49 8b 34 07          	mov    (%r15,%rax,1),%rsi
  405318:	ff d3                	call   *%rbx
  40531a:	31 c9                	xor    %ecx,%ecx
  40531c:	41 b8 8e 00 00 00    	mov    $0x8e,%r8d
  405322:	ba 08 00 00 00       	mov    $0x8,%edx
  405327:	48 b8 f0 ff ff ff ff 	movabs $0xfffffffffffffff0,%rax
  40532e:	ff ff ff 
  405331:	bf 75 00 00 00       	mov    $0x75,%edi
  405336:	49 8b 34 07          	mov    (%r15,%rax,1),%rsi
  40533a:	ff d3                	call   *%rbx
  40533c:	31 c9                	xor    %ecx,%ecx
  40533e:	41 b8 8e 00 00 00    	mov    $0x8e,%r8d
  405344:	ba 08 00 00 00       	mov    $0x8,%edx
  405349:	48 b8 70 fa ff ff ff 	movabs $0xfffffffffffffa70,%rax
  405350:	ff ff ff 
  405353:	bf 76 00 00 00       	mov    $0x76,%edi
  405358:	49 8b 34 07          	mov    (%r15,%rax,1),%rsi
  40535c:	ff d3                	call   *%rbx
  40535e:	31 c9                	xor    %ecx,%ecx
  405360:	41 b8 8e 00 00 00    	mov    $0x8e,%r8d
  405366:	ba 08 00 00 00       	mov    $0x8,%edx
  40536b:	48 b8 38 fb ff ff ff 	movabs $0xfffffffffffffb38,%rax
  405372:	ff ff ff 
  405375:	bf 77 00 00 00       	mov    $0x77,%edi
  40537a:	49 8b 34 07          	mov    (%r15,%rax,1),%rsi
  40537e:	ff d3                	call   *%rbx
  405380:	31 c9                	xor    %ecx,%ecx
  405382:	41 b8 8e 00 00 00    	mov    $0x8e,%r8d
  405388:	ba 08 00 00 00       	mov    $0x8,%edx
  40538d:	48 b8 e0 fd ff ff ff 	movabs $0xfffffffffffffde0,%rax
  405394:	ff ff ff 
  405397:	bf 78 00 00 00       	mov    $0x78,%edi
  40539c:	49 8b 34 07          	mov    (%r15,%rax,1),%rsi
  4053a0:	ff d3                	call   *%rbx
  4053a2:	31 c9                	xor    %ecx,%ecx
  4053a4:	41 b8 8e 00 00 00    	mov    $0x8e,%r8d
  4053aa:	ba 08 00 00 00       	mov    $0x8,%edx
  4053af:	48 b8 50 fd ff ff ff 	movabs $0xfffffffffffffd50,%rax
  4053b6:	ff ff ff 
  4053b9:	bf 79 00 00 00       	mov    $0x79,%edi
  4053be:	49 8b 34 07          	mov    (%r15,%rax,1),%rsi
  4053c2:	ff d3                	call   *%rbx
  4053c4:	31 c9                	xor    %ecx,%ecx
  4053c6:	41 b8 8e 00 00 00    	mov    $0x8e,%r8d
  4053cc:	ba 08 00 00 00       	mov    $0x8,%edx
  4053d1:	48 b8 98 fd ff ff ff 	movabs $0xfffffffffffffd98,%rax
  4053d8:	ff ff ff 
  4053db:	bf 7a 00 00 00       	mov    $0x7a,%edi
  4053e0:	49 8b 34 07          	mov    (%r15,%rax,1),%rsi
  4053e4:	ff d3                	call   *%rbx
  4053e6:	31 c9                	xor    %ecx,%ecx
  4053e8:	41 b8 8e 00 00 00    	mov    $0x8e,%r8d
  4053ee:	ba 08 00 00 00       	mov    $0x8,%edx
  4053f3:	48 b8 68 f8 ff ff ff 	movabs $0xfffffffffffff868,%rax
  4053fa:	ff ff ff 
  4053fd:	bf 7b 00 00 00       	mov    $0x7b,%edi
  405402:	49 8b 34 07          	mov    (%r15,%rax,1),%rsi
  405406:	ff d3                	call   *%rbx
  405408:	31 c9                	xor    %ecx,%ecx
  40540a:	41 b8 8e 00 00 00    	mov    $0x8e,%r8d
  405410:	ba 08 00 00 00       	mov    $0x8,%edx
  405415:	48 b8 38 f8 ff ff ff 	movabs $0xfffffffffffff838,%rax
  40541c:	ff ff ff 
  40541f:	bf 7c 00 00 00       	mov    $0x7c,%edi
  405424:	49 8b 34 07          	mov    (%r15,%rax,1),%rsi
  405428:	ff d3                	call   *%rbx
  40542a:	31 c9                	xor    %ecx,%ecx
  40542c:	41 b8 8e 00 00 00    	mov    $0x8e,%r8d
  405432:	ba 08 00 00 00       	mov    $0x8,%edx
  405437:	48 b8 28 fd ff ff ff 	movabs $0xfffffffffffffd28,%rax
  40543e:	ff ff ff 
  405441:	bf 7d 00 00 00       	mov    $0x7d,%edi
  405446:	49 8b 34 07          	mov    (%r15,%rax,1),%rsi
  40544a:	ff d3                	call   *%rbx
  40544c:	31 c9                	xor    %ecx,%ecx
  40544e:	41 b8 8e 00 00 00    	mov    $0x8e,%r8d
  405454:	ba 08 00 00 00       	mov    $0x8,%edx
  405459:	48 b8 88 fd ff ff ff 	movabs $0xfffffffffffffd88,%rax
  405460:	ff ff ff 
  405463:	bf 7e 00 00 00       	mov    $0x7e,%edi
  405468:	49 8b 34 07          	mov    (%r15,%rax,1),%rsi
  40546c:	ff d3                	call   *%rbx
  40546e:	31 c9                	xor    %ecx,%ecx
  405470:	41 b8 8e 00 00 00    	mov    $0x8e,%r8d
  405476:	ba 08 00 00 00       	mov    $0x8,%edx
  40547b:	48 b8 60 fa ff ff ff 	movabs $0xfffffffffffffa60,%rax
  405482:	ff ff ff 
  405485:	bf 7f 00 00 00       	mov    $0x7f,%edi
  40548a:	49 8b 34 07          	mov    (%r15,%rax,1),%rsi
  40548e:	ff d3                	call   *%rbx
  405490:	41 b8 8e 00 00 00    	mov    $0x8e,%r8d
  405496:	31 c9                	xor    %ecx,%ecx
  405498:	ba 08 00 00 00       	mov    $0x8,%edx
  40549d:	48 b8 90 fe ff ff ff 	movabs $0xfffffffffffffe90,%rax
  4054a4:	ff ff ff 
  4054a7:	bf 80 00 00 00       	mov    $0x80,%edi
  4054ac:	49 8b 34 07          	mov    (%r15,%rax,1),%rsi
  4054b0:	ff d3                	call   *%rbx
  4054b2:	31 c9                	xor    %ecx,%ecx
  4054b4:	41 b8 8e 00 00 00    	mov    $0x8e,%r8d
  4054ba:	ba 08 00 00 00       	mov    $0x8,%edx
  4054bf:	48 b8 78 fb ff ff ff 	movabs $0xfffffffffffffb78,%rax
  4054c6:	ff ff ff 
  4054c9:	bf 81 00 00 00       	mov    $0x81,%edi
  4054ce:	49 8b 34 07          	mov    (%r15,%rax,1),%rsi
  4054d2:	ff d3                	call   *%rbx
  4054d4:	31 c9                	xor    %ecx,%ecx
  4054d6:	41 b8 8e 00 00 00    	mov    $0x8e,%r8d
  4054dc:	ba 08 00 00 00       	mov    $0x8,%edx
  4054e1:	48 b8 00 fc ff ff ff 	movabs $0xfffffffffffffc00,%rax
  4054e8:	ff ff ff 
  4054eb:	bf 82 00 00 00       	mov    $0x82,%edi
  4054f0:	49 8b 34 07          	mov    (%r15,%rax,1),%rsi
  4054f4:	ff d3                	call   *%rbx
  4054f6:	31 c9                	xor    %ecx,%ecx
  4054f8:	41 b8 8e 00 00 00    	mov    $0x8e,%r8d
  4054fe:	ba 08 00 00 00       	mov    $0x8,%edx
  405503:	48 b8 d0 fe ff ff ff 	movabs $0xfffffffffffffed0,%rax
  40550a:	ff ff ff 
  40550d:	bf 83 00 00 00       	mov    $0x83,%edi
  405512:	49 8b 34 07          	mov    (%r15,%rax,1),%rsi
  405516:	ff d3                	call   *%rbx
  405518:	31 c9                	xor    %ecx,%ecx
  40551a:	41 b8 8e 00 00 00    	mov    $0x8e,%r8d
  405520:	ba 08 00 00 00       	mov    $0x8,%edx
  405525:	48 b8 00 fe ff ff ff 	movabs $0xfffffffffffffe00,%rax
  40552c:	ff ff ff 
  40552f:	bf 84 00 00 00       	mov    $0x84,%edi
  405534:	49 8b 34 07          	mov    (%r15,%rax,1),%rsi
  405538:	ff d3                	call   *%rbx
  40553a:	31 c9                	xor    %ecx,%ecx
  40553c:	41 b8 8e 00 00 00    	mov    $0x8e,%r8d
  405542:	ba 08 00 00 00       	mov    $0x8,%edx
  405547:	48 b8 c8 f8 ff ff ff 	movabs $0xfffffffffffff8c8,%rax
  40554e:	ff ff ff 
  405551:	bf 85 00 00 00       	mov    $0x85,%edi
  405556:	49 8b 34 07          	mov    (%r15,%rax,1),%rsi
  40555a:	ff d3                	call   *%rbx
  40555c:	31 c9                	xor    %ecx,%ecx
  40555e:	41 b8 8e 00 00 00    	mov    $0x8e,%r8d
  405564:	ba 08 00 00 00       	mov    $0x8,%edx
  405569:	48 b8 08 f8 ff ff ff 	movabs $0xfffffffffffff808,%rax
  405570:	ff ff ff 
  405573:	bf 86 00 00 00       	mov    $0x86,%edi
  405578:	49 8b 34 07          	mov    (%r15,%rax,1),%rsi
  40557c:	ff d3                	call   *%rbx
  40557e:	31 c9                	xor    %ecx,%ecx
  405580:	41 b8 8e 00 00 00    	mov    $0x8e,%r8d
  405586:	ba 08 00 00 00       	mov    $0x8,%edx
  40558b:	48 b8 a0 fa ff ff ff 	movabs $0xfffffffffffffaa0,%rax
  405592:	ff ff ff 
  405595:	bf 87 00 00 00       	mov    $0x87,%edi
  40559a:	49 8b 34 07          	mov    (%r15,%rax,1),%rsi
  40559e:	ff d3                	call   *%rbx
  4055a0:	31 c9                	xor    %ecx,%ecx
  4055a2:	41 b8 8e 00 00 00    	mov    $0x8e,%r8d
  4055a8:	ba 08 00 00 00       	mov    $0x8,%edx
  4055ad:	48 b8 00 fa ff ff ff 	movabs $0xfffffffffffffa00,%rax
  4055b4:	ff ff ff 
  4055b7:	bf 88 00 00 00       	mov    $0x88,%edi
  4055bc:	49 8b 34 07          	mov    (%r15,%rax,1),%rsi
  4055c0:	ff d3                	call   *%rbx
  4055c2:	31 c9                	xor    %ecx,%ecx
  4055c4:	41 b8 8e 00 00 00    	mov    $0x8e,%r8d
  4055ca:	ba 08 00 00 00       	mov    $0x8,%edx
  4055cf:	48 b8 70 fc ff ff ff 	movabs $0xfffffffffffffc70,%rax
  4055d6:	ff ff ff 
  4055d9:	bf 89 00 00 00       	mov    $0x89,%edi
  4055de:	49 8b 34 07          	mov    (%r15,%rax,1),%rsi
  4055e2:	ff d3                	call   *%rbx
  4055e4:	31 c9                	xor    %ecx,%ecx
  4055e6:	41 b8 8e 00 00 00    	mov    $0x8e,%r8d
  4055ec:	ba 08 00 00 00       	mov    $0x8,%edx
  4055f1:	48 b8 40 fa ff ff ff 	movabs $0xfffffffffffffa40,%rax
  4055f8:	ff ff ff 
  4055fb:	bf 8a 00 00 00       	mov    $0x8a,%edi
  405600:	49 8b 34 07          	mov    (%r15,%rax,1),%rsi
  405604:	ff d3                	call   *%rbx
  405606:	31 c9                	xor    %ecx,%ecx
  405608:	41 b8 8e 00 00 00    	mov    $0x8e,%r8d
  40560e:	ba 08 00 00 00       	mov    $0x8,%edx
  405613:	48 b8 58 fe ff ff ff 	movabs $0xfffffffffffffe58,%rax
  40561a:	ff ff ff 
  40561d:	bf 8b 00 00 00       	mov    $0x8b,%edi
  405622:	49 8b 34 07          	mov    (%r15,%rax,1),%rsi
  405626:	ff d3                	call   *%rbx
  405628:	31 c9                	xor    %ecx,%ecx
  40562a:	41 b8 8e 00 00 00    	mov    $0x8e,%r8d
  405630:	ba 08 00 00 00       	mov    $0x8,%edx
  405635:	48 b8 40 fb ff ff ff 	movabs $0xfffffffffffffb40,%rax
  40563c:	ff ff ff 
  40563f:	bf 8c 00 00 00       	mov    $0x8c,%edi
  405644:	49 8b 34 07          	mov    (%r15,%rax,1),%rsi
  405648:	ff d3                	call   *%rbx
  40564a:	31 c9                	xor    %ecx,%ecx
  40564c:	41 b8 8e 00 00 00    	mov    $0x8e,%r8d
  405652:	ba 08 00 00 00       	mov    $0x8,%edx
  405657:	48 b8 98 fb ff ff ff 	movabs $0xfffffffffffffb98,%rax
  40565e:	ff ff ff 
  405661:	bf 8d 00 00 00       	mov    $0x8d,%edi
  405666:	49 8b 34 07          	mov    (%r15,%rax,1),%rsi
  40566a:	ff d3                	call   *%rbx
  40566c:	31 c9                	xor    %ecx,%ecx
  40566e:	41 b8 8e 00 00 00    	mov    $0x8e,%r8d
  405674:	ba 08 00 00 00       	mov    $0x8,%edx
  405679:	48 b8 90 f8 ff ff ff 	movabs $0xfffffffffffff890,%rax
  405680:	ff ff ff 
  405683:	bf 8e 00 00 00       	mov    $0x8e,%edi
  405688:	49 8b 34 07          	mov    (%r15,%rax,1),%rsi
  40568c:	ff d3                	call   *%rbx
  40568e:	31 c9                	xor    %ecx,%ecx
  405690:	41 b8 8e 00 00 00    	mov    $0x8e,%r8d
  405696:	ba 08 00 00 00       	mov    $0x8,%edx
  40569b:	48 b8 e0 f8 ff ff ff 	movabs $0xfffffffffffff8e0,%rax
  4056a2:	ff ff ff 
  4056a5:	bf 8f 00 00 00       	mov    $0x8f,%edi
  4056aa:	49 8b 34 07          	mov    (%r15,%rax,1),%rsi
  4056ae:	ff d3                	call   *%rbx
  4056b0:	41 b8 8e 00 00 00    	mov    $0x8e,%r8d
  4056b6:	31 c9                	xor    %ecx,%ecx
  4056b8:	ba 08 00 00 00       	mov    $0x8,%edx
  4056bd:	48 b8 70 f8 ff ff ff 	movabs $0xfffffffffffff870,%rax
  4056c4:	ff ff ff 
  4056c7:	bf 90 00 00 00       	mov    $0x90,%edi
  4056cc:	49 8b 34 07          	mov    (%r15,%rax,1),%rsi
  4056d0:	ff d3                	call   *%rbx
  4056d2:	31 c9                	xor    %ecx,%ecx
  4056d4:	41 b8 8e 00 00 00    	mov    $0x8e,%r8d
  4056da:	ba 08 00 00 00       	mov    $0x8,%edx
  4056df:	48 b8 88 ff ff ff ff 	movabs $0xffffffffffffff88,%rax
  4056e6:	ff ff ff 
  4056e9:	bf 91 00 00 00       	mov    $0x91,%edi
  4056ee:	49 8b 34 07          	mov    (%r15,%rax,1),%rsi
  4056f2:	ff d3                	call   *%rbx
  4056f4:	31 c9                	xor    %ecx,%ecx
  4056f6:	41 b8 8e 00 00 00    	mov    $0x8e,%r8d
  4056fc:	ba 08 00 00 00       	mov    $0x8,%edx
  405701:	48 b8 28 fa ff ff ff 	movabs $0xfffffffffffffa28,%rax
  405708:	ff ff ff 
  40570b:	bf 92 00 00 00       	mov    $0x92,%edi
  405710:	49 8b 34 07          	mov    (%r15,%rax,1),%rsi
  405714:	ff d3                	call   *%rbx
  405716:	31 c9                	xor    %ecx,%ecx
  405718:	41 b8 8e 00 00 00    	mov    $0x8e,%r8d
  40571e:	ba 08 00 00 00       	mov    $0x8,%edx
  405723:	48 b8 50 f9 ff ff ff 	movabs $0xfffffffffffff950,%rax
  40572a:	ff ff ff 
  40572d:	bf 93 00 00 00       	mov    $0x93,%edi
  405732:	49 8b 34 07          	mov    (%r15,%rax,1),%rsi
  405736:	ff d3                	call   *%rbx
  405738:	31 c9                	xor    %ecx,%ecx
  40573a:	41 b8 8e 00 00 00    	mov    $0x8e,%r8d
  405740:	ba 08 00 00 00       	mov    $0x8,%edx
  405745:	48 b8 e8 fb ff ff ff 	movabs $0xfffffffffffffbe8,%rax
  40574c:	ff ff ff 
  40574f:	bf 94 00 00 00       	mov    $0x94,%edi
  405754:	49 8b 34 07          	mov    (%r15,%rax,1),%rsi
  405758:	ff d3                	call   *%rbx
  40575a:	31 c9                	xor    %ecx,%ecx
  40575c:	41 b8 8e 00 00 00    	mov    $0x8e,%r8d
  405762:	ba 08 00 00 00       	mov    $0x8,%edx
  405767:	48 b8 c8 fc ff ff ff 	movabs $0xfffffffffffffcc8,%rax
  40576e:	ff ff ff 
  405771:	bf 95 00 00 00       	mov    $0x95,%edi
  405776:	49 8b 34 07          	mov    (%r15,%rax,1),%rsi
  40577a:	ff d3                	call   *%rbx
  40577c:	31 c9                	xor    %ecx,%ecx
  40577e:	41 b8 8e 00 00 00    	mov    $0x8e,%r8d
  405784:	ba 08 00 00 00       	mov    $0x8,%edx
  405789:	48 b8 80 ff ff ff ff 	movabs $0xffffffffffffff80,%rax
  405790:	ff ff ff 
  405793:	bf 96 00 00 00       	mov    $0x96,%edi
  405798:	49 8b 34 07          	mov    (%r15,%rax,1),%rsi
  40579c:	ff d3                	call   *%rbx
  40579e:	31 c9                	xor    %ecx,%ecx
  4057a0:	41 b8 8e 00 00 00    	mov    $0x8e,%r8d
  4057a6:	ba 08 00 00 00       	mov    $0x8,%edx
  4057ab:	48 b8 b0 fe ff ff ff 	movabs $0xfffffffffffffeb0,%rax
  4057b2:	ff ff ff 
  4057b5:	bf 97 00 00 00       	mov    $0x97,%edi
  4057ba:	49 8b 34 07          	mov    (%r15,%rax,1),%rsi
  4057be:	ff d3                	call   *%rbx
  4057c0:	31 c9                	xor    %ecx,%ecx
  4057c2:	41 b8 8e 00 00 00    	mov    $0x8e,%r8d
  4057c8:	ba 08 00 00 00       	mov    $0x8,%edx
  4057cd:	48 b8 48 f9 ff ff ff 	movabs $0xfffffffffffff948,%rax
  4057d4:	ff ff ff 
  4057d7:	bf 98 00 00 00       	mov    $0x98,%edi
  4057dc:	49 8b 34 07          	mov    (%r15,%rax,1),%rsi
  4057e0:	ff d3                	call   *%rbx
  4057e2:	31 c9                	xor    %ecx,%ecx
  4057e4:	41 b8 8e 00 00 00    	mov    $0x8e,%r8d
  4057ea:	ba 08 00 00 00       	mov    $0x8,%edx
  4057ef:	48 b8 b8 fc ff ff ff 	movabs $0xfffffffffffffcb8,%rax
  4057f6:	ff ff ff 
  4057f9:	bf 99 00 00 00       	mov    $0x99,%edi
  4057fe:	49 8b 34 07          	mov    (%r15,%rax,1),%rsi
  405802:	ff d3                	call   *%rbx
  405804:	31 c9                	xor    %ecx,%ecx
  405806:	41 b8 8e 00 00 00    	mov    $0x8e,%r8d
  40580c:	ba 08 00 00 00       	mov    $0x8,%edx
  405811:	48 b8 98 f9 ff ff ff 	movabs $0xfffffffffffff998,%rax
  405818:	ff ff ff 
  40581b:	bf 9a 00 00 00       	mov    $0x9a,%edi
  405820:	49 8b 34 07          	mov    (%r15,%rax,1),%rsi
  405824:	ff d3                	call   *%rbx
  405826:	31 c9                	xor    %ecx,%ecx
  405828:	41 b8 8e 00 00 00    	mov    $0x8e,%r8d
  40582e:	ba 08 00 00 00       	mov    $0x8,%edx
  405833:	48 b8 98 fe ff ff ff 	movabs $0xfffffffffffffe98,%rax
  40583a:	ff ff ff 
  40583d:	bf 9b 00 00 00       	mov    $0x9b,%edi
  405842:	49 8b 34 07          	mov    (%r15,%rax,1),%rsi
  405846:	ff d3                	call   *%rbx
  405848:	31 c9                	xor    %ecx,%ecx
  40584a:	41 b8 8e 00 00 00    	mov    $0x8e,%r8d
  405850:	ba 08 00 00 00       	mov    $0x8,%edx
  405855:	48 b8 00 ff ff ff ff 	movabs $0xffffffffffffff00,%rax
  40585c:	ff ff ff 
  40585f:	bf 9c 00 00 00       	mov    $0x9c,%edi
  405864:	49 8b 34 07          	mov    (%r15,%rax,1),%rsi
  405868:	ff d3                	call   *%rbx
  40586a:	31 c9                	xor    %ecx,%ecx
  40586c:	41 b8 8e 00 00 00    	mov    $0x8e,%r8d
  405872:	ba 08 00 00 00       	mov    $0x8,%edx
  405877:	48 b8 d0 fb ff ff ff 	movabs $0xfffffffffffffbd0,%rax
  40587e:	ff ff ff 
  405881:	bf 9d 00 00 00       	mov    $0x9d,%edi
  405886:	49 8b 34 07          	mov    (%r15,%rax,1),%rsi
  40588a:	ff d3                	call   *%rbx
  40588c:	31 c9                	xor    %ecx,%ecx
  40588e:	41 b8 8e 00 00 00    	mov    $0x8e,%r8d
  405894:	ba 08 00 00 00       	mov    $0x8,%edx
  405899:	48 b8 a8 fd ff ff ff 	movabs $0xfffffffffffffda8,%rax
  4058a0:	ff ff ff 
  4058a3:	bf 9e 00 00 00       	mov    $0x9e,%edi
  4058a8:	49 8b 34 07          	mov    (%r15,%rax,1),%rsi
  4058ac:	ff d3                	call   *%rbx
  4058ae:	31 c9                	xor    %ecx,%ecx
  4058b0:	41 b8 8e 00 00 00    	mov    $0x8e,%r8d
  4058b6:	ba 08 00 00 00       	mov    $0x8,%edx
  4058bb:	48 b8 b0 fa ff ff ff 	movabs $0xfffffffffffffab0,%rax
  4058c2:	ff ff ff 
  4058c5:	bf 9f 00 00 00       	mov    $0x9f,%edi
  4058ca:	49 8b 34 07          	mov    (%r15,%rax,1),%rsi
  4058ce:	ff d3                	call   *%rbx
  4058d0:	41 b8 8e 00 00 00    	mov    $0x8e,%r8d
  4058d6:	31 c9                	xor    %ecx,%ecx
  4058d8:	ba 08 00 00 00       	mov    $0x8,%edx
  4058dd:	48 b8 40 fd ff ff ff 	movabs $0xfffffffffffffd40,%rax
  4058e4:	ff ff ff 
  4058e7:	bf a0 00 00 00       	mov    $0xa0,%edi
  4058ec:	49 8b 34 07          	mov    (%r15,%rax,1),%rsi
  4058f0:	ff d3                	call   *%rbx
  4058f2:	31 c9                	xor    %ecx,%ecx
  4058f4:	41 b8 8e 00 00 00    	mov    $0x8e,%r8d
  4058fa:	ba 08 00 00 00       	mov    $0x8,%edx
  4058ff:	48 b8 50 fc ff ff ff 	movabs $0xfffffffffffffc50,%rax
  405906:	ff ff ff 
  405909:	bf a1 00 00 00       	mov    $0xa1,%edi
  40590e:	49 8b 34 07          	mov    (%r15,%rax,1),%rsi
  405912:	ff d3                	call   *%rbx
  405914:	31 c9                	xor    %ecx,%ecx
  405916:	41 b8 8e 00 00 00    	mov    $0x8e,%r8d
  40591c:	ba 08 00 00 00       	mov    $0x8,%edx
  405921:	48 b8 38 ff ff ff ff 	movabs $0xffffffffffffff38,%rax
  405928:	ff ff ff 
  40592b:	bf a2 00 00 00       	mov    $0xa2,%edi
  405930:	49 8b 34 07          	mov    (%r15,%rax,1),%rsi
  405934:	ff d3                	call   *%rbx
  405936:	31 c9                	xor    %ecx,%ecx
  405938:	41 b8 8e 00 00 00    	mov    $0x8e,%r8d
  40593e:	ba 08 00 00 00       	mov    $0x8,%edx
  405943:	48 b8 98 fc ff ff ff 	movabs $0xfffffffffffffc98,%rax
  40594a:	ff ff ff 
  40594d:	bf a3 00 00 00       	mov    $0xa3,%edi
  405952:	49 8b 34 07          	mov    (%r15,%rax,1),%rsi
  405956:	ff d3                	call   *%rbx
  405958:	31 c9                	xor    %ecx,%ecx
  40595a:	41 b8 8e 00 00 00    	mov    $0x8e,%r8d
  405960:	ba 08 00 00 00       	mov    $0x8,%edx
  405965:	48 b8 b0 f9 ff ff ff 	movabs $0xfffffffffffff9b0,%rax
  40596c:	ff ff ff 
  40596f:	bf a4 00 00 00       	mov    $0xa4,%edi
  405974:	49 8b 34 07          	mov    (%r15,%rax,1),%rsi
  405978:	ff d3                	call   *%rbx
  40597a:	31 c9                	xor    %ecx,%ecx
  40597c:	41 b8 8e 00 00 00    	mov    $0x8e,%r8d
  405982:	ba 08 00 00 00       	mov    $0x8,%edx
  405987:	48 b8 a0 fe ff ff ff 	movabs $0xfffffffffffffea0,%rax
  40598e:	ff ff ff 
  405991:	bf a5 00 00 00       	mov    $0xa5,%edi
  405996:	49 8b 34 07          	mov    (%r15,%rax,1),%rsi
  40599a:	ff d3                	call   *%rbx
  40599c:	31 c9                	xor    %ecx,%ecx
  40599e:	41 b8 8e 00 00 00    	mov    $0x8e,%r8d
  4059a4:	ba 08 00 00 00       	mov    $0x8,%edx
  4059a9:	48 b8 a8 fb ff ff ff 	movabs $0xfffffffffffffba8,%rax
  4059b0:	ff ff ff 
  4059b3:	bf a6 00 00 00       	mov    $0xa6,%edi
  4059b8:	49 8b 34 07          	mov    (%r15,%rax,1),%rsi
  4059bc:	ff d3                	call   *%rbx
  4059be:	31 c9                	xor    %ecx,%ecx
  4059c0:	41 b8 8e 00 00 00    	mov    $0x8e,%r8d
  4059c6:	ba 08 00 00 00       	mov    $0x8,%edx
  4059cb:	48 b8 d0 f8 ff ff ff 	movabs $0xfffffffffffff8d0,%rax
  4059d2:	ff ff ff 
  4059d5:	bf a7 00 00 00       	mov    $0xa7,%edi
  4059da:	49 8b 34 07          	mov    (%r15,%rax,1),%rsi
  4059de:	ff d3                	call   *%rbx
  4059e0:	31 c9                	xor    %ecx,%ecx
  4059e2:	41 b8 8e 00 00 00    	mov    $0x8e,%r8d
  4059e8:	ba 08 00 00 00       	mov    $0x8,%edx
  4059ed:	48 b8 d0 fd ff ff ff 	movabs $0xfffffffffffffdd0,%rax
  4059f4:	ff ff ff 
  4059f7:	bf a8 00 00 00       	mov    $0xa8,%edi
  4059fc:	49 8b 34 07          	mov    (%r15,%rax,1),%rsi
  405a00:	ff d3                	call   *%rbx
  405a02:	31 c9                	xor    %ecx,%ecx
  405a04:	41 b8 8e 00 00 00    	mov    $0x8e,%r8d
  405a0a:	ba 08 00 00 00       	mov    $0x8,%edx
  405a0f:	48 b8 d8 fa ff ff ff 	movabs $0xfffffffffffffad8,%rax
  405a16:	ff ff ff 
  405a19:	bf a9 00 00 00       	mov    $0xa9,%edi
  405a1e:	49 8b 34 07          	mov    (%r15,%rax,1),%rsi
  405a22:	ff d3                	call   *%rbx
  405a24:	31 c9                	xor    %ecx,%ecx
  405a26:	41 b8 8e 00 00 00    	mov    $0x8e,%r8d
  405a2c:	ba 08 00 00 00       	mov    $0x8,%edx
  405a31:	48 b8 c0 f9 ff ff ff 	movabs $0xfffffffffffff9c0,%rax
  405a38:	ff ff ff 
  405a3b:	bf aa 00 00 00       	mov    $0xaa,%edi
  405a40:	49 8b 34 07          	mov    (%r15,%rax,1),%rsi
  405a44:	ff d3                	call   *%rbx
  405a46:	31 c9                	xor    %ecx,%ecx
  405a48:	41 b8 8e 00 00 00    	mov    $0x8e,%r8d
  405a4e:	ba 08 00 00 00       	mov    $0x8,%edx
  405a53:	48 b8 c0 fe ff ff ff 	movabs $0xfffffffffffffec0,%rax
  405a5a:	ff ff ff 
  405a5d:	bf ab 00 00 00       	mov    $0xab,%edi
  405a62:	49 8b 34 07          	mov    (%r15,%rax,1),%rsi
  405a66:	ff d3                	call   *%rbx
  405a68:	31 c9                	xor    %ecx,%ecx
  405a6a:	41 b8 8e 00 00 00    	mov    $0x8e,%r8d
  405a70:	ba 08 00 00 00       	mov    $0x8,%edx
  405a75:	48 b8 70 fd ff ff ff 	movabs $0xfffffffffffffd70,%rax
  405a7c:	ff ff ff 
  405a7f:	bf ac 00 00 00       	mov    $0xac,%edi
  405a84:	49 8b 34 07          	mov    (%r15,%rax,1),%rsi
  405a88:	ff d3                	call   *%rbx
  405a8a:	31 c9                	xor    %ecx,%ecx
  405a8c:	41 b8 8e 00 00 00    	mov    $0x8e,%r8d
  405a92:	ba 08 00 00 00       	mov    $0x8,%edx
  405a97:	48 b8 18 f8 ff ff ff 	movabs $0xfffffffffffff818,%rax
  405a9e:	ff ff ff 
  405aa1:	bf ad 00 00 00       	mov    $0xad,%edi
  405aa6:	49 8b 34 07          	mov    (%r15,%rax,1),%rsi
  405aaa:	ff d3                	call   *%rbx
  405aac:	31 c9                	xor    %ecx,%ecx
  405aae:	41 b8 8e 00 00 00    	mov    $0x8e,%r8d
  405ab4:	ba 08 00 00 00       	mov    $0x8,%edx
  405ab9:	48 b8 58 ff ff ff ff 	movabs $0xffffffffffffff58,%rax
  405ac0:	ff ff ff 
  405ac3:	bf ae 00 00 00       	mov    $0xae,%edi
  405ac8:	49 8b 34 07          	mov    (%r15,%rax,1),%rsi
  405acc:	ff d3                	call   *%rbx
  405ace:	31 c9                	xor    %ecx,%ecx
  405ad0:	41 b8 8e 00 00 00    	mov    $0x8e,%r8d
  405ad6:	ba 08 00 00 00       	mov    $0x8,%edx
  405adb:	48 b8 08 fa ff ff ff 	movabs $0xfffffffffffffa08,%rax
  405ae2:	ff ff ff 
  405ae5:	bf af 00 00 00       	mov    $0xaf,%edi
  405aea:	49 8b 34 07          	mov    (%r15,%rax,1),%rsi
  405aee:	ff d3                	call   *%rbx
  405af0:	41 b8 8e 00 00 00    	mov    $0x8e,%r8d
  405af6:	31 c9                	xor    %ecx,%ecx
  405af8:	ba 08 00 00 00       	mov    $0x8,%edx
  405afd:	48 b8 f8 f8 ff ff ff 	movabs $0xfffffffffffff8f8,%rax
  405b04:	ff ff ff 
  405b07:	bf b0 00 00 00       	mov    $0xb0,%edi
  405b0c:	49 8b 34 07          	mov    (%r15,%rax,1),%rsi
  405b10:	ff d3                	call   *%rbx
  405b12:	31 c9                	xor    %ecx,%ecx
  405b14:	41 b8 8e 00 00 00    	mov    $0x8e,%r8d
  405b1a:	ba 08 00 00 00       	mov    $0x8,%edx
  405b1f:	48 b8 28 ff ff ff ff 	movabs $0xffffffffffffff28,%rax
  405b26:	ff ff ff 
  405b29:	bf b1 00 00 00       	mov    $0xb1,%edi
  405b2e:	49 8b 34 07          	mov    (%r15,%rax,1),%rsi
  405b32:	ff d3                	call   *%rbx
  405b34:	31 c9                	xor    %ecx,%ecx
  405b36:	41 b8 8e 00 00 00    	mov    $0x8e,%r8d
  405b3c:	ba 08 00 00 00       	mov    $0x8,%edx
  405b41:	48 b8 d0 f9 ff ff ff 	movabs $0xfffffffffffff9d0,%rax
  405b48:	ff ff ff 
  405b4b:	bf b2 00 00 00       	mov    $0xb2,%edi
  405b50:	49 8b 34 07          	mov    (%r15,%rax,1),%rsi
  405b54:	ff d3                	call   *%rbx
  405b56:	31 c9                	xor    %ecx,%ecx
  405b58:	41 b8 8e 00 00 00    	mov    $0x8e,%r8d
  405b5e:	ba 08 00 00 00       	mov    $0x8,%edx
  405b63:	48 b8 08 f9 ff ff ff 	movabs $0xfffffffffffff908,%rax
  405b6a:	ff ff ff 
  405b6d:	bf b3 00 00 00       	mov    $0xb3,%edi
  405b72:	49 8b 34 07          	mov    (%r15,%rax,1),%rsi
  405b76:	ff d3                	call   *%rbx
  405b78:	31 c9                	xor    %ecx,%ecx
  405b7a:	41 b8 8e 00 00 00    	mov    $0x8e,%r8d
  405b80:	ba 08 00 00 00       	mov    $0x8,%edx
  405b85:	48 b8 b0 fb ff ff ff 	movabs $0xfffffffffffffbb0,%rax
  405b8c:	ff ff ff 
  405b8f:	bf b4 00 00 00       	mov    $0xb4,%edi
  405b94:	49 8b 34 07          	mov    (%r15,%rax,1),%rsi
  405b98:	ff d3                	call   *%rbx
  405b9a:	31 c9                	xor    %ecx,%ecx
  405b9c:	41 b8 8e 00 00 00    	mov    $0x8e,%r8d
  405ba2:	ba 08 00 00 00       	mov    $0x8,%edx
  405ba7:	48 b8 e8 ff ff ff ff 	movabs $0xffffffffffffffe8,%rax
  405bae:	ff ff ff 
  405bb1:	bf b5 00 00 00       	mov    $0xb5,%edi
  405bb6:	49 8b 34 07          	mov    (%r15,%rax,1),%rsi
  405bba:	ff d3                	call   *%rbx
  405bbc:	31 c9                	xor    %ecx,%ecx
  405bbe:	41 b8 8e 00 00 00    	mov    $0x8e,%r8d
  405bc4:	ba 08 00 00 00       	mov    $0x8,%edx
  405bc9:	48 b8 e8 fc ff ff ff 	movabs $0xfffffffffffffce8,%rax
  405bd0:	ff ff ff 
  405bd3:	bf b6 00 00 00       	mov    $0xb6,%edi
  405bd8:	49 8b 34 07          	mov    (%r15,%rax,1),%rsi
  405bdc:	ff d3                	call   *%rbx
  405bde:	31 c9                	xor    %ecx,%ecx
  405be0:	41 b8 8e 00 00 00    	mov    $0x8e,%r8d
  405be6:	ba 08 00 00 00       	mov    $0x8,%edx
  405beb:	48 b8 d8 f9 ff ff ff 	movabs $0xfffffffffffff9d8,%rax
  405bf2:	ff ff ff 
  405bf5:	bf b7 00 00 00       	mov    $0xb7,%edi
  405bfa:	49 8b 34 07          	mov    (%r15,%rax,1),%rsi
  405bfe:	ff d3                	call   *%rbx
  405c00:	31 c9                	xor    %ecx,%ecx
  405c02:	41 b8 8e 00 00 00    	mov    $0x8e,%r8d
  405c08:	ba 08 00 00 00       	mov    $0x8,%edx
  405c0d:	48 b8 f0 fe ff ff ff 	movabs $0xfffffffffffffef0,%rax
  405c14:	ff ff ff 
  405c17:	bf b8 00 00 00       	mov    $0xb8,%edi
  405c1c:	49 8b 34 07          	mov    (%r15,%rax,1),%rsi
  405c20:	ff d3                	call   *%rbx
  405c22:	31 c9                	xor    %ecx,%ecx
  405c24:	41 b8 8e 00 00 00    	mov    $0x8e,%r8d
  405c2a:	ba 08 00 00 00       	mov    $0x8,%edx
  405c2f:	48 b8 98 fa ff ff ff 	movabs $0xfffffffffffffa98,%rax
  405c36:	ff ff ff 
  405c39:	bf b9 00 00 00       	mov    $0xb9,%edi
  405c3e:	48 bb d0 73 fe ff ff 	movabs $0xfffffffffffe73d0,%rbx
  405c45:	ff ff ff 
  405c48:	4c 01 fb             	add    %r15,%rbx
  405c4b:	49 8b 34 07          	mov    (%r15,%rax,1),%rsi
  405c4f:	ff d3                	call   *%rbx
  405c51:	31 c9                	xor    %ecx,%ecx
  405c53:	41 b8 8e 00 00 00    	mov    $0x8e,%r8d
  405c59:	ba 08 00 00 00       	mov    $0x8,%edx
  405c5e:	48 b8 20 f9 ff ff ff 	movabs $0xfffffffffffff920,%rax
  405c65:	ff ff ff 
  405c68:	bf ba 00 00 00       	mov    $0xba,%edi
  405c6d:	49 8b 34 07          	mov    (%r15,%rax,1),%rsi
  405c71:	ff d3                	call   *%rbx
  405c73:	31 c9                	xor    %ecx,%ecx
  405c75:	41 b8 8e 00 00 00    	mov    $0x8e,%r8d
  405c7b:	ba 08 00 00 00       	mov    $0x8,%edx
  405c80:	48 b8 18 fe ff ff ff 	movabs $0xfffffffffffffe18,%rax
  405c87:	ff ff ff 
  405c8a:	bf bb 00 00 00       	mov    $0xbb,%edi
  405c8f:	49 8b 34 07          	mov    (%r15,%rax,1),%rsi
  405c93:	ff d3                	call   *%rbx
  405c95:	31 c9                	xor    %ecx,%ecx
  405c97:	41 b8 8e 00 00 00    	mov    $0x8e,%r8d
  405c9d:	ba 08 00 00 00       	mov    $0x8,%edx
  405ca2:	48 b8 70 fe ff ff ff 	movabs $0xfffffffffffffe70,%rax
  405ca9:	ff ff ff 
  405cac:	bf bc 00 00 00       	mov    $0xbc,%edi
  405cb1:	49 8b 34 07          	mov    (%r15,%rax,1),%rsi
  405cb5:	ff d3                	call   *%rbx
  405cb7:	31 c9                	xor    %ecx,%ecx
  405cb9:	41 b8 8e 00 00 00    	mov    $0x8e,%r8d
  405cbf:	ba 08 00 00 00       	mov    $0x8,%edx
  405cc4:	48 b8 60 fb ff ff ff 	movabs $0xfffffffffffffb60,%rax
  405ccb:	ff ff ff 
  405cce:	bf bd 00 00 00       	mov    $0xbd,%edi
  405cd3:	49 8b 34 07          	mov    (%r15,%rax,1),%rsi
  405cd7:	ff d3                	call   *%rbx
  405cd9:	31 c9                	xor    %ecx,%ecx
  405cdb:	41 b8 8e 00 00 00    	mov    $0x8e,%r8d
  405ce1:	ba 08 00 00 00       	mov    $0x8,%edx
  405ce6:	48 b8 a8 f8 ff ff ff 	movabs $0xfffffffffffff8a8,%rax
  405ced:	ff ff ff 
  405cf0:	bf be 00 00 00       	mov    $0xbe,%edi
  405cf5:	49 8b 34 07          	mov    (%r15,%rax,1),%rsi
  405cf9:	ff d3                	call   *%rbx
  405cfb:	41 b8 8e 00 00 00    	mov    $0x8e,%r8d
  405d01:	31 c9                	xor    %ecx,%ecx
  405d03:	ba 08 00 00 00       	mov    $0x8,%edx
  405d08:	48 b8 48 fb ff ff ff 	movabs $0xfffffffffffffb48,%rax
  405d0f:	ff ff ff 
  405d12:	bf bf 00 00 00       	mov    $0xbf,%edi
  405d17:	49 8b 34 07          	mov    (%r15,%rax,1),%rsi
  405d1b:	ff d3                	call   *%rbx
  405d1d:	31 c9                	xor    %ecx,%ecx
  405d1f:	41 b8 8e 00 00 00    	mov    $0x8e,%r8d
  405d25:	ba 08 00 00 00       	mov    $0x8,%edx
  405d2a:	48 b8 b8 f9 ff ff ff 	movabs $0xfffffffffffff9b8,%rax
  405d31:	ff ff ff 
  405d34:	bf c0 00 00 00       	mov    $0xc0,%edi
  405d39:	49 8b 34 07          	mov    (%r15,%rax,1),%rsi
  405d3d:	ff d3                	call   *%rbx
  405d3f:	31 c9                	xor    %ecx,%ecx
  405d41:	41 b8 8e 00 00 00    	mov    $0x8e,%r8d
  405d47:	ba 08 00 00 00       	mov    $0x8,%edx
  405d4c:	48 b8 30 fc ff ff ff 	movabs $0xfffffffffffffc30,%rax
  405d53:	ff ff ff 
  405d56:	bf c1 00 00 00       	mov    $0xc1,%edi
  405d5b:	49 8b 34 07          	mov    (%r15,%rax,1),%rsi
  405d5f:	ff d3                	call   *%rbx
  405d61:	31 c9                	xor    %ecx,%ecx
  405d63:	41 b8 8e 00 00 00    	mov    $0x8e,%r8d
  405d69:	ba 08 00 00 00       	mov    $0x8,%edx
  405d6e:	48 b8 b8 fb ff ff ff 	movabs $0xfffffffffffffbb8,%rax
  405d75:	ff ff ff 
  405d78:	bf c2 00 00 00       	mov    $0xc2,%edi
  405d7d:	49 8b 34 07          	mov    (%r15,%rax,1),%rsi
  405d81:	ff d3                	call   *%rbx
  405d83:	31 c9                	xor    %ecx,%ecx
  405d85:	41 b8 8e 00 00 00    	mov    $0x8e,%r8d
  405d8b:	ba 08 00 00 00       	mov    $0x8,%edx
  405d90:	48 b8 80 fe ff ff ff 	movabs $0xfffffffffffffe80,%rax
  405d97:	ff ff ff 
  405d9a:	bf c3 00 00 00       	mov    $0xc3,%edi
  405d9f:	49 8b 34 07          	mov    (%r15,%rax,1),%rsi
  405da3:	ff d3                	call   *%rbx
  405da5:	31 c9                	xor    %ecx,%ecx
  405da7:	41 b8 8e 00 00 00    	mov    $0x8e,%r8d
  405dad:	ba 08 00 00 00       	mov    $0x8,%edx
  405db2:	48 b8 d8 fd ff ff ff 	movabs $0xfffffffffffffdd8,%rax
  405db9:	ff ff ff 
  405dbc:	bf c4 00 00 00       	mov    $0xc4,%edi
  405dc1:	49 8b 34 07          	mov    (%r15,%rax,1),%rsi
  405dc5:	ff d3                	call   *%rbx
  405dc7:	31 c9                	xor    %ecx,%ecx
  405dc9:	41 b8 8e 00 00 00    	mov    $0x8e,%r8d
  405dcf:	ba 08 00 00 00       	mov    $0x8,%edx
  405dd4:	48 b8 88 f8 ff ff ff 	movabs $0xfffffffffffff888,%rax
  405ddb:	ff ff ff 
  405dde:	bf c5 00 00 00       	mov    $0xc5,%edi
  405de3:	49 8b 34 07          	mov    (%r15,%rax,1),%rsi
  405de7:	ff d3                	call   *%rbx
  405de9:	31 c9                	xor    %ecx,%ecx
  405deb:	41 b8 8e 00 00 00    	mov    $0x8e,%r8d
  405df1:	ba 08 00 00 00       	mov    $0x8,%edx
  405df6:	48 b8 20 fb ff ff ff 	movabs $0xfffffffffffffb20,%rax
  405dfd:	ff ff ff 
  405e00:	bf c6 00 00 00       	mov    $0xc6,%edi
  405e05:	49 8b 34 07          	mov    (%r15,%rax,1),%rsi
  405e09:	ff d3                	call   *%rbx
  405e0b:	31 c9                	xor    %ecx,%ecx
  405e0d:	41 b8 8e 00 00 00    	mov    $0x8e,%r8d
  405e13:	ba 08 00 00 00       	mov    $0x8,%edx
  405e18:	48 b8 58 f8 ff ff ff 	movabs $0xfffffffffffff858,%rax
  405e1f:	ff ff ff 
  405e22:	bf c7 00 00 00       	mov    $0xc7,%edi
  405e27:	49 8b 34 07          	mov    (%r15,%rax,1),%rsi
  405e2b:	ff d3                	call   *%rbx
  405e2d:	31 c9                	xor    %ecx,%ecx
  405e2f:	41 b8 8e 00 00 00    	mov    $0x8e,%r8d
  405e35:	ba 08 00 00 00       	mov    $0x8,%edx
  405e3a:	48 b8 38 fd ff ff ff 	movabs $0xfffffffffffffd38,%rax
  405e41:	ff ff ff 
  405e44:	bf c8 00 00 00       	mov    $0xc8,%edi
  405e49:	49 8b 34 07          	mov    (%r15,%rax,1),%rsi
  405e4d:	ff d3                	call   *%rbx
  405e4f:	31 c9                	xor    %ecx,%ecx
  405e51:	41 b8 8e 00 00 00    	mov    $0x8e,%r8d
  405e57:	ba 08 00 00 00       	mov    $0x8,%edx
  405e5c:	48 b8 30 fa ff ff ff 	movabs $0xfffffffffffffa30,%rax
  405e63:	ff ff ff 
  405e66:	bf c9 00 00 00       	mov    $0xc9,%edi
  405e6b:	49 8b 34 07          	mov    (%r15,%rax,1),%rsi
  405e6f:	ff d3                	call   *%rbx
  405e71:	31 c9                	xor    %ecx,%ecx
  405e73:	41 b8 8e 00 00 00    	mov    $0x8e,%r8d
  405e79:	ba 08 00 00 00       	mov    $0x8,%edx
  405e7e:	48 b8 c0 fa ff ff ff 	movabs $0xfffffffffffffac0,%rax
  405e85:	ff ff ff 
  405e88:	bf ca 00 00 00       	mov    $0xca,%edi
  405e8d:	49 8b 34 07          	mov    (%r15,%rax,1),%rsi
  405e91:	ff d3                	call   *%rbx
  405e93:	31 c9                	xor    %ecx,%ecx
  405e95:	41 b8 8e 00 00 00    	mov    $0x8e,%r8d
  405e9b:	ba 08 00 00 00       	mov    $0x8,%edx
  405ea0:	48 b8 b8 fd ff ff ff 	movabs $0xfffffffffffffdb8,%rax
  405ea7:	ff ff ff 
  405eaa:	bf cb 00 00 00       	mov    $0xcb,%edi
  405eaf:	49 8b 34 07          	mov    (%r15,%rax,1),%rsi
  405eb3:	ff d3                	call   *%rbx
  405eb5:	31 c9                	xor    %ecx,%ecx
  405eb7:	41 b8 8e 00 00 00    	mov    $0x8e,%r8d
  405ebd:	ba 08 00 00 00       	mov    $0x8,%edx
  405ec2:	48 b8 d0 fa ff ff ff 	movabs $0xfffffffffffffad0,%rax
  405ec9:	ff ff ff 
  405ecc:	bf cc 00 00 00       	mov    $0xcc,%edi
  405ed1:	49 8b 34 07          	mov    (%r15,%rax,1),%rsi
  405ed5:	ff d3                	call   *%rbx
  405ed7:	31 c9                	xor    %ecx,%ecx
  405ed9:	41 b8 8e 00 00 00    	mov    $0x8e,%r8d
  405edf:	ba 08 00 00 00       	mov    $0x8,%edx
  405ee4:	48 b8 08 fb ff ff ff 	movabs $0xfffffffffffffb08,%rax
  405eeb:	ff ff ff 
  405eee:	bf cd 00 00 00       	mov    $0xcd,%edi
  405ef3:	49 8b 34 07          	mov    (%r15,%rax,1),%rsi
  405ef7:	ff d3                	call   *%rbx
  405ef9:	31 c9                	xor    %ecx,%ecx
  405efb:	41 b8 8e 00 00 00    	mov    $0x8e,%r8d
  405f01:	ba 08 00 00 00       	mov    $0x8,%edx
  405f06:	48 b8 28 f8 ff ff ff 	movabs $0xfffffffffffff828,%rax
  405f0d:	ff ff ff 
  405f10:	bf ce 00 00 00       	mov    $0xce,%edi
  405f15:	49 8b 34 07          	mov    (%r15,%rax,1),%rsi
  405f19:	ff d3                	call   *%rbx
  405f1b:	41 b8 8e 00 00 00    	mov    $0x8e,%r8d
  405f21:	31 c9                	xor    %ecx,%ecx
  405f23:	ba 08 00 00 00       	mov    $0x8,%edx
  405f28:	48 b8 c0 fb ff ff ff 	movabs $0xfffffffffffffbc0,%rax
  405f2f:	ff ff ff 
  405f32:	bf cf 00 00 00       	mov    $0xcf,%edi
  405f37:	49 8b 34 07          	mov    (%r15,%rax,1),%rsi
  405f3b:	ff d3                	call   *%rbx
  405f3d:	31 c9                	xor    %ecx,%ecx
  405f3f:	41 b8 8e 00 00 00    	mov    $0x8e,%r8d
  405f45:	ba 08 00 00 00       	mov    $0x8,%edx
  405f4a:	48 b8 c8 fd ff ff ff 	movabs $0xfffffffffffffdc8,%rax
  405f51:	ff ff ff 
  405f54:	bf d0 00 00 00       	mov    $0xd0,%edi
  405f59:	49 8b 34 07          	mov    (%r15,%rax,1),%rsi
  405f5d:	ff d3                	call   *%rbx
  405f5f:	31 c9                	xor    %ecx,%ecx
  405f61:	41 b8 8e 00 00 00    	mov    $0x8e,%r8d
  405f67:	ba 08 00 00 00       	mov    $0x8,%edx
  405f6c:	48 b8 10 fd ff ff ff 	movabs $0xfffffffffffffd10,%rax
  405f73:	ff ff ff 
  405f76:	bf d1 00 00 00       	mov    $0xd1,%edi
  405f7b:	49 8b 34 07          	mov    (%r15,%rax,1),%rsi
  405f7f:	ff d3                	call   *%rbx
  405f81:	31 c9                	xor    %ecx,%ecx
  405f83:	41 b8 8e 00 00 00    	mov    $0x8e,%r8d
  405f89:	ba 08 00 00 00       	mov    $0x8,%edx
  405f8e:	48 b8 c0 ff ff ff ff 	movabs $0xffffffffffffffc0,%rax
  405f95:	ff ff ff 
  405f98:	bf d2 00 00 00       	mov    $0xd2,%edi
  405f9d:	49 8b 34 07          	mov    (%r15,%rax,1),%rsi
  405fa1:	ff d3                	call   *%rbx
  405fa3:	31 c9                	xor    %ecx,%ecx
  405fa5:	41 b8 8e 00 00 00    	mov    $0x8e,%r8d
  405fab:	ba 08 00 00 00       	mov    $0x8,%edx
  405fb0:	48 b8 c0 fd ff ff ff 	movabs $0xfffffffffffffdc0,%rax
  405fb7:	ff ff ff 
  405fba:	bf d3 00 00 00       	mov    $0xd3,%edi
  405fbf:	49 8b 34 07          	mov    (%r15,%rax,1),%rsi
  405fc3:	ff d3                	call   *%rbx
  405fc5:	31 c9                	xor    %ecx,%ecx
  405fc7:	41 b8 8e 00 00 00    	mov    $0x8e,%r8d
  405fcd:	ba 08 00 00 00       	mov    $0x8,%edx
  405fd2:	48 b8 80 f8 ff ff ff 	movabs $0xfffffffffffff880,%rax
  405fd9:	ff ff ff 
  405fdc:	bf d4 00 00 00       	mov    $0xd4,%edi
  405fe1:	49 8b 34 07          	mov    (%r15,%rax,1),%rsi
  405fe5:	ff d3                	call   *%rbx
  405fe7:	31 c9                	xor    %ecx,%ecx
  405fe9:	41 b8 8e 00 00 00    	mov    $0x8e,%r8d
  405fef:	ba 08 00 00 00       	mov    $0x8,%edx
  405ff4:	48 b8 b0 ff ff ff ff 	movabs $0xffffffffffffffb0,%rax
  405ffb:	ff ff ff 
  405ffe:	bf d5 00 00 00       	mov    $0xd5,%edi
  406003:	49 8b 34 07          	mov    (%r15,%rax,1),%rsi
  406007:	ff d3                	call   *%rbx
  406009:	31 c9                	xor    %ecx,%ecx
  40600b:	41 b8 8e 00 00 00    	mov    $0x8e,%r8d
  406011:	ba 08 00 00 00       	mov    $0x8,%edx
  406016:	48 b8 58 fa ff ff ff 	movabs $0xfffffffffffffa58,%rax
  40601d:	ff ff ff 
  406020:	bf d6 00 00 00       	mov    $0xd6,%edi
  406025:	49 8b 34 07          	mov    (%r15,%rax,1),%rsi
  406029:	ff d3                	call   *%rbx
  40602b:	31 c9                	xor    %ecx,%ecx
  40602d:	41 b8 8e 00 00 00    	mov    $0x8e,%r8d
  406033:	ba 08 00 00 00       	mov    $0x8,%edx
  406038:	48 b8 38 f9 ff ff ff 	movabs $0xfffffffffffff938,%rax
  40603f:	ff ff ff 
  406042:	bf d7 00 00 00       	mov    $0xd7,%edi
  406047:	49 8b 34 07          	mov    (%r15,%rax,1),%rsi
  40604b:	ff d3                	call   *%rbx
  40604d:	31 c9                	xor    %ecx,%ecx
  40604f:	41 b8 8e 00 00 00    	mov    $0x8e,%r8d
  406055:	ba 08 00 00 00       	mov    $0x8,%edx
  40605a:	48 b8 60 fe ff ff ff 	movabs $0xfffffffffffffe60,%rax
  406061:	ff ff ff 
  406064:	bf d8 00 00 00       	mov    $0xd8,%edi
  406069:	49 8b 34 07          	mov    (%r15,%rax,1),%rsi
  40606d:	ff d3                	call   *%rbx
  40606f:	31 c9                	xor    %ecx,%ecx
  406071:	41 b8 8e 00 00 00    	mov    $0x8e,%r8d
  406077:	ba 08 00 00 00       	mov    $0x8,%edx
  40607c:	48 b8 50 fb ff ff ff 	movabs $0xfffffffffffffb50,%rax
  406083:	ff ff ff 
  406086:	bf d9 00 00 00       	mov    $0xd9,%edi
  40608b:	49 8b 34 07          	mov    (%r15,%rax,1),%rsi
  40608f:	ff d3                	call   *%rbx
  406091:	31 c9                	xor    %ecx,%ecx
  406093:	41 b8 8e 00 00 00    	mov    $0x8e,%r8d
  406099:	ba 08 00 00 00       	mov    $0x8,%edx
  40609e:	48 b8 28 f9 ff ff ff 	movabs $0xfffffffffffff928,%rax
  4060a5:	ff ff ff 
  4060a8:	bf da 00 00 00       	mov    $0xda,%edi
  4060ad:	49 8b 34 07          	mov    (%r15,%rax,1),%rsi
  4060b1:	ff d3                	call   *%rbx
  4060b3:	31 c9                	xor    %ecx,%ecx
  4060b5:	41 b8 8e 00 00 00    	mov    $0x8e,%r8d
  4060bb:	ba 08 00 00 00       	mov    $0x8,%edx
  4060c0:	48 b8 28 fe ff ff ff 	movabs $0xfffffffffffffe28,%rax
  4060c7:	ff ff ff 
  4060ca:	bf db 00 00 00       	mov    $0xdb,%edi
  4060cf:	49 8b 34 07          	mov    (%r15,%rax,1),%rsi
  4060d3:	ff d3                	call   *%rbx
  4060d5:	31 c9                	xor    %ecx,%ecx
  4060d7:	41 b8 8e 00 00 00    	mov    $0x8e,%r8d
  4060dd:	ba 08 00 00 00       	mov    $0x8,%edx
  4060e2:	48 b8 d0 ff ff ff ff 	movabs $0xffffffffffffffd0,%rax
  4060e9:	ff ff ff 
  4060ec:	bf dc 00 00 00       	mov    $0xdc,%edi
  4060f1:	49 8b 34 07          	mov    (%r15,%rax,1),%rsi
  4060f5:	ff d3                	call   *%rbx
  4060f7:	31 c9                	xor    %ecx,%ecx
  4060f9:	41 b8 8e 00 00 00    	mov    $0x8e,%r8d
  4060ff:	ba 08 00 00 00       	mov    $0x8,%edx
  406104:	48 b8 a8 fc ff ff ff 	movabs $0xfffffffffffffca8,%rax
  40610b:	ff ff ff 
  40610e:	bf dd 00 00 00       	mov    $0xdd,%edi
  406113:	49 8b 34 07          	mov    (%r15,%rax,1),%rsi
  406117:	ff d3                	call   *%rbx
  406119:	31 c9                	xor    %ecx,%ecx
  40611b:	41 b8 8e 00 00 00    	mov    $0x8e,%r8d
  406121:	ba 08 00 00 00       	mov    $0x8,%edx
  406126:	48 b8 30 fd ff ff ff 	movabs $0xfffffffffffffd30,%rax
  40612d:	ff ff ff 
  406130:	bf de 00 00 00       	mov    $0xde,%edi
  406135:	49 8b 34 07          	mov    (%r15,%rax,1),%rsi
  406139:	ff d3                	call   *%rbx
  40613b:	41 b8 8e 00 00 00    	mov    $0x8e,%r8d
  406141:	31 c9                	xor    %ecx,%ecx
  406143:	ba 08 00 00 00       	mov    $0x8,%edx
  406148:	48 b8 18 fa ff ff ff 	movabs $0xfffffffffffffa18,%rax
  40614f:	ff ff ff 
  406152:	bf df 00 00 00       	mov    $0xdf,%edi
  406157:	49 8b 34 07          	mov    (%r15,%rax,1),%rsi
  40615b:	ff d3                	call   *%rbx
  40615d:	31 c9                	xor    %ecx,%ecx
  40615f:	41 b8 8e 00 00 00    	mov    $0x8e,%r8d
  406165:	ba 08 00 00 00       	mov    $0x8,%edx
  40616a:	48 b8 68 fe ff ff ff 	movabs $0xfffffffffffffe68,%rax
  406171:	ff ff ff 
  406174:	bf e0 00 00 00       	mov    $0xe0,%edi
  406179:	49 8b 34 07          	mov    (%r15,%rax,1),%rsi
  40617d:	ff d3                	call   *%rbx
  40617f:	31 c9                	xor    %ecx,%ecx
  406181:	41 b8 8e 00 00 00    	mov    $0x8e,%r8d
  406187:	ba 08 00 00 00       	mov    $0x8,%edx
  40618c:	48 b8 10 f9 ff ff ff 	movabs $0xfffffffffffff910,%rax
  406193:	ff ff ff 
  406196:	bf e1 00 00 00       	mov    $0xe1,%edi
  40619b:	49 8b 34 07          	mov    (%r15,%rax,1),%rsi
  40619f:	ff d3                	call   *%rbx
  4061a1:	31 c9                	xor    %ecx,%ecx
  4061a3:	41 b8 8e 00 00 00    	mov    $0x8e,%r8d
  4061a9:	ba 08 00 00 00       	mov    $0x8,%edx
  4061ae:	48 b8 78 f8 ff ff ff 	movabs $0xfffffffffffff878,%rax
  4061b5:	ff ff ff 
  4061b8:	bf e2 00 00 00       	mov    $0xe2,%edi
  4061bd:	49 8b 34 07          	mov    (%r15,%rax,1),%rsi
  4061c1:	ff d3                	call   *%rbx
  4061c3:	31 c9                	xor    %ecx,%ecx
  4061c5:	41 b8 8e 00 00 00    	mov    $0x8e,%r8d
  4061cb:	ba 08 00 00 00       	mov    $0x8,%edx
  4061d0:	48 b8 f8 fa ff ff ff 	movabs $0xfffffffffffffaf8,%rax
  4061d7:	ff ff ff 
  4061da:	bf e3 00 00 00       	mov    $0xe3,%edi
  4061df:	49 8b 34 07          	mov    (%r15,%rax,1),%rsi
  4061e3:	ff d3                	call   *%rbx
  4061e5:	31 c9                	xor    %ecx,%ecx
  4061e7:	41 b8 8e 00 00 00    	mov    $0x8e,%r8d
  4061ed:	ba 08 00 00 00       	mov    $0x8,%edx
  4061f2:	48 b8 68 fa ff ff ff 	movabs $0xfffffffffffffa68,%rax
  4061f9:	ff ff ff 
  4061fc:	bf e4 00 00 00       	mov    $0xe4,%edi
  406201:	49 8b 34 07          	mov    (%r15,%rax,1),%rsi
  406205:	ff d3                	call   *%rbx
  406207:	31 c9                	xor    %ecx,%ecx
  406209:	41 b8 8e 00 00 00    	mov    $0x8e,%r8d
  40620f:	ba 08 00 00 00       	mov    $0x8,%edx
  406214:	48 b8 58 fd ff ff ff 	movabs $0xfffffffffffffd58,%rax
  40621b:	ff ff ff 
  40621e:	bf e5 00 00 00       	mov    $0xe5,%edi
  406223:	49 8b 34 07          	mov    (%r15,%rax,1),%rsi
  406227:	ff d3                	call   *%rbx
  406229:	31 c9                	xor    %ecx,%ecx
  40622b:	41 b8 8e 00 00 00    	mov    $0x8e,%r8d
  406231:	ba 08 00 00 00       	mov    $0x8,%edx
  406236:	48 b8 58 fc ff ff ff 	movabs $0xfffffffffffffc58,%rax
  40623d:	ff ff ff 
  406240:	bf e6 00 00 00       	mov    $0xe6,%edi
  406245:	49 8b 34 07          	mov    (%r15,%rax,1),%rsi
  406249:	ff d3                	call   *%rbx
  40624b:	31 c9                	xor    %ecx,%ecx
  40624d:	41 b8 8e 00 00 00    	mov    $0x8e,%r8d
  406253:	ba 08 00 00 00       	mov    $0x8,%edx
  406258:	48 b8 40 ff ff ff ff 	movabs $0xffffffffffffff40,%rax
  40625f:	ff ff ff 
  406262:	bf e7 00 00 00       	mov    $0xe7,%edi
  406267:	49 8b 34 07          	mov    (%r15,%rax,1),%rsi
  40626b:	ff d3                	call   *%rbx
  40626d:	31 c9                	xor    %ecx,%ecx
  40626f:	41 b8 8e 00 00 00    	mov    $0x8e,%r8d
  406275:	ba 08 00 00 00       	mov    $0x8,%edx
  40627a:	48 b8 a0 fc ff ff ff 	movabs $0xfffffffffffffca0,%rax
  406281:	ff ff ff 
  406284:	bf e8 00 00 00       	mov    $0xe8,%edi
  406289:	49 8b 34 07          	mov    (%r15,%rax,1),%rsi
  40628d:	ff d3                	call   *%rbx
  40628f:	31 c9                	xor    %ecx,%ecx
  406291:	41 b8 8e 00 00 00    	mov    $0x8e,%r8d
  406297:	ba 08 00 00 00       	mov    $0x8,%edx
  40629c:	48 b8 a8 f9 ff ff ff 	movabs $0xfffffffffffff9a8,%rax
  4062a3:	ff ff ff 
  4062a6:	bf e9 00 00 00       	mov    $0xe9,%edi
  4062ab:	49 8b 34 07          	mov    (%r15,%rax,1),%rsi
  4062af:	ff d3                	call   *%rbx
  4062b1:	31 c9                	xor    %ecx,%ecx
  4062b3:	41 b8 8e 00 00 00    	mov    $0x8e,%r8d
  4062b9:	ba 08 00 00 00       	mov    $0x8,%edx
  4062be:	48 b8 f0 fb ff ff ff 	movabs $0xfffffffffffffbf0,%rax
  4062c5:	ff ff ff 
  4062c8:	bf ea 00 00 00       	mov    $0xea,%edi
  4062cd:	49 8b 34 07          	mov    (%r15,%rax,1),%rsi
  4062d1:	ff d3                	call   *%rbx
  4062d3:	31 c9                	xor    %ecx,%ecx
  4062d5:	41 b8 8e 00 00 00    	mov    $0x8e,%r8d
  4062db:	ba 08 00 00 00       	mov    $0x8,%edx
  4062e0:	48 b8 38 fc ff ff ff 	movabs $0xfffffffffffffc38,%rax
  4062e7:	ff ff ff 
  4062ea:	bf eb 00 00 00       	mov    $0xeb,%edi
  4062ef:	49 8b 34 07          	mov    (%r15,%rax,1),%rsi
  4062f3:	ff d3                	call   *%rbx
  4062f5:	31 c9                	xor    %ecx,%ecx
  4062f7:	41 b8 8e 00 00 00    	mov    $0x8e,%r8d
  4062fd:	ba 08 00 00 00       	mov    $0x8,%edx
  406302:	48 b8 68 f9 ff ff ff 	movabs $0xfffffffffffff968,%rax
  406309:	ff ff ff 
  40630c:	bf ec 00 00 00       	mov    $0xec,%edi
  406311:	49 8b 34 07          	mov    (%r15,%rax,1),%rsi
  406315:	ff d3                	call   *%rbx
  406317:	31 c9                	xor    %ecx,%ecx
  406319:	41 b8 8e 00 00 00    	mov    $0x8e,%r8d
  40631f:	ba 08 00 00 00       	mov    $0x8,%edx
  406324:	48 b8 40 fc ff ff ff 	movabs $0xfffffffffffffc40,%rax
  40632b:	ff ff ff 
  40632e:	bf ed 00 00 00       	mov    $0xed,%edi
  406333:	49 8b 34 07          	mov    (%r15,%rax,1),%rsi
  406337:	ff d3                	call   *%rbx
  406339:	31 c9                	xor    %ecx,%ecx
  40633b:	41 b8 8e 00 00 00    	mov    $0x8e,%r8d
  406341:	ba 08 00 00 00       	mov    $0x8,%edx
  406346:	48 b8 70 f9 ff ff ff 	movabs $0xfffffffffffff970,%rax
  40634d:	ff ff ff 
  406350:	bf ee 00 00 00       	mov    $0xee,%edi
  406355:	49 8b 34 07          	mov    (%r15,%rax,1),%rsi
  406359:	ff d3                	call   *%rbx
  40635b:	41 b8 8e 00 00 00    	mov    $0x8e,%r8d
  406361:	31 c9                	xor    %ecx,%ecx
  406363:	ba 08 00 00 00       	mov    $0x8,%edx
  406368:	48 b8 c8 f9 ff ff ff 	movabs $0xfffffffffffff9c8,%rax
  40636f:	ff ff ff 
  406372:	bf ef 00 00 00       	mov    $0xef,%edi
  406377:	49 8b 34 07          	mov    (%r15,%rax,1),%rsi
  40637b:	ff d3                	call   *%rbx
  40637d:	31 c9                	xor    %ecx,%ecx
  40637f:	41 b8 8e 00 00 00    	mov    $0x8e,%r8d
  406385:	ba 08 00 00 00       	mov    $0x8,%edx
  40638a:	48 b8 30 ff ff ff ff 	movabs $0xffffffffffffff30,%rax
  406391:	ff ff ff 
  406394:	bf f0 00 00 00       	mov    $0xf0,%edi
  406399:	49 8b 34 07          	mov    (%r15,%rax,1),%rsi
  40639d:	ff d3                	call   *%rbx
  40639f:	41 b8 8e 00 00 00    	mov    $0x8e,%r8d
  4063a5:	31 c9                	xor    %ecx,%ecx
  4063a7:	ba 08 00 00 00       	mov    $0x8,%edx
  4063ac:	48 b8 08 fc ff ff ff 	movabs $0xfffffffffffffc08,%rax
  4063b3:	ff ff ff 
  4063b6:	bf f1 00 00 00       	mov    $0xf1,%edi
  4063bb:	49 8b 34 07          	mov    (%r15,%rax,1),%rsi
  4063bf:	ff d3                	call   *%rbx
  4063c1:	41 b8 8e 00 00 00    	mov    $0x8e,%r8d
  4063c7:	31 c9                	xor    %ecx,%ecx
  4063c9:	ba 08 00 00 00       	mov    $0x8,%edx
  4063ce:	48 b8 18 f9 ff ff ff 	movabs $0xfffffffffffff918,%rax
  4063d5:	ff ff ff 
  4063d8:	bf f2 00 00 00       	mov    $0xf2,%edi
  4063dd:	49 8b 34 07          	mov    (%r15,%rax,1),%rsi
  4063e1:	ff d3                	call   *%rbx
  4063e3:	41 b8 8e 00 00 00    	mov    $0x8e,%r8d
  4063e9:	31 c9                	xor    %ecx,%ecx
  4063eb:	ba 08 00 00 00       	mov    $0x8,%edx
  4063f0:	48 b8 10 fe ff ff ff 	movabs $0xfffffffffffffe10,%rax
  4063f7:	ff ff ff 
  4063fa:	bf f3 00 00 00       	mov    $0xf3,%edi
  4063ff:	49 8b 34 07          	mov    (%r15,%rax,1),%rsi
  406403:	ff d3                	call   *%rbx
  406405:	41 b8 8e 00 00 00    	mov    $0x8e,%r8d
  40640b:	31 c9                	xor    %ecx,%ecx
  40640d:	ba 08 00 00 00       	mov    $0x8,%edx
  406412:	48 b8 00 fb ff ff ff 	movabs $0xfffffffffffffb00,%rax
  406419:	ff ff ff 
  40641c:	bf f4 00 00 00       	mov    $0xf4,%edi
  406421:	49 8b 34 07          	mov    (%r15,%rax,1),%rsi
  406425:	ff d3                	call   *%rbx
  406427:	41 b8 8e 00 00 00    	mov    $0x8e,%r8d
  40642d:	31 c9                	xor    %ecx,%ecx
  40642f:	ba 08 00 00 00       	mov    $0x8,%edx
  406434:	48 b8 10 f8 ff ff ff 	movabs $0xfffffffffffff810,%rax
  40643b:	ff ff ff 
  40643e:	bf f5 00 00 00       	mov    $0xf5,%edi
  406443:	49 8b 34 07          	mov    (%r15,%rax,1),%rsi
  406447:	ff d3                	call   *%rbx
  406449:	41 b8 8e 00 00 00    	mov    $0x8e,%r8d
  40644f:	31 c9                	xor    %ecx,%ecx
  406451:	ba 08 00 00 00       	mov    $0x8,%edx
  406456:	48 b8 08 fd ff ff ff 	movabs $0xfffffffffffffd08,%rax
  40645d:	ff ff ff 
  406460:	bf f6 00 00 00       	mov    $0xf6,%edi
  406465:	49 8b 34 07          	mov    (%r15,%rax,1),%rsi
  406469:	ff d3                	call   *%rbx
  40646b:	41 b8 8e 00 00 00    	mov    $0x8e,%r8d
  406471:	31 c9                	xor    %ecx,%ecx
  406473:	ba 08 00 00 00       	mov    $0x8,%edx
  406478:	48 b8 10 fa ff ff ff 	movabs $0xfffffffffffffa10,%rax
  40647f:	ff ff ff 
  406482:	bf f7 00 00 00       	mov    $0xf7,%edi
  406487:	49 8b 34 07          	mov    (%r15,%rax,1),%rsi
  40648b:	ff d3                	call   *%rbx
  40648d:	41 b8 8e 00 00 00    	mov    $0x8e,%r8d
  406493:	31 c9                	xor    %ecx,%ecx
  406495:	ba 08 00 00 00       	mov    $0x8,%edx
  40649a:	48 b8 80 fb ff ff ff 	movabs $0xfffffffffffffb80,%rax
  4064a1:	ff ff ff 
  4064a4:	bf f8 00 00 00       	mov    $0xf8,%edi
  4064a9:	49 8b 34 07          	mov    (%r15,%rax,1),%rsi
  4064ad:	ff d3                	call   *%rbx
  4064af:	41 b8 8e 00 00 00    	mov    $0x8e,%r8d
  4064b5:	31 c9                	xor    %ecx,%ecx
  4064b7:	ba 08 00 00 00       	mov    $0x8,%edx
  4064bc:	48 b8 48 fe ff ff ff 	movabs $0xfffffffffffffe48,%rax
  4064c3:	ff ff ff 
  4064c6:	bf f9 00 00 00       	mov    $0xf9,%edi
  4064cb:	49 8b 34 07          	mov    (%r15,%rax,1),%rsi
  4064cf:	ff d3                	call   *%rbx
  4064d1:	41 b8 8e 00 00 00    	mov    $0x8e,%r8d
  4064d7:	31 c9                	xor    %ecx,%ecx
  4064d9:	ba 08 00 00 00       	mov    $0x8,%edx
  4064de:	48 b8 18 fd ff ff ff 	movabs $0xfffffffffffffd18,%rax
  4064e5:	ff ff ff 
  4064e8:	bf fa 00 00 00       	mov    $0xfa,%edi
  4064ed:	49 8b 34 07          	mov    (%r15,%rax,1),%rsi
  4064f1:	ff d3                	call   *%rbx
  4064f3:	41 b8 8e 00 00 00    	mov    $0x8e,%r8d
  4064f9:	31 c9                	xor    %ecx,%ecx
  4064fb:	ba 08 00 00 00       	mov    $0x8,%edx
  406500:	48 b8 20 fc ff ff ff 	movabs $0xfffffffffffffc20,%rax
  406507:	ff ff ff 
  40650a:	bf fb 00 00 00       	mov    $0xfb,%edi
  40650f:	49 8b 34 07          	mov    (%r15,%rax,1),%rsi
  406513:	ff d3                	call   *%rbx
  406515:	41 b8 8e 00 00 00    	mov    $0x8e,%r8d
  40651b:	31 c9                	xor    %ecx,%ecx
  40651d:	ba 08 00 00 00       	mov    $0x8,%edx
  406522:	48 b8 08 ff ff ff ff 	movabs $0xffffffffffffff08,%rax
  406529:	ff ff ff 
  40652c:	bf fc 00 00 00       	mov    $0xfc,%edi
  406531:	49 8b 34 07          	mov    (%r15,%rax,1),%rsi
  406535:	ff d3                	call   *%rbx
  406537:	41 b8 8e 00 00 00    	mov    $0x8e,%r8d
  40653d:	31 c9                	xor    %ecx,%ecx
  40653f:	ba 08 00 00 00       	mov    $0x8,%edx
  406544:	48 b8 20 fd ff ff ff 	movabs $0xfffffffffffffd20,%rax
  40654b:	ff ff ff 
  40654e:	bf fd 00 00 00       	mov    $0xfd,%edi
  406553:	49 8b 34 07          	mov    (%r15,%rax,1),%rsi
  406557:	ff d3                	call   *%rbx
  406559:	41 b8 8e 00 00 00    	mov    $0x8e,%r8d
  40655f:	31 c9                	xor    %ecx,%ecx
  406561:	ba 08 00 00 00       	mov    $0x8,%edx
  406566:	48 b8 c8 ff ff ff ff 	movabs $0xffffffffffffffc8,%rax
  40656d:	ff ff ff 
  406570:	bf fe 00 00 00       	mov    $0xfe,%edi
  406575:	49 8b 34 07          	mov    (%r15,%rax,1),%rsi
  406579:	ff d3                	call   *%rbx
  40657b:	41 b8 8e 00 00 00    	mov    $0x8e,%r8d
  406581:	31 c9                	xor    %ecx,%ecx
  406583:	ba 08 00 00 00       	mov    $0x8,%edx
  406588:	48 b8 10 ff ff ff ff 	movabs $0xffffffffffffff10,%rax
  40658f:	ff ff ff 
  406592:	bf ff 00 00 00       	mov    $0xff,%edi
  406597:	49 8b 34 07          	mov    (%r15,%rax,1),%rsi
  40659b:	48 83 c4 08          	add    $0x8,%rsp
  40659f:	48 89 d8             	mov    %rbx,%rax
  4065a2:	5b                   	pop    %rbx
  4065a3:	41 5f                	pop    %r15
  4065a5:	ff e0                	jmp    *%rax
  4065a7:	66 0f 1f 84 00 00 00 	nopw   0x0(%rax,%rax,1)
  4065ae:	00 00 

00000000004065b0 <platformInit>:
  4065b0:	f3 0f 1e fa          	endbr64 
  4065b4:	41 57                	push   %r15
  4065b6:	4c 8d 3d f7 ff ff ff 	lea    -0x9(%rip),%r15        # 4065b4 <platformInit+0x4>
  4065bd:	ba 08 00 00 00       	mov    $0x8,%edx
  4065c2:	31 f6                	xor    %esi,%esi
  4065c4:	53                   	push   %rbx
  4065c5:	bf 01 00 00 00       	mov    $0x1,%edi
  4065ca:	49 bb ec 68 01 00 00 	movabs $0x168ec,%r11
  4065d1:	00 00 00 
  4065d4:	48 bb c0 72 fe ff ff 	movabs $0xfffffffffffe72c0,%rbx
  4065db:	ff ff ff 
  4065de:	4d 01 df             	add    %r11,%r15
  4065e1:	4c 01 fb             	add    %r15,%rbx
  4065e4:	48 83 ec 08          	sub    $0x8,%rsp
  4065e8:	ff d3                	call   *%rbx
  4065ea:	ba 02 00 00 00       	mov    $0x2,%edx
  4065ef:	31 f6                	xor    %esi,%esi
  4065f1:	bf 02 00 00 00       	mov    $0x2,%edi
  4065f6:	ff d3                	call   *%rbx
  4065f8:	ba 08 00 00 00       	mov    $0x8,%edx
  4065fd:	be 03 00 00 00       	mov    $0x3,%esi
  406602:	bf 03 00 00 00       	mov    $0x3,%edi
  406607:	ff d3                	call   *%rbx
  406609:	be 03 00 00 00       	mov    $0x3,%esi
  40660e:	bf 04 00 00 00       	mov    $0x4,%edi
  406613:	ba 02 00 00 00       	mov    $0x2,%edx
  406618:	ff d3                	call   *%rbx
  40661a:	31 c0                	xor    %eax,%eax
  40661c:	48 ba 20 75 fe ff ff 	movabs $0xfffffffffffe7520,%rdx
  406623:	ff ff ff 
  406626:	4c 01 fa             	add    %r15,%rdx
  406629:	ff d2                	call   *%rdx
  40662b:	31 c0                	xor    %eax,%eax
  40662d:	48 ba 50 74 fe ff ff 	movabs $0xfffffffffffe7450,%rdx
  406634:	ff ff ff 
  406637:	4c 01 fa             	add    %r15,%rdx
  40663a:	ff d2                	call   *%rdx
  40663c:	48 83 c4 08          	add    $0x8,%rsp
  406640:	31 c0                	xor    %eax,%eax
  406642:	48 ba 20 c4 fe ff ff 	movabs $0xfffffffffffec420,%rdx
  406649:	ff ff ff 
  40664c:	4c 01 fa             	add    %r15,%rdx
  40664f:	5b                   	pop    %rbx
  406650:	41 5f                	pop    %r15
  406652:	ff e2                	jmp    *%rdx
  406654:	66 2e 0f 1f 84 00 00 	cs nopw 0x0(%rax,%rax,1)
  40665b:	00 00 00 
  40665e:	66 90                	xchg   %ax,%ax

0000000000406660 <_ZN4EXOS7Display17setDisplayAdapterEPNS_6Driver8Graphics15_DisplayAdapterE>:
  406660:	f3 0f 1e fa          	endbr64 
  406664:	48 8d 05 f9 ff ff ff 	lea    -0x7(%rip),%rax        # 406664 <_ZN4EXOS7Display17setDisplayAdapterEPNS_6Driver8Graphics15_DisplayAdapterE+0x4>
  40666b:	49 bb 3c 68 01 00 00 	movabs $0x1683c,%r11
  406672:	00 00 00 
  406675:	48 ba 60 f3 fe ff ff 	movabs $0xfffffffffffef360,%rdx
  40667c:	ff ff ff 
  40667f:	4c 01 d8             	add    %r11,%rax
  406682:	48 89 3c 02          	mov    %rdi,(%rdx,%rax,1)
  406686:	c3                   	ret    
  406687:	66 0f 1f 84 00 00 00 	nopw   0x0(%rax,%rax,1)
  40668e:	00 00 

0000000000406690 <_ZN4EXOS7Display17getDisplayAdapterEv>:
  406690:	f3 0f 1e fa          	endbr64 
  406694:	49 bb 0c 68 01 00 00 	movabs $0x1680c,%r11
  40669b:	00 00 00 
  40669e:	48 8d 05 ef ff ff ff 	lea    -0x11(%rip),%rax        # 406694 <_ZN4EXOS7Display17getDisplayAdapterEv+0x4>
  4066a5:	48 ba 60 f3 fe ff ff 	movabs $0xfffffffffffef360,%rdx
  4066ac:	ff ff ff 
  4066af:	4c 01 d8             	add    %r11,%rax
  4066b2:	48 8b 04 10          	mov    (%rax,%rdx,1),%rax
  4066b6:	c3                   	ret    
  4066b7:	66 0f 1f 84 00 00 00 	nopw   0x0(%rax,%rax,1)
  4066be:	00 00 

00000000004066c0 <_ZN4EXOS7Display9drawPixelEjjj>:
  4066c0:	f3 0f 1e fa          	endbr64 
  4066c4:	48 8d 05 f9 ff ff ff 	lea    -0x7(%rip),%rax        # 4066c4 <_ZN4EXOS7Display9drawPixelEjjj+0x4>
  4066cb:	89 d1                	mov    %edx,%ecx
  4066cd:	41 89 f8             	mov    %edi,%r8d
  4066d0:	49 bb dc 67 01 00 00 	movabs $0x167dc,%r11
  4066d7:	00 00 00 
  4066da:	48 ba 60 f3 fe ff ff 	movabs $0xfffffffffffef360,%rdx
  4066e1:	ff ff ff 
  4066e4:	4c 01 d8             	add    %r11,%rax
  4066e7:	48 8b 3c 10          	mov    (%rax,%rdx,1),%rdi
  4066eb:	89 f2                	mov    %esi,%edx
  4066ed:	44 89 c6             	mov    %r8d,%esi
  4066f0:	48 8b 07             	mov    (%rdi),%rax
  4066f3:	48 8b 00             	mov    (%rax),%rax
  4066f6:	ff e0                	jmp    *%rax
  4066f8:	0f 1f 84 00 00 00 00 	nopl   0x0(%rax,%rax,1)
  4066ff:	00 

0000000000406700 <_ZN4EXOS7Display8drawRectEjjjjj>:
  406700:	f3 0f 1e fa          	endbr64 
  406704:	49 bb 9c 67 01 00 00 	movabs $0x1679c,%r11
  40670b:	00 00 00 
  40670e:	41 57                	push   %r15
  406710:	4c 8d 3d ed ff ff ff 	lea    -0x13(%rip),%r15        # 406704 <_ZN4EXOS7Display8drawRectEjjjjj+0x4>
  406717:	41 56                	push   %r14
  406719:	4d 01 df             	add    %r11,%r15
  40671c:	41 55                	push   %r13
  40671e:	41 54                	push   %r12
  406720:	55                   	push   %rbp
  406721:	53                   	push   %rbx
  406722:	48 83 ec 18          	sub    $0x18,%rsp
  406726:	89 7c 24 08          	mov    %edi,0x8(%rsp)
  40672a:	85 c9                	test   %ecx,%ecx
  40672c:	74 4b                	je     406779 <_ZN4EXOS7Display8drawRectEjjjjj+0x79>
  40672e:	85 d2                	test   %edx,%edx
  406730:	74 47                	je     406779 <_ZN4EXOS7Display8drawRectEjjjjj+0x79>
  406732:	8d 04 31             	lea    (%rcx,%rsi,1),%eax
  406735:	89 f5                	mov    %esi,%ebp
  406737:	44 8d 2c 3a          	lea    (%rdx,%rdi,1),%r13d
  40673b:	45 89 c4             	mov    %r8d,%r12d
  40673e:	49 be 60 f3 fe ff ff 	movabs $0xfffffffffffef360,%r14
  406745:	ff ff ff 
  406748:	89 44 24 0c          	mov    %eax,0xc(%rsp)
  40674c:	0f 1f 40 00          	nopl   0x0(%rax)
  406750:	8b 5c 24 08          	mov    0x8(%rsp),%ebx
  406754:	0f 1f 40 00          	nopl   0x0(%rax)
  406758:	4b 8b 3c 3e          	mov    (%r14,%r15,1),%rdi
  40675c:	89 de                	mov    %ebx,%esi
  40675e:	83 c3 01             	add    $0x1,%ebx
  406761:	44 89 e1             	mov    %r12d,%ecx
  406764:	89 ea                	mov    %ebp,%edx
  406766:	48 8b 07             	mov    (%rdi),%rax
  406769:	ff 10                	call   *(%rax)
  40676b:	41 39 dd             	cmp    %ebx,%r13d
  40676e:	75 e8                	jne    406758 <_ZN4EXOS7Display8drawRectEjjjjj+0x58>
  406770:	83 c5 01             	add    $0x1,%ebp
  406773:	39 6c 24 0c          	cmp    %ebp,0xc(%rsp)
  406777:	75 d7                	jne    406750 <_ZN4EXOS7Display8drawRectEjjjjj+0x50>
  406779:	48 83 c4 18          	add    $0x18,%rsp
  40677d:	5b                   	pop    %rbx
  40677e:	5d                   	pop    %rbp
  40677f:	41 5c                	pop    %r12
  406781:	41 5d                	pop    %r13
  406783:	41 5e                	pop    %r14
  406785:	41 5f                	pop    %r15
  406787:	c3                   	ret    
  406788:	0f 1f 84 00 00 00 00 	nopl   0x0(%rax,%rax,1)
  40678f:	00 

0000000000406790 <_ZN4EXOS6Memory26EarlyKernelBufferAllocator8allocateEm>:
  406790:	f3 0f 1e fa          	endbr64 
  406794:	48 8d 05 f9 ff ff ff 	lea    -0x7(%rip),%rax        # 406794 <_ZN4EXOS6Memory26EarlyKernelBufferAllocator8allocateEm+0x4>
  40679b:	49 bb 0c 67 01 00 00 	movabs $0x1670c,%r11
  4067a2:	00 00 00 
  4067a5:	48 ba 40 00 00 00 00 	movabs $0x40,%rdx
  4067ac:	00 00 00 
  4067af:	48 b9 38 00 00 00 00 	movabs $0x38,%rcx
  4067b6:	00 00 00 
  4067b9:	4c 01 d8             	add    %r11,%rax
  4067bc:	4c 8b 04 10          	mov    (%rax,%rdx,1),%r8
  4067c0:	4c 01 c6             	add    %r8,%rsi
  4067c3:	48 3b 34 08          	cmp    (%rax,%rcx,1),%rsi
  4067c7:	77 0f                	ja     4067d8 <_ZN4EXOS6Memory26EarlyKernelBufferAllocator8allocateEm+0x48>
  4067c9:	48 89 34 10          	mov    %rsi,(%rax,%rdx,1)
  4067cd:	4c 89 c0             	mov    %r8,%rax
  4067d0:	c3                   	ret    
  4067d1:	0f 1f 80 00 00 00 00 	nopl   0x0(%rax)
  4067d8:	45 31 c0             	xor    %r8d,%r8d
  4067db:	4c 89 c0             	mov    %r8,%rax
  4067de:	c3                   	ret    
  4067df:	90                   	nop

00000000004067e0 <_ZN4EXOS6Memory26EarlyKernelBufferAllocator4freeEPv>:
  4067e0:	f3 0f 1e fa          	endbr64 
  4067e4:	c3                   	ret    
  4067e5:	66 2e 0f 1f 84 00 00 	cs nopw 0x0(%rax,%rax,1)
  4067ec:	00 00 00 
  4067ef:	90                   	nop

00000000004067f0 <_ZN4EXOS6Driver8Graphics18FramebufferConsole4initEPNS1_15_DisplayAdapterE>:
  4067f0:	f3 0f 1e fa          	endbr64 
  4067f4:	49 bb ac 66 01 00 00 	movabs $0x166ac,%r11
  4067fb:	00 00 00 
  4067fe:	41 57                	push   %r15
  406800:	4c 8d 3d ed ff ff ff 	lea    -0x13(%rip),%r15        # 4067f4 <_ZN4EXOS6Driver8Graphics18FramebufferConsole4initEPNS1_15_DisplayAdapterE+0x4>
  406807:	41 54                	push   %r12
  406809:	4d 01 df             	add    %r11,%r15
  40680c:	55                   	push   %rbp
  40680d:	48 8b 07             	mov    (%rdi),%rax
  406810:	48 89 fd             	mov    %rdi,%rbp
  406813:	ff 50 08             	call   *0x8(%rax)
  406816:	48 89 ef             	mov    %rbp,%rdi
  406819:	48 ba 94 f3 ff ff ff 	movabs $0xfffffffffffff394,%rdx
  406820:	ff ff ff 
  406823:	c1 e8 03             	shr    $0x3,%eax
  406826:	41 89 04 17          	mov    %eax,(%r15,%rdx,1)
  40682a:	48 8b 45 00          	mov    0x0(%rbp),%rax
  40682e:	ff 50 10             	call   *0x10(%rax)
  406831:	48 89 ef             	mov    %rbp,%rdi
  406834:	48 ba 90 f3 ff ff ff 	movabs $0xfffffffffffff390,%rdx
  40683b:	ff ff ff 
  40683e:	c1 e8 04             	shr    $0x4,%eax
  406841:	41 89 04 17          	mov    %eax,(%r15,%rdx,1)
  406845:	48 8b 45 00          	mov    0x0(%rbp),%rax
  406849:	ff 50 18             	call   *0x18(%rax)
  40684c:	48 89 ef             	mov    %rbp,%rdi
  40684f:	49 89 c0             	mov    %rax,%r8
  406852:	48 b8 80 f3 ff ff ff 	movabs $0xfffffffffffff380,%rax
  406859:	ff ff ff 
  40685c:	4e 89 04 38          	mov    %r8,(%rax,%r15,1)
  406860:	48 8b 45 00          	mov    0x0(%rbp),%rax
  406864:	ff 50 10             	call   *0x10(%rax)
  406867:	48 89 ef             	mov    %rbp,%rdi
  40686a:	41 89 c4             	mov    %eax,%r12d
  40686d:	48 8b 45 00          	mov    0x0(%rbp),%rax
  406871:	ff 50 08             	call   *0x8(%rax)
  406874:	5d                   	pop    %rbp
  406875:	44 89 e1             	mov    %r12d,%ecx
  406878:	45 31 c0             	xor    %r8d,%r8d
  40687b:	89 c2                	mov    %eax,%edx
  40687d:	41 5c                	pop    %r12
  40687f:	31 f6                	xor    %esi,%esi
  406881:	31 ff                	xor    %edi,%edi
  406883:	48 b8 60 98 fe ff ff 	movabs $0xfffffffffffe9860,%rax
  40688a:	ff ff ff 
  40688d:	4c 01 f8             	add    %r15,%rax
  406890:	41 5f                	pop    %r15
  406892:	ff e0                	jmp    *%rax
  406894:	66 66 2e 0f 1f 84 00 	data16 cs nopw 0x0(%rax,%rax,1)
  40689b:	00 00 00 00 
  40689f:	90                   	nop

00000000004068a0 <_ZN4EXOS6Driver8Graphics18FramebufferConsole10renderFontEjc>:
  4068a0:	f3 0f 1e fa          	endbr64 
  4068a4:	49 bb fc 65 01 00 00 	movabs $0x165fc,%r11
  4068ab:	00 00 00 
  4068ae:	41 57                	push   %r15
  4068b0:	4c 8d 3d ed ff ff ff 	lea    -0x13(%rip),%r15        # 4068a4 <_ZN4EXOS6Driver8Graphics18FramebufferConsole10renderFontEjc+0x4>
  4068b7:	41 56                	push   %r14
  4068b9:	4d 01 df             	add    %r11,%r15
  4068bc:	41 55                	push   %r13
  4068be:	41 54                	push   %r12
  4068c0:	55                   	push   %rbp
  4068c1:	53                   	push   %rbx
  4068c2:	48 83 ec 28          	sub    $0x28,%rsp
  4068c6:	89 7c 24 14          	mov    %edi,0x14(%rsp)
  4068ca:	40 80 fe 0a          	cmp    $0xa,%sil
  4068ce:	0f 84 cf 00 00 00    	je     4069a3 <_ZN4EXOS6Driver8Graphics18FramebufferConsole10renderFontEjc+0x103>
  4068d4:	40 80 fe 08          	cmp    $0x8,%sil
  4068d8:	0f 84 a7 01 00 00    	je     406a85 <_ZN4EXOS6Driver8Graphics18FramebufferConsole10renderFontEjc+0x1e5>
  4068de:	49 bc 8c f3 ff ff ff 	movabs $0xfffffffffffff38c,%r12
  4068e5:	ff ff ff 
  4068e8:	40 80 fe 0d          	cmp    $0xd,%sil
  4068ec:	0f 84 e2 00 00 00    	je     4069d4 <_ZN4EXOS6Driver8Graphics18FramebufferConsole10renderFontEjc+0x134>
  4068f2:	48 b8 94 f3 ff ff ff 	movabs $0xfffffffffffff394,%rax
  4068f9:	ff ff ff 
  4068fc:	43 8b 14 3c          	mov    (%r12,%r15,1),%edx
  406900:	41 3b 14 07          	cmp    (%r15,%rax,1),%edx
  406904:	0f 83 a3 00 00 00    	jae    4069ad <_ZN4EXOS6Driver8Graphics18FramebufferConsole10renderFontEjc+0x10d>
  40690a:	31 c0                	xor    %eax,%eax
  40690c:	40 80 fe 1f          	cmp    $0x1f,%sil
  406910:	7e 0b                	jle    40691d <_ZN4EXOS6Driver8Graphics18FramebufferConsole10renderFontEjc+0x7d>
  406912:	8d 46 e0             	lea    -0x20(%rsi),%eax
  406915:	66 98                	cbtw   
  406917:	c1 e0 04             	shl    $0x4,%eax
  40691a:	0f b7 c0             	movzwl %ax,%eax
  40691d:	48 b9 80 d7 fe ff ff 	movabs $0xfffffffffffed780,%rcx
  406924:	ff ff ff 
  406927:	48 c7 44 24 18 00 00 	movq   $0x0,0x18(%rsp)
  40692e:	00 00 
  406930:	49 be 88 f3 ff ff ff 	movabs $0xfffffffffffff388,%r14
  406937:	ff ff ff 
  40693a:	4c 01 f9             	add    %r15,%rcx
  40693d:	48 8d 1c 08          	lea    (%rax,%rcx,1),%rbx
  406941:	48 b8 20 98 fe ff ff 	movabs $0xfffffffffffe9820,%rax
  406948:	ff ff ff 
  40694b:	48 89 44 24 08       	mov    %rax,0x8(%rsp)
  406950:	8b 6c 24 18          	mov    0x18(%rsp),%ebp
  406954:	45 31 ed             	xor    %r13d,%r13d
  406957:	eb 25                	jmp    40697e <_ZN4EXOS6Driver8Graphics18FramebufferConsole10renderFontEjc+0xde>
  406959:	0f 1f 80 00 00 00 00 	nopl   0x0(%rax)
  406960:	8b 54 24 14          	mov    0x14(%rsp),%edx
  406964:	48 8b 44 24 08       	mov    0x8(%rsp),%rax
  406969:	41 83 c5 01          	add    $0x1,%r13d
  40696d:	4e 8d 04 38          	lea    (%rax,%r15,1),%r8
  406971:	41 ff d0             	call   *%r8
  406974:	43 8b 14 3c          	mov    (%r12,%r15,1),%edx
  406978:	41 83 fd 08          	cmp    $0x8,%r13d
  40697c:	74 72                	je     4069f0 <_ZN4EXOS6Driver8Graphics18FramebufferConsole10renderFontEjc+0x150>
  40697e:	43 8b 34 3e          	mov    (%r14,%r15,1),%esi
  406982:	41 8d 7c d5 00       	lea    0x0(%r13,%rdx,8),%edi
  406987:	44 89 e9             	mov    %r13d,%ecx
  40698a:	44 0f b6 03          	movzbl (%rbx),%r8d
  40698e:	ba 80 00 00 00       	mov    $0x80,%edx
  406993:	c1 e6 04             	shl    $0x4,%esi
  406996:	d3 fa                	sar    %cl,%edx
  406998:	01 ee                	add    %ebp,%esi
  40699a:	41 85 d0             	test   %edx,%r8d
  40699d:	75 c1                	jne    406960 <_ZN4EXOS6Driver8Graphics18FramebufferConsole10renderFontEjc+0xc0>
  40699f:	31 d2                	xor    %edx,%edx
  4069a1:	eb c1                	jmp    406964 <_ZN4EXOS6Driver8Graphics18FramebufferConsole10renderFontEjc+0xc4>
  4069a3:	49 bc 8c f3 ff ff ff 	movabs $0xfffffffffffff38c,%r12
  4069aa:	ff ff ff 
  4069ad:	48 ba 88 f3 ff ff ff 	movabs $0xfffffffffffff388,%rdx
  4069b4:	ff ff ff 
  4069b7:	48 b9 90 f3 ff ff ff 	movabs $0xfffffffffffff390,%rcx
  4069be:	ff ff ff 
  4069c1:	41 8b 04 17          	mov    (%r15,%rdx,1),%eax
  4069c5:	41 8b 0c 0f          	mov    (%r15,%rcx,1),%ecx
  4069c9:	83 c0 01             	add    $0x1,%eax
  4069cc:	39 c8                	cmp    %ecx,%eax
  4069ce:	73 4f                	jae    406a1f <_ZN4EXOS6Driver8Graphics18FramebufferConsole10renderFontEjc+0x17f>
  4069d0:	41 89 04 17          	mov    %eax,(%r15,%rdx,1)
  4069d4:	43 c7 04 3c 00 00 00 	movl   $0x0,(%r12,%r15,1)
  4069db:	00 
  4069dc:	48 83 c4 28          	add    $0x28,%rsp
  4069e0:	5b                   	pop    %rbx
  4069e1:	5d                   	pop    %rbp
  4069e2:	41 5c                	pop    %r12
  4069e4:	41 5d                	pop    %r13
  4069e6:	41 5e                	pop    %r14
  4069e8:	41 5f                	pop    %r15
  4069ea:	c3                   	ret    
  4069eb:	0f 1f 44 00 00       	nopl   0x0(%rax,%rax,1)
  4069f0:	48 83 44 24 18 01    	addq   $0x1,0x18(%rsp)
  4069f6:	48 8b 44 24 18       	mov    0x18(%rsp),%rax
  4069fb:	48 83 c3 01          	add    $0x1,%rbx
  4069ff:	48 83 f8 10          	cmp    $0x10,%rax
  406a03:	0f 85 47 ff ff ff    	jne    406950 <_ZN4EXOS6Driver8Graphics18FramebufferConsole10renderFontEjc+0xb0>
  406a09:	83 c2 01             	add    $0x1,%edx
  406a0c:	43 89 14 3c          	mov    %edx,(%r12,%r15,1)
  406a10:	48 83 c4 28          	add    $0x28,%rsp
  406a14:	5b                   	pop    %rbx
  406a15:	5d                   	pop    %rbp
  406a16:	41 5c                	pop    %r12
  406a18:	41 5d                	pop    %r13
  406a1a:	41 5e                	pop    %r14
  406a1c:	41 5f                	pop    %r15
  406a1e:	c3                   	ret    
  406a1f:	48 b8 94 f3 ff ff ff 	movabs $0xfffffffffffff394,%rax
  406a26:	ff ff ff 
  406a29:	8d 59 ff             	lea    -0x1(%rcx),%ebx
  406a2c:	48 ba 80 f3 ff ff ff 	movabs $0xfffffffffffff380,%rdx
  406a33:	ff ff ff 
  406a36:	41 8b 2c 07          	mov    (%r15,%rax,1),%ebp
  406a3a:	49 8b 3c 17          	mov    (%r15,%rdx,1),%rdi
  406a3e:	89 da                	mov    %ebx,%edx
  406a40:	c1 e3 04             	shl    $0x4,%ebx
  406a43:	89 e8                	mov    %ebp,%eax
  406a45:	c1 e0 09             	shl    $0x9,%eax
  406a48:	0f af d0             	imul   %eax,%edx
  406a4b:	48 8d 34 07          	lea    (%rdi,%rax,1),%rsi
  406a4f:	48 b8 b0 6e fe ff ff 	movabs $0xfffffffffffe6eb0,%rax
  406a56:	ff ff ff 
  406a59:	4c 01 f8             	add    %r15,%rax
  406a5c:	ff d0                	call   *%rax
  406a5e:	8d 14 ed 00 00 00 00 	lea    0x0(,%rbp,8),%edx
  406a65:	89 de                	mov    %ebx,%esi
  406a67:	45 31 c0             	xor    %r8d,%r8d
  406a6a:	48 b8 60 98 fe ff ff 	movabs $0xfffffffffffe9860,%rax
  406a71:	ff ff ff 
  406a74:	b9 10 00 00 00       	mov    $0x10,%ecx
  406a79:	31 ff                	xor    %edi,%edi
  406a7b:	4c 01 f8             	add    %r15,%rax
  406a7e:	ff d0                	call   *%rax
  406a80:	e9 4f ff ff ff       	jmp    4069d4 <_ZN4EXOS6Driver8Graphics18FramebufferConsole10renderFontEjc+0x134>
  406a85:	45 31 c0             	xor    %r8d,%r8d
  406a88:	b9 10 00 00 00       	mov    $0x10,%ecx
  406a8d:	ba 08 00 00 00       	mov    $0x8,%edx
  406a92:	48 b8 8c f3 ff ff ff 	movabs $0xfffffffffffff38c,%rax
  406a99:	ff ff ff 
  406a9c:	42 83 2c 38 01       	subl   $0x1,(%rax,%r15,1)
  406aa1:	48 b8 88 f3 ff ff ff 	movabs $0xfffffffffffff388,%rax
  406aa8:	ff ff ff 
  406aab:	41 8b 04 07          	mov    (%r15,%rax,1),%eax
  406aaf:	48 83 c4 28          	add    $0x28,%rsp
  406ab3:	5b                   	pop    %rbx
  406ab4:	5d                   	pop    %rbp
  406ab5:	89 c6                	mov    %eax,%esi
  406ab7:	8d 3c c5 00 00 00 00 	lea    0x0(,%rax,8),%edi
  406abe:	41 5c                	pop    %r12
  406ac0:	41 5d                	pop    %r13
  406ac2:	48 b8 60 98 fe ff ff 	movabs $0xfffffffffffe9860,%rax
  406ac9:	ff ff ff 
  406acc:	41 5e                	pop    %r14
  406ace:	c1 e6 04             	shl    $0x4,%esi
  406ad1:	4c 01 f8             	add    %r15,%rax
  406ad4:	41 5f                	pop    %r15
  406ad6:	ff e0                	jmp    *%rax
  406ad8:	0f 1f 84 00 00 00 00 	nopl   0x0(%rax,%rax,1)
  406adf:	00 

0000000000406ae0 <_ZN4EXOS6Driver8Graphics18FramebufferConsole5printEc>:
  406ae0:	f3 0f 1e fa          	endbr64 
  406ae4:	48 8d 05 f9 ff ff ff 	lea    -0x7(%rip),%rax        # 406ae4 <_ZN4EXOS6Driver8Graphics18FramebufferConsole5printEc+0x4>
  406aeb:	40 0f be f7          	movsbl %dil,%esi
  406aef:	49 bb bc 63 01 00 00 	movabs $0x163bc,%r11
  406af6:	00 00 00 
  406af9:	48 ba 60 d7 fe ff ff 	movabs $0xfffffffffffed760,%rdx
  406b00:	ff ff ff 
  406b03:	4c 01 d8             	add    %r11,%rax
  406b06:	8b 3c 10             	mov    (%rax,%rdx,1),%edi
  406b09:	48 ba 00 9a fe ff ff 	movabs $0xfffffffffffe9a00,%rdx
  406b10:	ff ff ff 
  406b13:	48 01 d0             	add    %rdx,%rax
  406b16:	ff e0                	jmp    *%rax
  406b18:	0f 1f 84 00 00 00 00 	nopl   0x0(%rax,%rax,1)
  406b1f:	00 

0000000000406b20 <_ZN4EXOS6Driver8Graphics18FramebufferConsole5printEPKc>:
  406b20:	f3 0f 1e fa          	endbr64 
  406b24:	49 bb 7c 63 01 00 00 	movabs $0x1637c,%r11
  406b2b:	00 00 00 
  406b2e:	41 55                	push   %r13
  406b30:	41 54                	push   %r12
  406b32:	55                   	push   %rbp
  406b33:	48 8d 2d ea ff ff ff 	lea    -0x16(%rip),%rbp        # 406b24 <_ZN4EXOS6Driver8Graphics18FramebufferConsole5printEPKc+0x4>
  406b3a:	53                   	push   %rbx
  406b3b:	4c 01 dd             	add    %r11,%rbp
  406b3e:	48 83 ec 08          	sub    $0x8,%rsp
  406b42:	0f be 37             	movsbl (%rdi),%esi
  406b45:	40 84 f6             	test   %sil,%sil
  406b48:	74 3b                	je     406b85 <_ZN4EXOS6Driver8Graphics18FramebufferConsole5printEPKc+0x65>
  406b4a:	48 b8 00 9a fe ff ff 	movabs $0xfffffffffffe9a00,%rax
  406b51:	ff ff ff 
  406b54:	48 8d 5f 01          	lea    0x1(%rdi),%rbx
  406b58:	49 bd 60 d7 fe ff ff 	movabs $0xfffffffffffed760,%r13
  406b5f:	ff ff ff 
  406b62:	4c 8d 24 28          	lea    (%rax,%rbp,1),%r12
  406b66:	66 2e 0f 1f 84 00 00 	cs nopw 0x0(%rax,%rax,1)
  406b6d:	00 00 00 
  406b70:	48 83 c3 01          	add    $0x1,%rbx
  406b74:	41 8b 7c 2d 00       	mov    0x0(%r13,%rbp,1),%edi
  406b79:	41 ff d4             	call   *%r12
  406b7c:	0f be 73 ff          	movsbl -0x1(%rbx),%esi
  406b80:	40 84 f6             	test   %sil,%sil
  406b83:	75 eb                	jne    406b70 <_ZN4EXOS6Driver8Graphics18FramebufferConsole5printEPKc+0x50>
  406b85:	48 83 c4 08          	add    $0x8,%rsp
  406b89:	5b                   	pop    %rbx
  406b8a:	5d                   	pop    %rbp
  406b8b:	41 5c                	pop    %r12
  406b8d:	41 5d                	pop    %r13
  406b8f:	c3                   	ret    

0000000000406b90 <_ZN4EXOS6Driver8Graphics18FramebufferConsole12setFontColorEj>:
  406b90:	f3 0f 1e fa          	endbr64 
  406b94:	48 8d 05 f9 ff ff ff 	lea    -0x7(%rip),%rax        # 406b94 <_ZN4EXOS6Driver8Graphics18FramebufferConsole12setFontColorEj+0x4>
  406b9b:	49 bb 0c 63 01 00 00 	movabs $0x1630c,%r11
  406ba2:	00 00 00 
  406ba5:	48 ba 60 d7 fe ff ff 	movabs $0xfffffffffffed760,%rdx
  406bac:	ff ff ff 
  406baf:	4c 01 d8             	add    %r11,%rax
  406bb2:	89 3c 02             	mov    %edi,(%rdx,%rax,1)
  406bb5:	c3                   	ret    
  406bb6:	66 2e 0f 1f 84 00 00 	cs nopw 0x0(%rax,%rax,1)
  406bbd:	00 00 00 

0000000000406bc0 <_ZN4EXOS5Utils6Logger12beginSectionEPKc>:
  406bc0:	f3 0f 1e fa          	endbr64 
  406bc4:	48 8d 05 f9 ff ff ff 	lea    -0x7(%rip),%rax        # 406bc4 <_ZN4EXOS5Utils6Logger12beginSectionEPKc+0x4>
  406bcb:	49 bb dc 62 01 00 00 	movabs $0x162dc,%r11
  406bd2:	00 00 00 
  406bd5:	48 ba 48 00 00 00 00 	movabs $0x48,%rdx
  406bdc:	00 00 00 
  406bdf:	4c 01 d8             	add    %r11,%rax
  406be2:	48 89 3c 02          	mov    %rdi,(%rdx,%rax,1)
  406be6:	c3                   	ret    
  406be7:	66 0f 1f 84 00 00 00 	nopw   0x0(%rax,%rax,1)
  406bee:	00 00 

0000000000406bf0 <_ZN4EXOS5Utils6Logger10endSectionEv>:
  406bf0:	f3 0f 1e fa          	endbr64 
  406bf4:	48 8d 05 f9 ff ff ff 	lea    -0x7(%rip),%rax        # 406bf4 <_ZN4EXOS5Utils6Logger10endSectionEv+0x4>
  406bfb:	49 bb ac 62 01 00 00 	movabs $0x162ac,%r11
  406c02:	00 00 00 
  406c05:	48 ba 38 09 00 00 00 	movabs $0x938,%rdx
  406c0c:	00 00 00 
  406c0f:	4c 01 d8             	add    %r11,%rax
  406c12:	48 8d 0c 10          	lea    (%rax,%rdx,1),%rcx
  406c16:	48 ba 48 00 00 00 00 	movabs $0x48,%rdx
  406c1d:	00 00 00 
  406c20:	48 89 0c 10          	mov    %rcx,(%rax,%rdx,1)
  406c24:	c3                   	ret    
  406c25:	66 66 2e 0f 1f 84 00 	data16 cs nopw 0x0(%rax,%rax,1)
  406c2c:	00 00 00 00 

0000000000406c30 <_ZN4EXOS5Utils6Logger19saveAndBeginSectionEPKc>:
  406c30:	f3 0f 1e fa          	endbr64 
  406c34:	48 8d 05 f9 ff ff ff 	lea    -0x7(%rip),%rax        # 406c34 <_ZN4EXOS5Utils6Logger19saveAndBeginSectionEPKc+0x4>
  406c3b:	49 bb 6c 62 01 00 00 	movabs $0x1626c,%r11
  406c42:	00 00 00 
  406c45:	48 b9 a8 f3 ff ff ff 	movabs $0xfffffffffffff3a8,%rcx
  406c4c:	ff ff ff 
  406c4f:	4c 01 d8             	add    %r11,%rax
  406c52:	0f b6 14 08          	movzbl (%rax,%rcx,1),%edx
  406c56:	84 d2                	test   %dl,%dl
  406c58:	78 2b                	js     406c85 <_ZN4EXOS5Utils6Logger19saveAndBeginSectionEPKc+0x55>
  406c5a:	48 be 48 00 00 00 00 	movabs $0x48,%rsi
  406c61:	00 00 00 
  406c64:	44 8d 4a 01          	lea    0x1(%rdx),%r9d
  406c68:	4c 8b 04 30          	mov    (%rax,%rsi,1),%r8
  406c6c:	44 88 0c 08          	mov    %r9b,(%rax,%rcx,1)
  406c70:	48 b9 c0 f3 ff ff ff 	movabs $0xfffffffffffff3c0,%rcx
  406c77:	ff ff ff 
  406c7a:	48 01 c1             	add    %rax,%rcx
  406c7d:	48 89 3c 30          	mov    %rdi,(%rax,%rsi,1)
  406c81:	4c 89 04 d1          	mov    %r8,(%rcx,%rdx,8)
  406c85:	c3                   	ret    
  406c86:	66 2e 0f 1f 84 00 00 	cs nopw 0x0(%rax,%rax,1)
  406c8d:	00 00 00 

0000000000406c90 <_ZN4EXOS5Utils6Logger14restoreSectionEv>:
  406c90:	f3 0f 1e fa          	endbr64 
  406c94:	48 8d 05 f9 ff ff ff 	lea    -0x7(%rip),%rax        # 406c94 <_ZN4EXOS5Utils6Logger14restoreSectionEv+0x4>
  406c9b:	49 bb 0c 62 01 00 00 	movabs $0x1620c,%r11
  406ca2:	00 00 00 
  406ca5:	48 b9 a8 f3 ff ff ff 	movabs $0xfffffffffffff3a8,%rcx
  406cac:	ff ff ff 
  406caf:	4c 01 d8             	add    %r11,%rax
  406cb2:	0f b6 34 08          	movzbl (%rax,%rcx,1),%esi
  406cb6:	8d 56 ff             	lea    -0x1(%rsi),%edx
  406cb9:	88 14 08             	mov    %dl,(%rax,%rcx,1)
  406cbc:	0f b6 d2             	movzbl %dl,%edx
  406cbf:	48 b9 c0 f3 ff ff ff 	movabs $0xfffffffffffff3c0,%rcx
  406cc6:	ff ff ff 
  406cc9:	48 01 c1             	add    %rax,%rcx
  406ccc:	48 8b 0c d1          	mov    (%rcx,%rdx,8),%rcx
  406cd0:	48 ba 48 00 00 00 00 	movabs $0x48,%rdx
  406cd7:	00 00 00 
  406cda:	48 89 0c 10          	mov    %rcx,(%rax,%rdx,1)
  406cde:	c3                   	ret    
  406cdf:	90                   	nop

0000000000406ce0 <_ZL14parseAcpiTableP10AcpiHeader>:
  406ce0:	f3 0f 1e fa          	endbr64 
  406ce4:	49 bb bc 61 01 00 00 	movabs $0x161bc,%r11
  406ceb:	00 00 00 
  406cee:	41 57                	push   %r15
  406cf0:	41 56                	push   %r14
  406cf2:	41 55                	push   %r13
  406cf4:	4c 8d 2d e9 ff ff ff 	lea    -0x17(%rip),%r13        # 406ce4 <_ZL14parseAcpiTableP10AcpiHeader+0x4>
  406cfb:	41 54                	push   %r12
  406cfd:	4d 01 dd             	add    %r11,%r13
  406d00:	55                   	push   %rbp
  406d01:	4d 89 ef             	mov    %r13,%r15
  406d04:	53                   	push   %rbx
  406d05:	48 bb 20 ff ff ff ff 	movabs $0xffffffffffffff20,%rbx
  406d0c:	ff ff ff 
  406d0f:	48 83 ec 58          	sub    $0x58,%rsp
  406d13:	8b 07                	mov    (%rdi),%eax
  406d15:	48 89 7c 24 18       	mov    %rdi,0x18(%rsp)
  406d1a:	bf b8 b8 b8 00       	mov    $0xb8b8b8,%edi
  406d1f:	89 44 24 10          	mov    %eax,0x10(%rsp)
  406d23:	89 44 24 4b          	mov    %eax,0x4b(%rsp)
  406d27:	48 b8 f0 9c fe ff ff 	movabs $0xfffffffffffe9cf0,%rax
  406d2e:	ff ff ff 
  406d31:	48 89 44 24 08       	mov    %rax,0x8(%rsp)
  406d36:	4c 01 e8             	add    %r13,%rax
  406d39:	c6 44 24 4f 00       	movb   $0x0,0x4f(%rsp)
  406d3e:	ff d0                	call   *%rax
  406d40:	4a 8b 04 2b          	mov    (%rbx,%r13,1),%rax
  406d44:	48 8b 38             	mov    (%rax),%rdi
  406d47:	48 85 ff             	test   %rdi,%rdi
  406d4a:	74 0a                	je     406d56 <_ZL14parseAcpiTableP10AcpiHeader+0x76>
  406d4c:	48 8b 07             	mov    (%rdi),%rax
  406d4f:	be 5b 00 00 00       	mov    $0x5b,%esi
  406d54:	ff 10                	call   *(%rax)
  406d56:	48 8b 44 24 08       	mov    0x8(%rsp),%rax
  406d5b:	4d 89 ef             	mov    %r13,%r15
  406d5e:	bf 40 cc 2e 00       	mov    $0x2ecc40,%edi
  406d63:	4c 01 e8             	add    %r13,%rax
  406d66:	ff d0                	call   *%rax
  406d68:	4e 8b 24 2b          	mov    (%rbx,%r13,1),%r12
  406d6c:	48 b8 68 09 00 00 00 	movabs $0x968,%rax
  406d73:	00 00 00 
  406d76:	4c 01 e8             	add    %r13,%rax
  406d79:	48 89 44 24 30       	mov    %rax,0x30(%rsp)
  406d7e:	49 89 c7             	mov    %rax,%r15
  406d81:	b8 49 00 00 00       	mov    $0x49,%eax
  406d86:	eb 1c                	jmp    406da4 <_ZL14parseAcpiTableP10AcpiHeader+0xc4>
  406d88:	0f 1f 84 00 00 00 00 	nopl   0x0(%rax,%rax,1)
  406d8f:	00 
  406d90:	0f b6 f0             	movzbl %al,%esi
  406d93:	48 8b 07             	mov    (%rdi),%rax
  406d96:	ff 10                	call   *(%rax)
  406d98:	41 0f b6 07          	movzbl (%r15),%eax
  406d9c:	84 c0                	test   %al,%al
  406d9e:	74 0d                	je     406dad <_ZL14parseAcpiTableP10AcpiHeader+0xcd>
  406da0:	49 83 c7 01          	add    $0x1,%r15
  406da4:	49 8b 3c 24          	mov    (%r12),%rdi
  406da8:	48 85 ff             	test   %rdi,%rdi
  406dab:	75 e3                	jne    406d90 <_ZL14parseAcpiTableP10AcpiHeader+0xb0>
  406dad:	48 8b 44 24 08       	mov    0x8(%rsp),%rax
  406db2:	bf b8 b8 b8 00       	mov    $0xb8b8b8,%edi
  406db7:	4d 89 ef             	mov    %r13,%r15
  406dba:	4c 01 e8             	add    %r13,%rax
  406dbd:	ff d0                	call   *%rax
  406dbf:	4a 8b 04 2b          	mov    (%rbx,%r13,1),%rax
  406dc3:	48 8b 38             	mov    (%rax),%rdi
  406dc6:	48 85 ff             	test   %rdi,%rdi
  406dc9:	74 0a                	je     406dd5 <_ZL14parseAcpiTableP10AcpiHeader+0xf5>
  406dcb:	48 8b 07             	mov    (%rdi),%rax
  406dce:	be 5d 00 00 00       	mov    $0x5d,%esi
  406dd3:	ff 10                	call   *(%rax)
  406dd5:	48 8b 44 24 08       	mov    0x8(%rsp),%rax
  406dda:	bf 60 be 60 00       	mov    $0x60be60,%edi
  406ddf:	4d 89 ef             	mov    %r13,%r15
  406de2:	4c 01 e8             	add    %r13,%rax
  406de5:	ff d0                	call   *%rax
  406de7:	4e 8b 24 2b          	mov    (%rbx,%r13,1),%r12
  406deb:	49 8b 3c 24          	mov    (%r12),%rdi
  406def:	48 85 ff             	test   %rdi,%rdi
  406df2:	74 0e                	je     406e02 <_ZL14parseAcpiTableP10AcpiHeader+0x122>
  406df4:	48 8b 07             	mov    (%rdi),%rax
  406df7:	be 28 00 00 00       	mov    $0x28,%esi
  406dfc:	ff 10                	call   *(%rax)
  406dfe:	49 8b 3c 24          	mov    (%r12),%rdi
  406e02:	48 b8 d8 ff ff ff ff 	movabs $0xffffffffffffffd8,%rax
  406e09:	ff ff ff 
  406e0c:	48 89 44 24 38       	mov    %rax,0x38(%rsp)
  406e11:	4a 8b 04 28          	mov    (%rax,%r13,1),%rax
  406e15:	4c 8b 20             	mov    (%rax),%r12
  406e18:	41 0f b6 04 24       	movzbl (%r12),%eax
  406e1d:	84 c0                	test   %al,%al
  406e1f:	74 28                	je     406e49 <_ZL14parseAcpiTableP10AcpiHeader+0x169>
  406e21:	45 31 ff             	xor    %r15d,%r15d
  406e24:	0f 1f 40 00          	nopl   0x0(%rax)
  406e28:	48 85 ff             	test   %rdi,%rdi
  406e2b:	74 1c                	je     406e49 <_ZL14parseAcpiTableP10AcpiHeader+0x169>
  406e2d:	0f b6 f0             	movzbl %al,%esi
  406e30:	48 8b 07             	mov    (%rdi),%rax
  406e33:	49 83 c7 01          	add    $0x1,%r15
  406e37:	ff 10                	call   *(%rax)
  406e39:	4a 8b 04 2b          	mov    (%rbx,%r13,1),%rax
  406e3d:	48 8b 38             	mov    (%rax),%rdi
  406e40:	43 0f b6 04 3c       	movzbl (%r12,%r15,1),%eax
  406e45:	84 c0                	test   %al,%al
  406e47:	75 df                	jne    406e28 <_ZL14parseAcpiTableP10AcpiHeader+0x148>
  406e49:	48 b8 6d 09 00 00 00 	movabs $0x96d,%rax
  406e50:	00 00 00 
  406e53:	4c 01 e8             	add    %r13,%rax
  406e56:	48 89 44 24 28       	mov    %rax,0x28(%rsp)
  406e5b:	49 89 c7             	mov    %rax,%r15
  406e5e:	b8 29 00 00 00       	mov    $0x29,%eax
  406e63:	eb 1f                	jmp    406e84 <_ZL14parseAcpiTableP10AcpiHeader+0x1a4>
  406e65:	0f 1f 00             	nopl   (%rax)
  406e68:	0f b6 f0             	movzbl %al,%esi
  406e6b:	48 8b 07             	mov    (%rdi),%rax
  406e6e:	49 83 c7 01          	add    $0x1,%r15
  406e72:	ff 10                	call   *(%rax)
  406e74:	41 0f b6 47 ff       	movzbl -0x1(%r15),%eax
  406e79:	84 c0                	test   %al,%al
  406e7b:	74 1b                	je     406e98 <_ZL14parseAcpiTableP10AcpiHeader+0x1b8>
  406e7d:	4a 8b 14 2b          	mov    (%rbx,%r13,1),%rdx
  406e81:	48 8b 3a             	mov    (%rdx),%rdi
  406e84:	48 85 ff             	test   %rdi,%rdi
  406e87:	75 df                	jne    406e68 <_ZL14parseAcpiTableP10AcpiHeader+0x188>
  406e89:	41 0f b6 07          	movzbl (%r15),%eax
  406e8d:	49 83 c7 01          	add    $0x1,%r15
  406e91:	84 c0                	test   %al,%al
  406e93:	75 e8                	jne    406e7d <_ZL14parseAcpiTableP10AcpiHeader+0x19d>
  406e95:	0f 1f 00             	nopl   (%rax)
  406e98:	48 8b 44 24 08       	mov    0x8(%rsp),%rax
  406e9d:	4d 89 ef             	mov    %r13,%r15
  406ea0:	bf b8 b8 b8 00       	mov    $0xb8b8b8,%edi
  406ea5:	41 be 46 00 00 00    	mov    $0x46,%r14d
  406eab:	4c 01 e8             	add    %r13,%rax
  406eae:	ff d0                	call   *%rax
  406eb0:	4a 8b 04 2b          	mov    (%rbx,%r13,1),%rax
  406eb4:	48 be 3f 09 00 00 00 	movabs $0x93f,%rsi
  406ebb:	00 00 00 
  406ebe:	4d 8d 7c 35 00       	lea    0x0(%r13,%rsi,1),%r15
  406ec3:	48 8b 28             	mov    (%rax),%rbp
  406ec6:	eb 0b                	jmp    406ed3 <_ZL14parseAcpiTableP10AcpiHeader+0x1f3>
  406ec8:	0f 1f 84 00 00 00 00 	nopl   0x0(%rax,%rax,1)
  406ecf:	00 
  406ed0:	48 89 fd             	mov    %rdi,%rbp
  406ed3:	48 85 ed             	test   %rbp,%rbp
  406ed6:	0f 84 b4 00 00 00    	je     406f90 <_ZL14parseAcpiTableP10AcpiHeader+0x2b0>
  406edc:	48 8b 45 00          	mov    0x0(%rbp),%rax
  406ee0:	48 89 ef             	mov    %rbp,%rdi
  406ee3:	41 0f b6 f6          	movzbl %r14b,%esi
  406ee7:	ff 10                	call   *(%rax)
  406ee9:	4a 8b 04 2b          	mov    (%rbx,%r13,1),%rax
  406eed:	48 8b 38             	mov    (%rax),%rdi
  406ef0:	45 0f b6 77 01       	movzbl 0x1(%r15),%r14d
  406ef5:	45 84 f6             	test   %r14b,%r14b
  406ef8:	74 29                	je     406f23 <_ZL14parseAcpiTableP10AcpiHeader+0x243>
  406efa:	41 80 fe 40          	cmp    $0x40,%r14b
  406efe:	74 78                	je     406f78 <_ZL14parseAcpiTableP10AcpiHeader+0x298>
  406f00:	49 83 c7 01          	add    $0x1,%r15
  406f04:	48 85 ed             	test   %rbp,%rbp
  406f07:	75 c7                	jne    406ed0 <_ZL14parseAcpiTableP10AcpiHeader+0x1f0>
  406f09:	41 0f b6 47 01       	movzbl 0x1(%r15),%eax
  406f0e:	84 c0                	test   %al,%al
  406f10:	74 11                	je     406f23 <_ZL14parseAcpiTableP10AcpiHeader+0x243>
  406f12:	3c 40                	cmp    $0x40,%al
  406f14:	74 4a                	je     406f60 <_ZL14parseAcpiTableP10AcpiHeader+0x280>
  406f16:	41 0f b6 47 02       	movzbl 0x2(%r15),%eax
  406f1b:	49 83 c7 01          	add    $0x1,%r15
  406f1f:	84 c0                	test   %al,%al
  406f21:	75 ef                	jne    406f12 <_ZL14parseAcpiTableP10AcpiHeader+0x232>
  406f23:	48 85 ff             	test   %rdi,%rdi
  406f26:	74 0a                	je     406f32 <_ZL14parseAcpiTableP10AcpiHeader+0x252>
  406f28:	48 8b 07             	mov    (%rdi),%rax
  406f2b:	be 0a 00 00 00       	mov    $0xa,%esi
  406f30:	ff 10                	call   *(%rax)
  406f32:	48 8b 44 24 18       	mov    0x18(%rsp),%rax
  406f37:	8b 00                	mov    (%rax),%eax
  406f39:	3d 46 41 43 50       	cmp    $0x50434146,%eax
  406f3e:	0f 84 7c 01 00 00    	je     4070c0 <_ZL14parseAcpiTableP10AcpiHeader+0x3e0>
  406f44:	3d 41 50 49 43       	cmp    $0x43495041,%eax
  406f49:	0f 84 f9 03 00 00    	je     407348 <_ZL14parseAcpiTableP10AcpiHeader+0x668>
  406f4f:	48 83 c4 58          	add    $0x58,%rsp
  406f53:	5b                   	pop    %rbx
  406f54:	5d                   	pop    %rbp
  406f55:	41 5c                	pop    %r12
  406f57:	41 5d                	pop    %r13
  406f59:	41 5e                	pop    %r14
  406f5b:	41 5f                	pop    %r15
  406f5d:	c3                   	ret    
  406f5e:	66 90                	xchg   %ax,%ax
  406f60:	45 0f b6 77 02       	movzbl 0x2(%r15),%r14d
  406f65:	4d 8d 67 02          	lea    0x2(%r15),%r12
  406f69:	41 80 fe 40          	cmp    $0x40,%r14b
  406f6d:	75 31                	jne    406fa0 <_ZL14parseAcpiTableP10AcpiHeader+0x2c0>
  406f6f:	4d 89 e7             	mov    %r12,%r15
  406f72:	eb 95                	jmp    406f09 <_ZL14parseAcpiTableP10AcpiHeader+0x229>
  406f74:	0f 1f 40 00          	nopl   0x0(%rax)
  406f78:	45 0f b6 77 02       	movzbl 0x2(%r15),%r14d
  406f7d:	4d 8d 67 02          	lea    0x2(%r15),%r12
  406f81:	41 80 fe 40          	cmp    $0x40,%r14b
  406f85:	75 19                	jne    406fa0 <_ZL14parseAcpiTableP10AcpiHeader+0x2c0>
  406f87:	4d 89 e7             	mov    %r12,%r15
  406f8a:	e9 75 ff ff ff       	jmp    406f04 <_ZL14parseAcpiTableP10AcpiHeader+0x224>
  406f8f:	90                   	nop
  406f90:	31 ff                	xor    %edi,%edi
  406f92:	e9 59 ff ff ff       	jmp    406ef0 <_ZL14parseAcpiTableP10AcpiHeader+0x210>
  406f97:	66 0f 1f 84 00 00 00 	nopw   0x0(%rax,%rax,1)
  406f9e:	00 00 
  406fa0:	8b 44 24 10          	mov    0x10(%rsp),%eax
  406fa4:	45 31 ff             	xor    %r15d,%r15d
  406fa7:	89 c2                	mov    %eax,%edx
  406fa9:	84 c0                	test   %al,%al
  406fab:	75 20                	jne    406fcd <_ZL14parseAcpiTableP10AcpiHeader+0x2ed>
  406fad:	eb 23                	jmp    406fd2 <_ZL14parseAcpiTableP10AcpiHeader+0x2f2>
  406faf:	90                   	nop
  406fb0:	48 8b 07             	mov    (%rdi),%rax
  406fb3:	49 83 c7 01          	add    $0x1,%r15
  406fb7:	0f b6 f2             	movzbl %dl,%esi
  406fba:	ff 10                	call   *(%rax)
  406fbc:	4a 8b 04 2b          	mov    (%rbx,%r13,1),%rax
  406fc0:	42 0f b6 54 3c 4b    	movzbl 0x4b(%rsp,%r15,1),%edx
  406fc6:	48 8b 38             	mov    (%rax),%rdi
  406fc9:	84 d2                	test   %dl,%dl
  406fcb:	74 05                	je     406fd2 <_ZL14parseAcpiTableP10AcpiHeader+0x2f2>
  406fcd:	48 85 ff             	test   %rdi,%rdi
  406fd0:	75 de                	jne    406fb0 <_ZL14parseAcpiTableP10AcpiHeader+0x2d0>
  406fd2:	45 84 f6             	test   %r14b,%r14b
  406fd5:	0f 84 48 ff ff ff    	je     406f23 <_ZL14parseAcpiTableP10AcpiHeader+0x243>
  406fdb:	48 b8 6f 09 00 00 00 	movabs $0x96f,%rax
  406fe2:	00 00 00 
  406fe5:	48 89 44 24 20       	mov    %rax,0x20(%rsp)
  406fea:	eb 2b                	jmp    407017 <_ZL14parseAcpiTableP10AcpiHeader+0x337>
  406fec:	0f 1f 40 00          	nopl   0x0(%rax)
  406ff0:	48 85 ff             	test   %rdi,%rdi
  406ff3:	74 4a                	je     40703f <_ZL14parseAcpiTableP10AcpiHeader+0x35f>
  406ff5:	48 8b 07             	mov    (%rdi),%rax
  406ff8:	41 0f b6 f6          	movzbl %r14b,%esi
  406ffc:	ff 10                	call   *(%rax)
  406ffe:	4a 8b 04 2b          	mov    (%rbx,%r13,1),%rax
  407002:	45 0f b6 74 24 01    	movzbl 0x1(%r12),%r14d
  407008:	48 8b 38             	mov    (%rax),%rdi
  40700b:	45 84 f6             	test   %r14b,%r14b
  40700e:	0f 84 0f ff ff ff    	je     406f23 <_ZL14parseAcpiTableP10AcpiHeader+0x243>
  407014:	49 89 ec             	mov    %rbp,%r12
  407017:	49 8d 6c 24 01       	lea    0x1(%r12),%rbp
  40701c:	48 89 6c 24 10       	mov    %rbp,0x10(%rsp)
  407021:	41 80 fe 40          	cmp    $0x40,%r14b
  407025:	75 c9                	jne    406ff0 <_ZL14parseAcpiTableP10AcpiHeader+0x310>
  407027:	45 0f b6 74 24 01    	movzbl 0x1(%r12),%r14d
  40702d:	41 80 fe 40          	cmp    $0x40,%r14b
  407031:	75 1d                	jne    407050 <_ZL14parseAcpiTableP10AcpiHeader+0x370>
  407033:	49 89 ec             	mov    %rbp,%r12
  407036:	48 8d 6d 01          	lea    0x1(%rbp),%rbp
  40703a:	48 85 ff             	test   %rdi,%rdi
  40703d:	75 b6                	jne    406ff5 <_ZL14parseAcpiTableP10AcpiHeader+0x315>
  40703f:	4c 89 64 24 10       	mov    %r12,0x10(%rsp)
  407044:	eb 57                	jmp    40709d <_ZL14parseAcpiTableP10AcpiHeader+0x3bd>
  407046:	66 2e 0f 1f 84 00 00 	cs nopw 0x0(%rax,%rax,1)
  40704d:	00 00 00 
  407050:	45 31 ff             	xor    %r15d,%r15d
  407053:	b8 3f 00 00 00       	mov    $0x3f,%eax
  407058:	0f 1f 84 00 00 00 00 	nopl   0x0(%rax,%rax,1)
  40705f:	00 
  407060:	48 85 ff             	test   %rdi,%rdi
  407063:	74 33                	je     407098 <_ZL14parseAcpiTableP10AcpiHeader+0x3b8>
  407065:	0f b6 f0             	movzbl %al,%esi
  407068:	48 8b 07             	mov    (%rdi),%rax
  40706b:	49 83 c7 01          	add    $0x1,%r15
  40706f:	ff 10                	call   *(%rax)
  407071:	4a 8b 04 2b          	mov    (%rbx,%r13,1),%rax
  407075:	48 8b 38             	mov    (%rax),%rdi
  407078:	48 8b 44 24 20       	mov    0x20(%rsp),%rax
  40707d:	4c 01 e8             	add    %r13,%rax
  407080:	41 0f b6 04 07       	movzbl (%r15,%rax,1),%eax
  407085:	84 c0                	test   %al,%al
  407087:	75 d7                	jne    407060 <_ZL14parseAcpiTableP10AcpiHeader+0x380>
  407089:	49 89 ec             	mov    %rbp,%r12
  40708c:	48 83 c5 01          	add    $0x1,%rbp
  407090:	e9 5b ff ff ff       	jmp    406ff0 <_ZL14parseAcpiTableP10AcpiHeader+0x310>
  407095:	0f 1f 00             	nopl   (%rax)
  407098:	49 8d 6c 24 02       	lea    0x2(%r12),%rbp
  40709d:	48 8b 44 24 10       	mov    0x10(%rsp),%rax
  4070a2:	44 0f b6 70 01       	movzbl 0x1(%rax),%r14d
  4070a7:	45 84 f6             	test   %r14b,%r14b
  4070aa:	0f 84 82 fe ff ff    	je     406f32 <_ZL14parseAcpiTableP10AcpiHeader+0x252>
  4070b0:	31 ff                	xor    %edi,%edi
  4070b2:	e9 5d ff ff ff       	jmp    407014 <_ZL14parseAcpiTableP10AcpiHeader+0x334>
  4070b7:	66 0f 1f 84 00 00 00 	nopw   0x0(%rax,%rax,1)
  4070be:	00 00 
  4070c0:	48 b8 c0 f7 ff ff ff 	movabs $0xfffffffffffff7c0,%rax
  4070c7:	ff ff ff 
  4070ca:	48 8b 4c 24 18       	mov    0x18(%rsp),%rcx
  4070cf:	8b 51 40             	mov    0x40(%rcx),%edx
  4070d2:	49 89 4c 05 00       	mov    %rcx,0x0(%r13,%rax,1)
  4070d7:	89 d6                	mov    %edx,%esi
  4070d9:	66 ed                	in     (%dx),%ax
  4070db:	a8 01                	test   $0x1,%al
  4070dd:	75 41                	jne    407120 <_ZL14parseAcpiTableP10AcpiHeader+0x440>
  4070df:	8b 51 30             	mov    0x30(%rcx),%edx
  4070e2:	85 d2                	test   %edx,%edx
  4070e4:	74 3a                	je     407120 <_ZL14parseAcpiTableP10AcpiHeader+0x440>
  4070e6:	0f b6 41 34          	movzbl 0x34(%rcx),%eax
  4070ea:	84 c0                	test   %al,%al
  4070ec:	74 32                	je     407120 <_ZL14parseAcpiTableP10AcpiHeader+0x440>
  4070ee:	ee                   	out    %al,(%dx)
  4070ef:	89 f2                	mov    %esi,%edx
  4070f1:	0f 1f 80 00 00 00 00 	nopl   0x0(%rax)
  4070f8:	66 ed                	in     (%dx),%ax
  4070fa:	a8 01                	test   $0x1,%al
  4070fc:	74 fa                	je     4070f8 <_ZL14parseAcpiTableP10AcpiHeader+0x418>
  4070fe:	48 8b 44 24 18       	mov    0x18(%rsp),%rax
  407103:	8b 50 44             	mov    0x44(%rax),%edx
  407106:	85 d2                	test   %edx,%edx
  407108:	74 16                	je     407120 <_ZL14parseAcpiTableP10AcpiHeader+0x440>
  40710a:	66 0f 1f 44 00 00    	nopw   0x0(%rax,%rax,1)
  407110:	66 ed                	in     (%dx),%ax
  407112:	a8 01                	test   $0x1,%al
  407114:	74 fa                	je     407110 <_ZL14parseAcpiTableP10AcpiHeader+0x430>
  407116:	66 2e 0f 1f 84 00 00 	cs nopw 0x0(%rax,%rax,1)
  40711d:	00 00 00 
  407120:	48 8b 44 24 08       	mov    0x8(%rsp),%rax
  407125:	bf b8 b8 b8 00       	mov    $0xb8b8b8,%edi
  40712a:	4d 89 ef             	mov    %r13,%r15
  40712d:	4c 01 e8             	add    %r13,%rax
  407130:	ff d0                	call   *%rax
  407132:	4a 8b 04 2b          	mov    (%rbx,%r13,1),%rax
  407136:	48 8b 38             	mov    (%rax),%rdi
  407139:	48 85 ff             	test   %rdi,%rdi
  40713c:	74 0a                	je     407148 <_ZL14parseAcpiTableP10AcpiHeader+0x468>
  40713e:	48 8b 07             	mov    (%rdi),%rax
  407141:	be 5b 00 00 00       	mov    $0x5b,%esi
  407146:	ff 10                	call   *(%rax)
  407148:	48 8b 44 24 08       	mov    0x8(%rsp),%rax
  40714d:	bf 40 cc 2e 00       	mov    $0x2ecc40,%edi
  407152:	4d 89 ef             	mov    %r13,%r15
  407155:	4c 01 e8             	add    %r13,%rax
  407158:	ff d0                	call   *%rax
  40715a:	4e 8b 34 2b          	mov    (%rbx,%r13,1),%r14
  40715e:	48 8b 6c 24 30       	mov    0x30(%rsp),%rbp
  407163:	b8 49 00 00 00       	mov    $0x49,%eax
  407168:	49 8b 3e             	mov    (%r14),%rdi
  40716b:	48 85 ff             	test   %rdi,%rdi
  40716e:	74 1c                	je     40718c <_ZL14parseAcpiTableP10AcpiHeader+0x4ac>
  407170:	0f b6 f0             	movzbl %al,%esi
  407173:	48 8b 07             	mov    (%rdi),%rax
  407176:	ff 10                	call   *(%rax)
  407178:	0f b6 45 00          	movzbl 0x0(%rbp),%eax
  40717c:	84 c0                	test   %al,%al
  40717e:	74 0c                	je     40718c <_ZL14parseAcpiTableP10AcpiHeader+0x4ac>
  407180:	49 8b 3e             	mov    (%r14),%rdi
  407183:	48 83 c5 01          	add    $0x1,%rbp
  407187:	48 85 ff             	test   %rdi,%rdi
  40718a:	75 e4                	jne    407170 <_ZL14parseAcpiTableP10AcpiHeader+0x490>
  40718c:	48 8b 44 24 08       	mov    0x8(%rsp),%rax
  407191:	bf b8 b8 b8 00       	mov    $0xb8b8b8,%edi
  407196:	4d 89 ef             	mov    %r13,%r15
  407199:	4c 01 e8             	add    %r13,%rax
  40719c:	ff d0                	call   *%rax
  40719e:	4a 8b 04 2b          	mov    (%rbx,%r13,1),%rax
  4071a2:	48 8b 38             	mov    (%rax),%rdi
  4071a5:	48 85 ff             	test   %rdi,%rdi
  4071a8:	74 0a                	je     4071b4 <_ZL14parseAcpiTableP10AcpiHeader+0x4d4>
  4071aa:	48 8b 07             	mov    (%rdi),%rax
  4071ad:	be 5d 00 00 00       	mov    $0x5d,%esi
  4071b2:	ff 10                	call   *(%rax)
  4071b4:	48 8b 44 24 08       	mov    0x8(%rsp),%rax
  4071b9:	bf 60 be 60 00       	mov    $0x60be60,%edi
  4071be:	4d 89 ef             	mov    %r13,%r15
  4071c1:	4c 01 e8             	add    %r13,%rax
  4071c4:	ff d0                	call   *%rax
  4071c6:	4a 8b 2c 2b          	mov    (%rbx,%r13,1),%rbp
  4071ca:	48 8b 7d 00          	mov    0x0(%rbp),%rdi
  4071ce:	48 85 ff             	test   %rdi,%rdi
  4071d1:	74 0e                	je     4071e1 <_ZL14parseAcpiTableP10AcpiHeader+0x501>
  4071d3:	48 8b 07             	mov    (%rdi),%rax
  4071d6:	be 28 00 00 00       	mov    $0x28,%esi
  4071db:	ff 10                	call   *(%rax)
  4071dd:	48 8b 7d 00          	mov    0x0(%rbp),%rdi
  4071e1:	48 8b 44 24 38       	mov    0x38(%rsp),%rax
  4071e6:	4a 8b 04 28          	mov    (%rax,%r13,1),%rax
  4071ea:	48 8b 28             	mov    (%rax),%rbp
  4071ed:	0f b6 45 00          	movzbl 0x0(%rbp),%eax
  4071f1:	84 c0                	test   %al,%al
  4071f3:	74 2d                	je     407222 <_ZL14parseAcpiTableP10AcpiHeader+0x542>
  4071f5:	45 31 f6             	xor    %r14d,%r14d
  4071f8:	0f 1f 84 00 00 00 00 	nopl   0x0(%rax,%rax,1)
  4071ff:	00 
  407200:	48 85 ff             	test   %rdi,%rdi
  407203:	74 1d                	je     407222 <_ZL14parseAcpiTableP10AcpiHeader+0x542>
  407205:	0f b6 f0             	movzbl %al,%esi
  407208:	48 8b 07             	mov    (%rdi),%rax
  40720b:	49 83 c6 01          	add    $0x1,%r14
  40720f:	ff 10                	call   *(%rax)
  407211:	4a 8b 04 2b          	mov    (%rbx,%r13,1),%rax
  407215:	48 8b 38             	mov    (%rax),%rdi
  407218:	42 0f b6 44 35 00    	movzbl 0x0(%rbp,%r14,1),%eax
  40721e:	84 c0                	test   %al,%al
  407220:	75 de                	jne    407200 <_ZL14parseAcpiTableP10AcpiHeader+0x520>
  407222:	48 8b 6c 24 28       	mov    0x28(%rsp),%rbp
  407227:	b8 29 00 00 00       	mov    $0x29,%eax
  40722c:	eb 1d                	jmp    40724b <_ZL14parseAcpiTableP10AcpiHeader+0x56b>
  40722e:	66 90                	xchg   %ax,%ax
  407230:	0f b6 f0             	movzbl %al,%esi
  407233:	48 8b 07             	mov    (%rdi),%rax
  407236:	48 83 c5 01          	add    $0x1,%rbp
  40723a:	ff 10                	call   *(%rax)
  40723c:	0f b6 45 ff          	movzbl -0x1(%rbp),%eax
  407240:	84 c0                	test   %al,%al
  407242:	74 1c                	je     407260 <_ZL14parseAcpiTableP10AcpiHeader+0x580>
  407244:	4a 8b 14 2b          	mov    (%rbx,%r13,1),%rdx
  407248:	48 8b 3a             	mov    (%rdx),%rdi
  40724b:	48 85 ff             	test   %rdi,%rdi
  40724e:	75 e0                	jne    407230 <_ZL14parseAcpiTableP10AcpiHeader+0x550>
  407250:	0f b6 45 00          	movzbl 0x0(%rbp),%eax
  407254:	48 83 c5 01          	add    $0x1,%rbp
  407258:	84 c0                	test   %al,%al
  40725a:	75 e8                	jne    407244 <_ZL14parseAcpiTableP10AcpiHeader+0x564>
  40725c:	0f 1f 40 00          	nopl   0x0(%rax)
  407260:	48 8b 6c 24 08       	mov    0x8(%rsp),%rbp
  407265:	bf b8 b8 b8 00       	mov    $0xb8b8b8,%edi
  40726a:	4d 89 ef             	mov    %r13,%r15
  40726d:	49 bc 6f 09 00 00 00 	movabs $0x96f,%r12
  407274:	00 00 00 
  407277:	4c 01 ed             	add    %r13,%rbp
  40727a:	ff d5                	call   *%rbp
  40727c:	4a 8b 04 2b          	mov    (%rbx,%r13,1),%rax
  407280:	bd 41 00 00 00       	mov    $0x41,%ebp
  407285:	48 8b 38             	mov    (%rax),%rdi
  407288:	48 b8 4d 09 00 00 00 	movabs $0x94d,%rax
  40728f:	00 00 00 
  407292:	4d 8d 74 05 00       	lea    0x0(%r13,%rax,1),%r14
  407297:	48 85 ff             	test   %rdi,%rdi
  40729a:	74 10                	je     4072ac <_ZL14parseAcpiTableP10AcpiHeader+0x5cc>
  40729c:	48 8b 07             	mov    (%rdi),%rax
  40729f:	40 0f b6 f5          	movzbl %bpl,%esi
  4072a3:	ff 10                	call   *(%rax)
  4072a5:	4a 8b 04 2b          	mov    (%rbx,%r13,1),%rax
  4072a9:	48 8b 38             	mov    (%rax),%rdi
  4072ac:	41 0f b6 6e 01       	movzbl 0x1(%r14),%ebp
  4072b1:	40 84 ed             	test   %bpl,%bpl
  4072b4:	74 1a                	je     4072d0 <_ZL14parseAcpiTableP10AcpiHeader+0x5f0>
  4072b6:	40 80 fd 40          	cmp    $0x40,%bpl
  4072ba:	74 3c                	je     4072f8 <_ZL14parseAcpiTableP10AcpiHeader+0x618>
  4072bc:	49 83 c6 01          	add    $0x1,%r14
  4072c0:	48 85 ff             	test   %rdi,%rdi
  4072c3:	75 d7                	jne    40729c <_ZL14parseAcpiTableP10AcpiHeader+0x5bc>
  4072c5:	41 0f b6 6e 01       	movzbl 0x1(%r14),%ebp
  4072ca:	40 84 ed             	test   %bpl,%bpl
  4072cd:	75 e7                	jne    4072b6 <_ZL14parseAcpiTableP10AcpiHeader+0x5d6>
  4072cf:	90                   	nop
  4072d0:	48 85 ff             	test   %rdi,%rdi
  4072d3:	0f 84 76 fc ff ff    	je     406f4f <_ZL14parseAcpiTableP10AcpiHeader+0x26f>
  4072d9:	48 8b 07             	mov    (%rdi),%rax
  4072dc:	be 0a 00 00 00       	mov    $0xa,%esi
  4072e1:	48 8b 00             	mov    (%rax),%rax
  4072e4:	48 83 c4 58          	add    $0x58,%rsp
  4072e8:	5b                   	pop    %rbx
  4072e9:	5d                   	pop    %rbp
  4072ea:	41 5c                	pop    %r12
  4072ec:	41 5d                	pop    %r13
  4072ee:	41 5e                	pop    %r14
  4072f0:	41 5f                	pop    %r15
  4072f2:	ff e0                	jmp    *%rax
  4072f4:	0f 1f 40 00          	nopl   0x0(%rax)
  4072f8:	41 0f b6 6e 02       	movzbl 0x2(%r14),%ebp
  4072fd:	4d 8d 7e 02          	lea    0x2(%r14),%r15
  407301:	4d 89 fe             	mov    %r15,%r14
  407304:	40 80 fd 40          	cmp    $0x40,%bpl
  407308:	74 8d                	je     407297 <_ZL14parseAcpiTableP10AcpiHeader+0x5b7>
  40730a:	45 31 f6             	xor    %r14d,%r14d
  40730d:	be 3f 00 00 00       	mov    $0x3f,%esi
  407312:	eb 23                	jmp    407337 <_ZL14parseAcpiTableP10AcpiHeader+0x657>
  407314:	0f 1f 40 00          	nopl   0x0(%rax)
  407318:	48 8b 07             	mov    (%rdi),%rax
  40731b:	49 83 c6 01          	add    $0x1,%r14
  40731f:	ff 10                	call   *(%rax)
  407321:	4a 8b 04 2b          	mov    (%rbx,%r13,1),%rax
  407325:	48 8b 38             	mov    (%rax),%rdi
  407328:	4b 8d 44 25 00       	lea    0x0(%r13,%r12,1),%rax
  40732d:	41 0f b6 34 06       	movzbl (%r14,%rax,1),%esi
  407332:	40 84 f6             	test   %sil,%sil
  407335:	74 05                	je     40733c <_ZL14parseAcpiTableP10AcpiHeader+0x65c>
  407337:	48 85 ff             	test   %rdi,%rdi
  40733a:	75 dc                	jne    407318 <_ZL14parseAcpiTableP10AcpiHeader+0x638>
  40733c:	4d 89 fe             	mov    %r15,%r14
  40733f:	e9 53 ff ff ff       	jmp    407297 <_ZL14parseAcpiTableP10AcpiHeader+0x5b7>
  407344:	0f 1f 40 00          	nopl   0x0(%rax)
  407348:	48 b8 e0 c8 fe ff ff 	movabs $0xfffffffffffec8e0,%rax
  40734f:	ff ff ff 
  407352:	48 8b 7c 24 18       	mov    0x18(%rsp),%rdi
  407357:	48 83 c4 58          	add    $0x58,%rsp
  40735b:	5b                   	pop    %rbx
  40735c:	4c 01 e8             	add    %r13,%rax
  40735f:	5d                   	pop    %rbp
  407360:	41 5c                	pop    %r12
  407362:	41 5d                	pop    %r13
  407364:	41 5e                	pop    %r14
  407366:	41 5f                	pop    %r15
  407368:	ff e0                	jmp    *%rax
  40736a:	66 0f 1f 44 00 00    	nopw   0x0(%rax,%rax,1)

0000000000407370 <_Z8acpiInitPv>:
  407370:	f3 0f 1e fa          	endbr64 
  407374:	49 bb 2c 5b 01 00 00 	movabs $0x15b2c,%r11
  40737b:	00 00 00 
  40737e:	41 57                	push   %r15
  407380:	4c 8d 3d ed ff ff ff 	lea    -0x13(%rip),%r15        # 407374 <_Z8acpiInitPv+0x4>
  407387:	48 b8 8e 09 00 00 00 	movabs $0x98e,%rax
  40738e:	00 00 00 
  407391:	41 56                	push   %r14
  407393:	4d 01 df             	add    %r11,%r15
  407396:	41 55                	push   %r13
  407398:	41 54                	push   %r12
  40739a:	55                   	push   %rbp
  40739b:	48 bd f0 9c fe ff ff 	movabs $0xfffffffffffe9cf0,%rbp
  4073a2:	ff ff ff 
  4073a5:	53                   	push   %rbx
  4073a6:	48 89 fb             	mov    %rdi,%rbx
  4073a9:	48 83 ec 78          	sub    $0x78,%rsp
  4073ad:	48 89 7c 24 08       	mov    %rdi,0x8(%rsp)
  4073b2:	49 8d 3c 07          	lea    (%r15,%rax,1),%rdi
  4073b6:	48 b8 20 9d fe ff ff 	movabs $0xfffffffffffe9d20,%rax
  4073bd:	ff ff ff 
  4073c0:	4c 01 f8             	add    %r15,%rax
  4073c3:	ff d0                	call   *%rax
  4073c5:	80 7b 0f 00          	cmpb   $0x0,0xf(%rbx)
  4073c9:	bf b8 b8 b8 00       	mov    $0xb8b8b8,%edi
  4073ce:	4a 8d 44 3d 00       	lea    0x0(%rbp,%r15,1),%rax
  4073d3:	0f 85 97 04 00 00    	jne    407870 <_Z8acpiInitPv+0x500>
  4073d9:	48 bb 20 ff ff ff ff 	movabs $0xffffffffffffff20,%rbx
  4073e0:	ff ff ff 
  4073e3:	ff d0                	call   *%rax
  4073e5:	4a 8b 04 3b          	mov    (%rbx,%r15,1),%rax
  4073e9:	48 8b 38             	mov    (%rax),%rdi
  4073ec:	48 85 ff             	test   %rdi,%rdi
  4073ef:	74 0a                	je     4073fb <_Z8acpiInitPv+0x8b>
  4073f1:	48 8b 07             	mov    (%rdi),%rax
  4073f4:	be 5b 00 00 00       	mov    $0x5b,%esi
  4073f9:	ff 10                	call   *(%rax)
  4073fb:	4a 8d 44 3d 00       	lea    0x0(%rbp,%r15,1),%rax
  407400:	bf 40 cc 2e 00       	mov    $0x2ecc40,%edi
  407405:	ff d0                	call   *%rax
  407407:	4e 8b 24 3b          	mov    (%rbx,%r15,1),%r12
  40740b:	48 b8 68 09 00 00 00 	movabs $0x968,%rax
  407412:	00 00 00 
  407415:	48 89 44 24 10       	mov    %rax,0x10(%rsp)
  40741a:	4e 8d 2c 38          	lea    (%rax,%r15,1),%r13
  40741e:	b8 49 00 00 00       	mov    $0x49,%eax
  407423:	eb 18                	jmp    40743d <_Z8acpiInitPv+0xcd>
  407425:	0f 1f 00             	nopl   (%rax)
  407428:	0f b6 f0             	movzbl %al,%esi
  40742b:	48 8b 07             	mov    (%rdi),%rax
  40742e:	ff 10                	call   *(%rax)
  407430:	41 0f b6 45 00       	movzbl 0x0(%r13),%eax
  407435:	84 c0                	test   %al,%al
  407437:	74 0d                	je     407446 <_Z8acpiInitPv+0xd6>
  407439:	49 83 c5 01          	add    $0x1,%r13
  40743d:	49 8b 3c 24          	mov    (%r12),%rdi
  407441:	48 85 ff             	test   %rdi,%rdi
  407444:	75 e2                	jne    407428 <_Z8acpiInitPv+0xb8>
  407446:	bf b8 b8 b8 00       	mov    $0xb8b8b8,%edi
  40744b:	4a 8d 44 3d 00       	lea    0x0(%rbp,%r15,1),%rax
  407450:	ff d0                	call   *%rax
  407452:	4a 8b 04 3b          	mov    (%rbx,%r15,1),%rax
  407456:	48 8b 38             	mov    (%rax),%rdi
  407459:	48 85 ff             	test   %rdi,%rdi
  40745c:	74 0a                	je     407468 <_Z8acpiInitPv+0xf8>
  40745e:	48 8b 07             	mov    (%rdi),%rax
  407461:	be 5d 00 00 00       	mov    $0x5d,%esi
  407466:	ff 10                	call   *(%rax)
  407468:	bf 60 be 60 00       	mov    $0x60be60,%edi
  40746d:	4a 8d 44 3d 00       	lea    0x0(%rbp,%r15,1),%rax
  407472:	ff d0                	call   *%rax
  407474:	4e 8b 24 3b          	mov    (%rbx,%r15,1),%r12
  407478:	49 8b 3c 24          	mov    (%r12),%rdi
  40747c:	48 85 ff             	test   %rdi,%rdi
  40747f:	74 0e                	je     40748f <_Z8acpiInitPv+0x11f>
  407481:	48 8b 07             	mov    (%rdi),%rax
  407484:	be 28 00 00 00       	mov    $0x28,%esi
  407489:	ff 10                	call   *(%rax)
  40748b:	49 8b 3c 24          	mov    (%r12),%rdi
  40748f:	48 b8 d8 ff ff ff ff 	movabs $0xffffffffffffffd8,%rax
  407496:	ff ff ff 
  407499:	48 89 44 24 30       	mov    %rax,0x30(%rsp)
  40749e:	4a 8b 04 38          	mov    (%rax,%r15,1),%rax
  4074a2:	4c 8b 20             	mov    (%rax),%r12
  4074a5:	41 0f b6 04 24       	movzbl (%r12),%eax
  4074aa:	84 c0                	test   %al,%al
  4074ac:	74 2b                	je     4074d9 <_Z8acpiInitPv+0x169>
  4074ae:	45 31 f6             	xor    %r14d,%r14d
  4074b1:	0f 1f 80 00 00 00 00 	nopl   0x0(%rax)
  4074b8:	48 85 ff             	test   %rdi,%rdi
  4074bb:	74 1c                	je     4074d9 <_Z8acpiInitPv+0x169>
  4074bd:	0f b6 f0             	movzbl %al,%esi
  4074c0:	48 8b 07             	mov    (%rdi),%rax
  4074c3:	49 83 c6 01          	add    $0x1,%r14
  4074c7:	ff 10                	call   *(%rax)
  4074c9:	4a 8b 04 3b          	mov    (%rbx,%r15,1),%rax
  4074cd:	48 8b 38             	mov    (%rax),%rdi
  4074d0:	43 0f b6 04 34       	movzbl (%r12,%r14,1),%eax
  4074d5:	84 c0                	test   %al,%al
  4074d7:	75 df                	jne    4074b8 <_Z8acpiInitPv+0x148>
  4074d9:	48 b8 6d 09 00 00 00 	movabs $0x96d,%rax
  4074e0:	00 00 00 
  4074e3:	48 89 44 24 18       	mov    %rax,0x18(%rsp)
  4074e8:	4e 8d 24 38          	lea    (%rax,%r15,1),%r12
  4074ec:	b8 29 00 00 00       	mov    $0x29,%eax
  4074f1:	eb 22                	jmp    407515 <_Z8acpiInitPv+0x1a5>
  4074f3:	0f 1f 44 00 00       	nopl   0x0(%rax,%rax,1)
  4074f8:	0f b6 f0             	movzbl %al,%esi
  4074fb:	48 8b 07             	mov    (%rdi),%rax
  4074fe:	49 83 c4 01          	add    $0x1,%r12
  407502:	ff 10                	call   *(%rax)
  407504:	41 0f b6 44 24 ff    	movzbl -0x1(%r12),%eax
  40750a:	84 c0                	test   %al,%al
  40750c:	74 22                	je     407530 <_Z8acpiInitPv+0x1c0>
  40750e:	4a 8b 14 3b          	mov    (%rbx,%r15,1),%rdx
  407512:	48 8b 3a             	mov    (%rdx),%rdi
  407515:	48 85 ff             	test   %rdi,%rdi
  407518:	75 de                	jne    4074f8 <_Z8acpiInitPv+0x188>
  40751a:	41 0f b6 04 24       	movzbl (%r12),%eax
  40751f:	49 83 c4 01          	add    $0x1,%r12
  407523:	84 c0                	test   %al,%al
  407525:	75 e7                	jne    40750e <_Z8acpiInitPv+0x19e>
  407527:	66 0f 1f 84 00 00 00 	nopw   0x0(%rax,%rax,1)
  40752e:	00 00 
  407530:	4a 8d 44 3d 00       	lea    0x0(%rbp,%r15,1),%rax
  407535:	bf b8 b8 b8 00       	mov    $0xb8b8b8,%edi
  40753a:	41 be 41 00 00 00    	mov    $0x41,%r14d
  407540:	ff d0                	call   *%rax
  407542:	4a 8b 04 3b          	mov    (%rbx,%r15,1),%rax
  407546:	48 89 6c 24 20       	mov    %rbp,0x20(%rsp)
  40754b:	48 89 dd             	mov    %rbx,%rbp
  40754e:	48 8b 38             	mov    (%rax),%rdi
  407551:	48 b8 73 09 00 00 00 	movabs $0x973,%rax
  407558:	00 00 00 
  40755b:	4d 8d 2c 07          	lea    (%r15,%rax,1),%r13
  40755f:	48 b8 6f 09 00 00 00 	movabs $0x96f,%rax
  407566:	00 00 00 
  407569:	4e 8d 24 38          	lea    (%rax,%r15,1),%r12
  40756d:	4c 89 eb             	mov    %r13,%rbx
  407570:	eb 0d                	jmp    40757f <_Z8acpiInitPv+0x20f>
  407572:	66 0f 1f 44 00 00    	nopw   0x0(%rax,%rax,1)
  407578:	4c 8d 6b 01          	lea    0x1(%rbx),%r13
  40757c:	4c 89 eb             	mov    %r13,%rbx
  40757f:	48 85 ff             	test   %rdi,%rdi
  407582:	74 11                	je     407595 <_Z8acpiInitPv+0x225>
  407584:	48 8b 07             	mov    (%rdi),%rax
  407587:	41 0f b6 f6          	movzbl %r14b,%esi
  40758b:	ff 10                	call   *(%rax)
  40758d:	4a 8b 44 3d 00       	mov    0x0(%rbp,%r15,1),%rax
  407592:	48 8b 38             	mov    (%rax),%rdi
  407595:	44 0f b6 73 01       	movzbl 0x1(%rbx),%r14d
  40759a:	45 84 f6             	test   %r14b,%r14b
  40759d:	74 51                	je     4075f0 <_Z8acpiInitPv+0x280>
  40759f:	41 80 fe 40          	cmp    $0x40,%r14b
  4075a3:	75 d3                	jne    407578 <_Z8acpiInitPv+0x208>
  4075a5:	44 0f b6 73 02       	movzbl 0x2(%rbx),%r14d
  4075aa:	4c 8d 6b 02          	lea    0x2(%rbx),%r13
  4075ae:	41 80 fe 40          	cmp    $0x40,%r14b
  4075b2:	74 c8                	je     40757c <_Z8acpiInitPv+0x20c>
  4075b4:	31 db                	xor    %ebx,%ebx
  4075b6:	be 3f 00 00 00       	mov    $0x3f,%esi
  4075bb:	48 85 ff             	test   %rdi,%rdi
  4075be:	74 20                	je     4075e0 <_Z8acpiInitPv+0x270>
  4075c0:	48 8b 07             	mov    (%rdi),%rax
  4075c3:	48 83 c3 01          	add    $0x1,%rbx
  4075c7:	ff 10                	call   *(%rax)
  4075c9:	4a 8b 44 3d 00       	mov    0x0(%rbp,%r15,1),%rax
  4075ce:	42 0f b6 34 23       	movzbl (%rbx,%r12,1),%esi
  4075d3:	48 8b 38             	mov    (%rax),%rdi
  4075d6:	40 84 f6             	test   %sil,%sil
  4075d9:	74 a1                	je     40757c <_Z8acpiInitPv+0x20c>
  4075db:	48 85 ff             	test   %rdi,%rdi
  4075de:	75 e0                	jne    4075c0 <_Z8acpiInitPv+0x250>
  4075e0:	42 80 7c 23 01 00    	cmpb   $0x0,0x1(%rbx,%r12,1)
  4075e6:	75 94                	jne    40757c <_Z8acpiInitPv+0x20c>
  4075e8:	4c 89 eb             	mov    %r13,%rbx
  4075eb:	eb a8                	jmp    407595 <_Z8acpiInitPv+0x225>
  4075ed:	0f 1f 00             	nopl   (%rax)
  4075f0:	48 89 eb             	mov    %rbp,%rbx
  4075f3:	48 8b 6c 24 20       	mov    0x20(%rsp),%rbp
  4075f8:	48 85 ff             	test   %rdi,%rdi
  4075fb:	74 0a                	je     407607 <_Z8acpiInitPv+0x297>
  4075fd:	48 8b 07             	mov    (%rdi),%rax
  407600:	be 0a 00 00 00       	mov    $0xa,%esi
  407605:	ff 10                	call   *(%rax)
  407607:	48 8b 44 24 08       	mov    0x8(%rsp),%rax
  40760c:	8b 40 10             	mov    0x10(%rax),%eax
  40760f:	8b 50 04             	mov    0x4(%rax),%edx
  407612:	48 83 ea 24          	sub    $0x24,%rdx
  407616:	48 c1 ea 02          	shr    $0x2,%rdx
  40761a:	83 e2 ff             	and    $0xffffffff,%edx
  40761d:	74 31                	je     407650 <_Z8acpiInitPv+0x2e0>
  40761f:	4c 8d 68 24          	lea    0x24(%rax),%r13
  407623:	4d 8d 74 95 00       	lea    0x0(%r13,%rdx,4),%r14
  407628:	48 ba 40 9e fe ff ff 	movabs $0xfffffffffffe9e40,%rdx
  40762f:	ff ff ff 
  407632:	4e 8d 24 3a          	lea    (%rdx,%r15,1),%r12
  407636:	66 2e 0f 1f 84 00 00 	cs nopw 0x0(%rax,%rax,1)
  40763d:	00 00 00 
  407640:	41 8b 7d 00          	mov    0x0(%r13),%edi
  407644:	49 83 c5 04          	add    $0x4,%r13
  407648:	41 ff d4             	call   *%r12
  40764b:	4d 39 ee             	cmp    %r13,%r14
  40764e:	75 f0                	jne    407640 <_Z8acpiInitPv+0x2d0>
  407650:	bf b8 b8 b8 00       	mov    $0xb8b8b8,%edi
  407655:	4a 8d 44 3d 00       	lea    0x0(%rbp,%r15,1),%rax
  40765a:	ff d0                	call   *%rax
  40765c:	4a 8b 04 3b          	mov    (%rbx,%r15,1),%rax
  407660:	48 8b 38             	mov    (%rax),%rdi
  407663:	48 85 ff             	test   %rdi,%rdi
  407666:	74 0a                	je     407672 <_Z8acpiInitPv+0x302>
  407668:	48 8b 07             	mov    (%rdi),%rax
  40766b:	be 5b 00 00 00       	mov    $0x5b,%esi
  407670:	ff 10                	call   *(%rax)
  407672:	4a 8d 44 3d 00       	lea    0x0(%rbp,%r15,1),%rax
  407677:	bf 40 cc 2e 00       	mov    $0x2ecc40,%edi
  40767c:	ff d0                	call   *%rax
  40767e:	48 8b 44 24 10       	mov    0x10(%rsp),%rax
  407683:	4e 8b 24 3b          	mov    (%rbx,%r15,1),%r12
  407687:	4e 8d 34 38          	lea    (%rax,%r15,1),%r14
  40768b:	b8 49 00 00 00       	mov    $0x49,%eax
  407690:	eb 1a                	jmp    4076ac <_Z8acpiInitPv+0x33c>
  407692:	66 0f 1f 44 00 00    	nopw   0x0(%rax,%rax,1)
  407698:	0f b6 f0             	movzbl %al,%esi
  40769b:	48 8b 07             	mov    (%rdi),%rax
  40769e:	ff 10                	call   *(%rax)
  4076a0:	41 0f b6 06          	movzbl (%r14),%eax
  4076a4:	84 c0                	test   %al,%al
  4076a6:	74 0d                	je     4076b5 <_Z8acpiInitPv+0x345>
  4076a8:	49 83 c6 01          	add    $0x1,%r14
  4076ac:	49 8b 3c 24          	mov    (%r12),%rdi
  4076b0:	48 85 ff             	test   %rdi,%rdi
  4076b3:	75 e3                	jne    407698 <_Z8acpiInitPv+0x328>
  4076b5:	bf b8 b8 b8 00       	mov    $0xb8b8b8,%edi
  4076ba:	4a 8d 44 3d 00       	lea    0x0(%rbp,%r15,1),%rax
  4076bf:	ff d0                	call   *%rax
  4076c1:	4a 8b 04 3b          	mov    (%rbx,%r15,1),%rax
  4076c5:	48 8b 38             	mov    (%rax),%rdi
  4076c8:	48 85 ff             	test   %rdi,%rdi
  4076cb:	74 0a                	je     4076d7 <_Z8acpiInitPv+0x367>
  4076cd:	48 8b 07             	mov    (%rdi),%rax
  4076d0:	be 5d 00 00 00       	mov    $0x5d,%esi
  4076d5:	ff 10                	call   *(%rax)
  4076d7:	bf 60 be 60 00       	mov    $0x60be60,%edi
  4076dc:	4a 8d 44 3d 00       	lea    0x0(%rbp,%r15,1),%rax
  4076e1:	ff d0                	call   *%rax
  4076e3:	4e 8b 24 3b          	mov    (%rbx,%r15,1),%r12
  4076e7:	49 8b 3c 24          	mov    (%r12),%rdi
  4076eb:	48 85 ff             	test   %rdi,%rdi
  4076ee:	74 0e                	je     4076fe <_Z8acpiInitPv+0x38e>
  4076f0:	48 8b 07             	mov    (%rdi),%rax
  4076f3:	be 28 00 00 00       	mov    $0x28,%esi
  4076f8:	ff 10                	call   *(%rax)
  4076fa:	49 8b 3c 24          	mov    (%r12),%rdi
  4076fe:	48 8b 44 24 30       	mov    0x30(%rsp),%rax
  407703:	4a 8b 04 38          	mov    (%rax,%r15,1),%rax
  407707:	4c 8b 20             	mov    (%rax),%r12
  40770a:	41 0f b6 04 24       	movzbl (%r12),%eax
  40770f:	84 c0                	test   %al,%al
  407711:	74 2e                	je     407741 <_Z8acpiInitPv+0x3d1>
  407713:	45 31 ed             	xor    %r13d,%r13d
  407716:	eb 24                	jmp    40773c <_Z8acpiInitPv+0x3cc>
  407718:	0f 1f 84 00 00 00 00 	nopl   0x0(%rax,%rax,1)
  40771f:	00 
  407720:	0f b6 f0             	movzbl %al,%esi
  407723:	48 8b 07             	mov    (%rdi),%rax
  407726:	49 83 c5 01          	add    $0x1,%r13
  40772a:	ff 10                	call   *(%rax)
  40772c:	4a 8b 04 3b          	mov    (%rbx,%r15,1),%rax
  407730:	48 8b 38             	mov    (%rax),%rdi
  407733:	43 0f b6 04 2c       	movzbl (%r12,%r13,1),%eax
  407738:	84 c0                	test   %al,%al
  40773a:	74 05                	je     407741 <_Z8acpiInitPv+0x3d1>
  40773c:	48 85 ff             	test   %rdi,%rdi
  40773f:	75 df                	jne    407720 <_Z8acpiInitPv+0x3b0>
  407741:	48 8b 44 24 18       	mov    0x18(%rsp),%rax
  407746:	4e 8d 24 38          	lea    (%rax,%r15,1),%r12
  40774a:	b8 29 00 00 00       	mov    $0x29,%eax
  40774f:	eb 24                	jmp    407775 <_Z8acpiInitPv+0x405>
  407751:	0f 1f 80 00 00 00 00 	nopl   0x0(%rax)
  407758:	0f b6 f0             	movzbl %al,%esi
  40775b:	48 8b 07             	mov    (%rdi),%rax
  40775e:	49 83 c4 01          	add    $0x1,%r12
  407762:	ff 10                	call   *(%rax)
  407764:	41 0f b6 44 24 ff    	movzbl -0x1(%r12),%eax
  40776a:	84 c0                	test   %al,%al
  40776c:	74 22                	je     407790 <_Z8acpiInitPv+0x420>
  40776e:	4a 8b 14 3b          	mov    (%rbx,%r15,1),%rdx
  407772:	48 8b 3a             	mov    (%rdx),%rdi
  407775:	48 85 ff             	test   %rdi,%rdi
  407778:	75 de                	jne    407758 <_Z8acpiInitPv+0x3e8>
  40777a:	41 0f b6 04 24       	movzbl (%r12),%eax
  40777f:	49 83 c4 01          	add    $0x1,%r12
  407783:	84 c0                	test   %al,%al
  407785:	75 e7                	jne    40776e <_Z8acpiInitPv+0x3fe>
  407787:	66 0f 1f 84 00 00 00 	nopw   0x0(%rax,%rax,1)
  40778e:	00 00 
  407790:	bf b8 b8 b8 00       	mov    $0xb8b8b8,%edi
  407795:	4c 01 fd             	add    %r15,%rbp
  407798:	49 bd 6f 09 00 00 00 	movabs $0x96f,%r13
  40779f:	00 00 00 
  4077a2:	ff d5                	call   *%rbp
  4077a4:	4a 8b 04 3b          	mov    (%rbx,%r15,1),%rax
  4077a8:	bd 65 00 00 00       	mov    $0x65,%ebp
  4077ad:	4d 01 fd             	add    %r15,%r13
  4077b0:	48 8b 38             	mov    (%rax),%rdi
  4077b3:	48 b8 85 09 00 00 00 	movabs $0x985,%rax
  4077ba:	00 00 00 
  4077bd:	4d 8d 34 07          	lea    (%r15,%rax,1),%r14
  4077c1:	eb 0c                	jmp    4077cf <_Z8acpiInitPv+0x45f>
  4077c3:	0f 1f 44 00 00       	nopl   0x0(%rax,%rax,1)
  4077c8:	4d 8d 66 01          	lea    0x1(%r14),%r12
  4077cc:	4d 89 e6             	mov    %r12,%r14
  4077cf:	48 85 ff             	test   %rdi,%rdi
  4077d2:	74 10                	je     4077e4 <_Z8acpiInitPv+0x474>
  4077d4:	48 8b 07             	mov    (%rdi),%rax
  4077d7:	40 0f b6 f5          	movzbl %bpl,%esi
  4077db:	ff 10                	call   *(%rax)
  4077dd:	4a 8b 04 3b          	mov    (%rbx,%r15,1),%rax
  4077e1:	48 8b 38             	mov    (%rax),%rdi
  4077e4:	41 0f b6 6e 01       	movzbl 0x1(%r14),%ebp
  4077e9:	40 84 ed             	test   %bpl,%bpl
  4077ec:	74 52                	je     407840 <_Z8acpiInitPv+0x4d0>
  4077ee:	40 80 fd 40          	cmp    $0x40,%bpl
  4077f2:	75 d4                	jne    4077c8 <_Z8acpiInitPv+0x458>
  4077f4:	41 0f b6 6e 02       	movzbl 0x2(%r14),%ebp
  4077f9:	4d 8d 66 02          	lea    0x2(%r14),%r12
  4077fd:	40 80 fd 40          	cmp    $0x40,%bpl
  407801:	74 c9                	je     4077cc <_Z8acpiInitPv+0x45c>
  407803:	45 31 f6             	xor    %r14d,%r14d
  407806:	be 3f 00 00 00       	mov    $0x3f,%esi
  40780b:	48 85 ff             	test   %rdi,%rdi
  40780e:	74 1f                	je     40782f <_Z8acpiInitPv+0x4bf>
  407810:	48 8b 07             	mov    (%rdi),%rax
  407813:	49 83 c6 01          	add    $0x1,%r14
  407817:	ff 10                	call   *(%rax)
  407819:	4a 8b 04 3b          	mov    (%rbx,%r15,1),%rax
  40781d:	43 0f b6 34 2e       	movzbl (%r14,%r13,1),%esi
  407822:	48 8b 38             	mov    (%rax),%rdi
  407825:	40 84 f6             	test   %sil,%sil
  407828:	74 a2                	je     4077cc <_Z8acpiInitPv+0x45c>
  40782a:	48 85 ff             	test   %rdi,%rdi
  40782d:	75 e1                	jne    407810 <_Z8acpiInitPv+0x4a0>
  40782f:	43 80 7c 2e 01 00    	cmpb   $0x0,0x1(%r14,%r13,1)
  407835:	75 95                	jne    4077cc <_Z8acpiInitPv+0x45c>
  407837:	4d 89 e6             	mov    %r12,%r14
  40783a:	eb a8                	jmp    4077e4 <_Z8acpiInitPv+0x474>
  40783c:	0f 1f 40 00          	nopl   0x0(%rax)
  407840:	48 85 ff             	test   %rdi,%rdi
  407843:	74 0a                	je     40784f <_Z8acpiInitPv+0x4df>
  407845:	48 8b 07             	mov    (%rdi),%rax
  407848:	be 0a 00 00 00       	mov    $0xa,%esi
  40784d:	ff 10                	call   *(%rax)
  40784f:	48 b8 50 9d fe ff ff 	movabs $0xfffffffffffe9d50,%rax
  407856:	ff ff ff 
  407859:	48 83 c4 78          	add    $0x78,%rsp
  40785d:	5b                   	pop    %rbx
  40785e:	4c 01 f8             	add    %r15,%rax
  407861:	5d                   	pop    %rbp
  407862:	41 5c                	pop    %r12
  407864:	41 5d                	pop    %r13
  407866:	41 5e                	pop    %r14
  407868:	41 5f                	pop    %r15
  40786a:	ff e0                	jmp    *%rax
  40786c:	0f 1f 40 00          	nopl   0x0(%rax)
  407870:	48 bb 20 ff ff ff ff 	movabs $0xffffffffffffff20,%rbx
  407877:	ff ff ff 
  40787a:	ff d0                	call   *%rax
  40787c:	4a 8b 04 3b          	mov    (%rbx,%r15,1),%rax
  407880:	48 8b 38             	mov    (%rax),%rdi
  407883:	48 85 ff             	test   %rdi,%rdi
  407886:	74 0a                	je     407892 <_Z8acpiInitPv+0x522>
  407888:	48 8b 07             	mov    (%rdi),%rax
  40788b:	be 5b 00 00 00       	mov    $0x5b,%esi
  407890:	ff 10                	call   *(%rax)
  407892:	4a 8d 44 3d 00       	lea    0x0(%rbp,%r15,1),%rax
  407897:	bf 40 cc 2e 00       	mov    $0x2ecc40,%edi
  40789c:	ff d0                	call   *%rax
  40789e:	4e 8b 24 3b          	mov    (%rbx,%r15,1),%r12
  4078a2:	48 b8 68 09 00 00 00 	movabs $0x968,%rax
  4078a9:	00 00 00 
  4078ac:	48 89 44 24 10       	mov    %rax,0x10(%rsp)
  4078b1:	4e 8d 2c 38          	lea    (%rax,%r15,1),%r13
  4078b5:	b8 49 00 00 00       	mov    $0x49,%eax
  4078ba:	eb 19                	jmp    4078d5 <_Z8acpiInitPv+0x565>
  4078bc:	0f 1f 40 00          	nopl   0x0(%rax)
  4078c0:	0f b6 f0             	movzbl %al,%esi
  4078c3:	48 8b 07             	mov    (%rdi),%rax
  4078c6:	ff 10                	call   *(%rax)
  4078c8:	41 0f b6 45 00       	movzbl 0x0(%r13),%eax
  4078cd:	84 c0                	test   %al,%al
  4078cf:	74 0d                	je     4078de <_Z8acpiInitPv+0x56e>
  4078d1:	49 83 c5 01          	add    $0x1,%r13
  4078d5:	49 8b 3c 24          	mov    (%r12),%rdi
  4078d9:	48 85 ff             	test   %rdi,%rdi
  4078dc:	75 e2                	jne    4078c0 <_Z8acpiInitPv+0x550>
  4078de:	bf b8 b8 b8 00       	mov    $0xb8b8b8,%edi
  4078e3:	4a 8d 44 3d 00       	lea    0x0(%rbp,%r15,1),%rax
  4078e8:	ff d0                	call   *%rax
  4078ea:	4a 8b 04 3b          	mov    (%rbx,%r15,1),%rax
  4078ee:	48 8b 38             	mov    (%rax),%rdi
  4078f1:	48 85 ff             	test   %rdi,%rdi
  4078f4:	74 0a                	je     407900 <_Z8acpiInitPv+0x590>
  4078f6:	48 8b 07             	mov    (%rdi),%rax
  4078f9:	be 5d 00 00 00       	mov    $0x5d,%esi
  4078fe:	ff 10                	call   *(%rax)
  407900:	bf 60 be 60 00       	mov    $0x60be60,%edi
  407905:	4a 8d 44 3d 00       	lea    0x0(%rbp,%r15,1),%rax
  40790a:	ff d0                	call   *%rax
  40790c:	4e 8b 24 3b          	mov    (%rbx,%r15,1),%r12
  407910:	49 8b 3c 24          	mov    (%r12),%rdi
  407914:	48 85 ff             	test   %rdi,%rdi
  407917:	74 0e                	je     407927 <_Z8acpiInitPv+0x5b7>
  407919:	48 8b 07             	mov    (%rdi),%rax
  40791c:	be 28 00 00 00       	mov    $0x28,%esi
  407921:	ff 10                	call   *(%rax)
  407923:	49 8b 3c 24          	mov    (%r12),%rdi
  407927:	48 b8 d8 ff ff ff ff 	movabs $0xffffffffffffffd8,%rax
  40792e:	ff ff ff 
  407931:	48 89 44 24 30       	mov    %rax,0x30(%rsp)
  407936:	4a 8b 04 38          	mov    (%rax,%r15,1),%rax
  40793a:	4c 8b 20             	mov    (%rax),%r12
  40793d:	41 0f b6 04 24       	movzbl (%r12),%eax
  407942:	84 c0                	test   %al,%al
  407944:	74 2b                	je     407971 <_Z8acpiInitPv+0x601>
  407946:	45 31 f6             	xor    %r14d,%r14d
  407949:	0f 1f 80 00 00 00 00 	nopl   0x0(%rax)
  407950:	48 85 ff             	test   %rdi,%rdi
  407953:	74 1c                	je     407971 <_Z8acpiInitPv+0x601>
  407955:	0f b6 f0             	movzbl %al,%esi
  407958:	48 8b 07             	mov    (%rdi),%rax
  40795b:	49 83 c6 01          	add    $0x1,%r14
  40795f:	ff 10                	call   *(%rax)
  407961:	4a 8b 04 3b          	mov    (%rbx,%r15,1),%rax
  407965:	48 8b 38             	mov    (%rax),%rdi
  407968:	43 0f b6 04 34       	movzbl (%r12,%r14,1),%eax
  40796d:	84 c0                	test   %al,%al
  40796f:	75 df                	jne    407950 <_Z8acpiInitPv+0x5e0>
  407971:	48 b8 6d 09 00 00 00 	movabs $0x96d,%rax
  407978:	00 00 00 
  40797b:	48 89 44 24 18       	mov    %rax,0x18(%rsp)
  407980:	4e 8d 24 38          	lea    (%rax,%r15,1),%r12
  407984:	b8 29 00 00 00       	mov    $0x29,%eax
  407989:	eb 22                	jmp    4079ad <_Z8acpiInitPv+0x63d>
  40798b:	0f 1f 44 00 00       	nopl   0x0(%rax,%rax,1)
  407990:	0f b6 f0             	movzbl %al,%esi
  407993:	48 8b 07             	mov    (%rdi),%rax
  407996:	49 83 c4 01          	add    $0x1,%r12
  40799a:	ff 10                	call   *(%rax)
  40799c:	41 0f b6 44 24 ff    	movzbl -0x1(%r12),%eax
  4079a2:	84 c0                	test   %al,%al
  4079a4:	74 1a                	je     4079c0 <_Z8acpiInitPv+0x650>
  4079a6:	4a 8b 14 3b          	mov    (%rbx,%r15,1),%rdx
  4079aa:	48 8b 3a             	mov    (%rdx),%rdi
  4079ad:	48 85 ff             	test   %rdi,%rdi
  4079b0:	75 de                	jne    407990 <_Z8acpiInitPv+0x620>
  4079b2:	41 0f b6 04 24       	movzbl (%r12),%eax
  4079b7:	49 83 c4 01          	add    $0x1,%r12
  4079bb:	84 c0                	test   %al,%al
  4079bd:	75 e7                	jne    4079a6 <_Z8acpiInitPv+0x636>
  4079bf:	90                   	nop
  4079c0:	4a 8d 44 3d 00       	lea    0x0(%rbp,%r15,1),%rax
  4079c5:	bf b8 b8 b8 00       	mov    $0xb8b8b8,%edi
  4079ca:	41 bc 41 00 00 00    	mov    $0x41,%r12d
  4079d0:	ff d0                	call   *%rax
  4079d2:	48 8b 44 24 08       	mov    0x8(%rsp),%rax
  4079d7:	48 ba 68 0a 00 00 00 	movabs $0xa68,%rdx
  4079de:	00 00 00 
  4079e1:	4c 01 fa             	add    %r15,%rdx
  4079e4:	0f b6 40 0f          	movzbl 0xf(%rax),%eax
  4079e8:	49 89 d5             	mov    %rdx,%r13
  4079eb:	88 44 24 20          	mov    %al,0x20(%rsp)
  4079ef:	4a 8b 04 3b          	mov    (%rbx,%r15,1),%rax
  4079f3:	4c 8b 30             	mov    (%rax),%r14
  4079f6:	eb 0b                	jmp    407a03 <_Z8acpiInitPv+0x693>
  4079f8:	0f 1f 84 00 00 00 00 	nopl   0x0(%rax,%rax,1)
  4079ff:	00 
  407a00:	49 89 fe             	mov    %rdi,%r14
  407a03:	4d 85 f6             	test   %r14,%r14
  407a06:	0f 84 24 02 00 00    	je     407c30 <_Z8acpiInitPv+0x8c0>
  407a0c:	49 8b 06             	mov    (%r14),%rax
  407a0f:	4c 89 f7             	mov    %r14,%rdi
  407a12:	41 0f b6 f4          	movzbl %r12b,%esi
  407a16:	ff 10                	call   *(%rax)
  407a18:	4a 8b 04 3b          	mov    (%rbx,%r15,1),%rax
  407a1c:	48 8b 38             	mov    (%rax),%rdi
  407a1f:	45 0f b6 65 01       	movzbl 0x1(%r13),%r12d
  407a24:	45 84 e4             	test   %r12b,%r12b
  407a27:	74 37                	je     407a60 <_Z8acpiInitPv+0x6f0>
  407a29:	41 80 fc 40          	cmp    $0x40,%r12b
  407a2d:	0f 84 85 00 00 00    	je     407ab8 <_Z8acpiInitPv+0x748>
  407a33:	49 83 c5 01          	add    $0x1,%r13
  407a37:	4d 85 f6             	test   %r14,%r14
  407a3a:	75 c4                	jne    407a00 <_Z8acpiInitPv+0x690>
  407a3c:	4c 89 ea             	mov    %r13,%rdx
  407a3f:	0f b6 42 01          	movzbl 0x1(%rdx),%eax
  407a43:	84 c0                	test   %al,%al
  407a45:	74 19                	je     407a60 <_Z8acpiInitPv+0x6f0>
  407a47:	3c 40                	cmp    $0x40,%al
  407a49:	0f 84 c1 01 00 00    	je     407c10 <_Z8acpiInitPv+0x8a0>
  407a4f:	0f b6 42 02          	movzbl 0x2(%rdx),%eax
  407a53:	48 83 c2 01          	add    $0x1,%rdx
  407a57:	84 c0                	test   %al,%al
  407a59:	75 ec                	jne    407a47 <_Z8acpiInitPv+0x6d7>
  407a5b:	0f 1f 44 00 00       	nopl   0x0(%rax,%rax,1)
  407a60:	48 85 ff             	test   %rdi,%rdi
  407a63:	74 0a                	je     407a6f <_Z8acpiInitPv+0x6ff>
  407a65:	48 8b 07             	mov    (%rdi),%rax
  407a68:	be 0a 00 00 00       	mov    $0xa,%esi
  407a6d:	ff 10                	call   *(%rax)
  407a6f:	48 8b 44 24 08       	mov    0x8(%rsp),%rax
  407a74:	48 8b 40 18          	mov    0x18(%rax),%rax
  407a78:	8b 50 04             	mov    0x4(%rax),%edx
  407a7b:	48 83 ea 24          	sub    $0x24,%rdx
  407a7f:	48 c1 ea 03          	shr    $0x3,%rdx
  407a83:	0f 84 c7 fb ff ff    	je     407650 <_Z8acpiInitPv+0x2e0>
  407a89:	4c 8d 68 24          	lea    0x24(%rax),%r13
  407a8d:	4d 8d 74 d5 00       	lea    0x0(%r13,%rdx,8),%r14
  407a92:	48 ba 40 9e fe ff ff 	movabs $0xfffffffffffe9e40,%rdx
  407a99:	ff ff ff 
  407a9c:	4e 8d 24 3a          	lea    (%rdx,%r15,1),%r12
  407aa0:	49 8b 7d 00          	mov    0x0(%r13),%rdi
  407aa4:	49 83 c5 08          	add    $0x8,%r13
  407aa8:	41 ff d4             	call   *%r12
  407aab:	4d 39 f5             	cmp    %r14,%r13
  407aae:	75 f0                	jne    407aa0 <_Z8acpiInitPv+0x730>
  407ab0:	e9 9b fb ff ff       	jmp    407650 <_Z8acpiInitPv+0x2e0>
  407ab5:	0f 1f 00             	nopl   (%rax)
  407ab8:	45 0f b6 65 02       	movzbl 0x2(%r13),%r12d
  407abd:	49 8d 45 02          	lea    0x2(%r13),%rax
  407ac1:	49 89 c5             	mov    %rax,%r13
  407ac4:	41 80 fc 40          	cmp    $0x40,%r12b
  407ac8:	0f 84 69 ff ff ff    	je     407a37 <_Z8acpiInitPv+0x6c7>
  407ace:	0f b6 54 24 20       	movzbl 0x20(%rsp),%edx
  407ad3:	48 85 d2             	test   %rdx,%rdx
  407ad6:	0f 84 09 02 00 00    	je     407ce5 <_Z8acpiInitPv+0x975>
  407adc:	48 8b 44 24 20       	mov    0x20(%rsp),%rax
  407ae1:	48 c1 ea 04          	shr    $0x4,%rdx
  407ae5:	c6 44 24 60 00       	movb   $0x0,0x60(%rsp)
  407aea:	48 be 97 09 00 00 00 	movabs $0x997,%rsi
  407af1:	00 00 00 
  407af4:	4c 01 fe             	add    %r15,%rsi
  407af7:	83 e0 0f             	and    $0xf,%eax
  407afa:	44 0f b6 04 32       	movzbl (%rdx,%rsi,1),%r8d
  407aff:	0f b6 34 30          	movzbl (%rax,%rsi,1),%esi
  407b03:	48 b8 30 30 30 30 30 	movabs $0x3030303030303030,%rax
  407b0a:	30 30 30 
  407b0d:	48 89 44 24 20       	mov    %rax,0x20(%rsp)
  407b12:	4c 89 c2             	mov    %r8,%rdx
  407b15:	48 c1 e6 08          	shl    $0x8,%rsi
  407b19:	4c 09 c6             	or     %r8,%rsi
  407b1c:	48 c1 e6 20          	shl    $0x20,%rsi
  407b20:	48 81 ce 30 30 30 30 	or     $0x30303030,%rsi
  407b27:	48 c1 e6 10          	shl    $0x10,%rsi
  407b2b:	48 81 ce 30 30 00 00 	or     $0x3030,%rsi
  407b32:	48 89 74 24 28       	mov    %rsi,0x28(%rsp)
  407b37:	66 0f 6f 44 24 20    	movdqa 0x20(%rsp),%xmm0
  407b3d:	0f 29 44 24 50       	movaps %xmm0,0x50(%rsp)
  407b42:	45 84 c0             	test   %r8b,%r8b
  407b45:	74 4f                	je     407b96 <_Z8acpiInitPv+0x826>
  407b47:	48 8d 44 24 5e       	lea    0x5e(%rsp),%rax
  407b4c:	45 31 f6             	xor    %r14d,%r14d
  407b4f:	48 89 6c 24 20       	mov    %rbp,0x20(%rsp)
  407b54:	48 89 dd             	mov    %rbx,%rbp
  407b57:	48 89 44 24 38       	mov    %rax,0x38(%rsp)
  407b5c:	4c 89 f3             	mov    %r14,%rbx
  407b5f:	49 89 c6             	mov    %rax,%r14
  407b62:	66 0f 1f 44 00 00    	nopw   0x0(%rax,%rax,1)
  407b68:	48 85 ff             	test   %rdi,%rdi
  407b6b:	0f 84 37 01 00 00    	je     407ca8 <_Z8acpiInitPv+0x938>
  407b71:	48 8b 07             	mov    (%rdi),%rax
  407b74:	48 83 c3 01          	add    $0x1,%rbx
  407b78:	0f b6 f2             	movzbl %dl,%esi
  407b7b:	ff 10                	call   *(%rax)
  407b7d:	4a 8b 44 3d 00       	mov    0x0(%rbp,%r15,1),%rax
  407b82:	41 0f b6 14 1e       	movzbl (%r14,%rbx,1),%edx
  407b87:	48 8b 38             	mov    (%rax),%rdi
  407b8a:	84 d2                	test   %dl,%dl
  407b8c:	75 da                	jne    407b68 <_Z8acpiInitPv+0x7f8>
  407b8e:	48 89 eb             	mov    %rbp,%rbx
  407b91:	48 8b 6c 24 20       	mov    0x20(%rsp),%rbp
  407b96:	45 84 e4             	test   %r12b,%r12b
  407b99:	0f 84 c1 fe ff ff    	je     407a60 <_Z8acpiInitPv+0x6f0>
  407b9f:	48 ba 6f 09 00 00 00 	movabs $0x96f,%rdx
  407ba6:	00 00 00 
  407ba9:	48 89 6c 24 40       	mov    %rbp,0x40(%rsp)
  407bae:	4c 89 ed             	mov    %r13,%rbp
  407bb1:	49 89 dd             	mov    %rbx,%r13
  407bb4:	4a 8d 04 3a          	lea    (%rdx,%r15,1),%rax
  407bb8:	48 89 44 24 38       	mov    %rax,0x38(%rsp)
  407bbd:	eb 2c                	jmp    407beb <_Z8acpiInitPv+0x87b>
  407bbf:	90                   	nop
  407bc0:	48 85 ff             	test   %rdi,%rdi
  407bc3:	0f 84 6e 01 00 00    	je     407d37 <_Z8acpiInitPv+0x9c7>
  407bc9:	48 8b 07             	mov    (%rdi),%rax
  407bcc:	41 0f b6 f4          	movzbl %r12b,%esi
  407bd0:	ff 10                	call   *(%rax)
  407bd2:	4b 8b 44 3d 00       	mov    0x0(%r13,%r15,1),%rax
  407bd7:	44 0f b6 65 01       	movzbl 0x1(%rbp),%r12d
  407bdc:	48 8b 38             	mov    (%rax),%rdi
  407bdf:	45 84 e4             	test   %r12b,%r12b
  407be2:	0f 84 f0 00 00 00    	je     407cd8 <_Z8acpiInitPv+0x968>
  407be8:	48 89 dd             	mov    %rbx,%rbp
  407beb:	48 8d 5d 01          	lea    0x1(%rbp),%rbx
  407bef:	48 89 5c 24 20       	mov    %rbx,0x20(%rsp)
  407bf4:	41 80 fc 40          	cmp    $0x40,%r12b
  407bf8:	75 c6                	jne    407bc0 <_Z8acpiInitPv+0x850>
  407bfa:	44 0f b6 65 01       	movzbl 0x1(%rbp),%r12d
  407bff:	41 80 fc 40          	cmp    $0x40,%r12b
  407c03:	75 3b                	jne    407c40 <_Z8acpiInitPv+0x8d0>
  407c05:	48 89 dd             	mov    %rbx,%rbp
  407c08:	48 8d 5b 01          	lea    0x1(%rbx),%rbx
  407c0c:	eb b2                	jmp    407bc0 <_Z8acpiInitPv+0x850>
  407c0e:	66 90                	xchg   %ax,%ax
  407c10:	44 0f b6 62 02       	movzbl 0x2(%rdx),%r12d
  407c15:	4c 8d 6a 02          	lea    0x2(%rdx),%r13
  407c19:	41 80 fc 40          	cmp    $0x40,%r12b
  407c1d:	0f 84 19 fe ff ff    	je     407a3c <_Z8acpiInitPv+0x6cc>
  407c23:	e9 a6 fe ff ff       	jmp    407ace <_Z8acpiInitPv+0x75e>
  407c28:	0f 1f 84 00 00 00 00 	nopl   0x0(%rax,%rax,1)
  407c2f:	00 
  407c30:	31 ff                	xor    %edi,%edi
  407c32:	e9 e8 fd ff ff       	jmp    407a1f <_Z8acpiInitPv+0x6af>
  407c37:	66 0f 1f 84 00 00 00 	nopw   0x0(%rax,%rax,1)
  407c3e:	00 00 
  407c40:	45 31 f6             	xor    %r14d,%r14d
  407c43:	44 88 64 24 4f       	mov    %r12b,0x4f(%rsp)
  407c48:	b8 3f 00 00 00       	mov    $0x3f,%eax
  407c4d:	4d 89 ec             	mov    %r13,%r12
  407c50:	4d 89 f5             	mov    %r14,%r13
  407c53:	49 89 de             	mov    %rbx,%r14
  407c56:	48 8b 5c 24 38       	mov    0x38(%rsp),%rbx
  407c5b:	eb 24                	jmp    407c81 <_Z8acpiInitPv+0x911>
  407c5d:	0f 1f 00             	nopl   (%rax)
  407c60:	0f b6 f0             	movzbl %al,%esi
  407c63:	48 8b 07             	mov    (%rdi),%rax
  407c66:	49 83 c5 01          	add    $0x1,%r13
  407c6a:	ff 10                	call   *(%rax)
  407c6c:	4b 8b 04 3c          	mov    (%r12,%r15,1),%rax
  407c70:	48 8b 38             	mov    (%rax),%rdi
  407c73:	41 0f b6 44 1d 00    	movzbl 0x0(%r13,%rbx,1),%eax
  407c79:	84 c0                	test   %al,%al
  407c7b:	0f 84 9e 00 00 00    	je     407d1f <_Z8acpiInitPv+0x9af>
  407c81:	48 85 ff             	test   %rdi,%rdi
  407c84:	75 da                	jne    407c60 <_Z8acpiInitPv+0x8f0>
  407c86:	4d 89 e5             	mov    %r12,%r13
  407c89:	48 8d 5d 02          	lea    0x2(%rbp),%rbx
  407c8d:	48 8b 44 24 20       	mov    0x20(%rsp),%rax
  407c92:	44 0f b6 60 01       	movzbl 0x1(%rax),%r12d
  407c97:	45 84 e4             	test   %r12b,%r12b
  407c9a:	74 76                	je     407d12 <_Z8acpiInitPv+0x9a2>
  407c9c:	31 ff                	xor    %edi,%edi
  407c9e:	e9 45 ff ff ff       	jmp    407be8 <_Z8acpiInitPv+0x878>
  407ca3:	0f 1f 44 00 00       	nopl   0x0(%rax,%rax,1)
  407ca8:	48 8b 44 24 38       	mov    0x38(%rsp),%rax
  407cad:	49 89 de             	mov    %rbx,%r14
  407cb0:	48 89 eb             	mov    %rbp,%rbx
  407cb3:	48 8b 6c 24 20       	mov    0x20(%rsp),%rbp
  407cb8:	42 80 7c 30 01 00    	cmpb   $0x0,0x1(%rax,%r14,1)
  407cbe:	0f 85 d2 fe ff ff    	jne    407b96 <_Z8acpiInitPv+0x826>
  407cc4:	45 84 e4             	test   %r12b,%r12b
  407cc7:	0f 85 d2 fe ff ff    	jne    407b9f <_Z8acpiInitPv+0x82f>
  407ccd:	e9 9d fd ff ff       	jmp    407a6f <_Z8acpiInitPv+0x6ff>
  407cd2:	66 0f 1f 44 00 00    	nopw   0x0(%rax,%rax,1)
  407cd8:	48 8b 6c 24 40       	mov    0x40(%rsp),%rbp
  407cdd:	4c 89 eb             	mov    %r13,%rbx
  407ce0:	e9 7b fd ff ff       	jmp    407a60 <_Z8acpiInitPv+0x6f0>
  407ce5:	48 85 ff             	test   %rdi,%rdi
  407ce8:	74 da                	je     407cc4 <_Z8acpiInitPv+0x954>
  407cea:	48 8b 17             	mov    (%rdi),%rdx
  407ced:	be 30 00 00 00       	mov    $0x30,%esi
  407cf2:	ff 12                	call   *(%rdx)
  407cf4:	4e 8b 34 3b          	mov    (%rbx,%r15,1),%r14
  407cf8:	49 8b 3e             	mov    (%r14),%rdi
  407cfb:	48 85 ff             	test   %rdi,%rdi
  407cfe:	74 c4                	je     407cc4 <_Z8acpiInitPv+0x954>
  407d00:	48 8b 17             	mov    (%rdi),%rdx
  407d03:	be 30 00 00 00       	mov    $0x30,%esi
  407d08:	ff 12                	call   *(%rdx)
  407d0a:	49 8b 3e             	mov    (%r14),%rdi
  407d0d:	e9 84 fe ff ff       	jmp    407b96 <_Z8acpiInitPv+0x826>
  407d12:	48 8b 6c 24 40       	mov    0x40(%rsp),%rbp
  407d17:	4c 89 eb             	mov    %r13,%rbx
  407d1a:	e9 50 fd ff ff       	jmp    407a6f <_Z8acpiInitPv+0x6ff>
  407d1f:	4c 89 f3             	mov    %r14,%rbx
  407d22:	4d 89 e5             	mov    %r12,%r13
  407d25:	4c 89 f5             	mov    %r14,%rbp
  407d28:	44 0f b6 64 24 4f    	movzbl 0x4f(%rsp),%r12d
  407d2e:	48 83 c3 01          	add    $0x1,%rbx
  407d32:	e9 89 fe ff ff       	jmp    407bc0 <_Z8acpiInitPv+0x850>
  407d37:	48 89 6c 24 20       	mov    %rbp,0x20(%rsp)
  407d3c:	e9 4c ff ff ff       	jmp    407c8d <_Z8acpiInitPv+0x91d>
  407d41:	66 2e 0f 1f 84 00 00 	cs nopw 0x0(%rax,%rax,1)
  407d48:	00 00 00 
  407d4b:	0f 1f 44 00 00       	nopl   0x0(%rax,%rax,1)

0000000000407d50 <_ZN4EXOS6Driver8Graphics22BasicFramebufferDriver9drawPixelEjjj>:
  407d50:	f3 0f 1e fa          	endbr64 
  407d54:	48 8d 05 f9 ff ff ff 	lea    -0x7(%rip),%rax        # 407d54 <_ZN4EXOS6Driver8Graphics22BasicFramebufferDriver9drawPixelEjjj+0x4>
  407d5b:	49 bb 4c 51 01 00 00 	movabs $0x1514c,%r11
  407d62:	00 00 00 
  407d65:	48 bf cc f7 ff ff ff 	movabs $0xfffffffffffff7cc,%rdi
  407d6c:	ff ff ff 
  407d6f:	4c 01 d8             	add    %r11,%rax
  407d72:	8b 3c 38             	mov    (%rax,%rdi,1),%edi
  407d75:	39 f7                	cmp    %esi,%edi
  407d77:	76 27                	jbe    407da0 <_ZN4EXOS6Driver8Graphics22BasicFramebufferDriver9drawPixelEjjj+0x50>
  407d79:	49 b8 c8 f7 ff ff ff 	movabs $0xfffffffffffff7c8,%r8
  407d80:	ff ff ff 
  407d83:	42 39 14 00          	cmp    %edx,(%rax,%r8,1)
  407d87:	76 17                	jbe    407da0 <_ZN4EXOS6Driver8Graphics22BasicFramebufferDriver9drawPixelEjjj+0x50>
  407d89:	0f af fa             	imul   %edx,%edi
  407d8c:	8d 14 37             	lea    (%rdi,%rsi,1),%edx
  407d8f:	48 be d0 f7 ff ff ff 	movabs $0xfffffffffffff7d0,%rsi
  407d96:	ff ff ff 
  407d99:	48 8b 04 30          	mov    (%rax,%rsi,1),%rax
  407d9d:	89 0c 90             	mov    %ecx,(%rax,%rdx,4)
  407da0:	c3                   	ret    
  407da1:	90                   	nop
  407da2:	66 66 2e 0f 1f 84 00 	data16 cs nopw 0x0(%rax,%rax,1)
  407da9:	00 00 00 00 
  407dad:	0f 1f 00             	nopl   (%rax)

0000000000407db0 <_ZN4EXOS6Driver8Graphics22BasicFramebufferDriver8getWidthEv>:
  407db0:	f3 0f 1e fa          	endbr64 
  407db4:	49 bb ec 50 01 00 00 	movabs $0x150ec,%r11
  407dbb:	00 00 00 
  407dbe:	48 8d 05 ef ff ff ff 	lea    -0x11(%rip),%rax        # 407db4 <_ZN4EXOS6Driver8Graphics22BasicFramebufferDriver8getWidthEv+0x4>
  407dc5:	48 ba cc f7 ff ff ff 	movabs $0xfffffffffffff7cc,%rdx
  407dcc:	ff ff ff 
  407dcf:	4c 01 d8             	add    %r11,%rax
  407dd2:	8b 04 10             	mov    (%rax,%rdx,1),%eax
  407dd5:	c3                   	ret    
  407dd6:	66 2e 0f 1f 84 00 00 	cs nopw 0x0(%rax,%rax,1)
  407ddd:	00 00 00 

0000000000407de0 <_ZN4EXOS6Driver8Graphics22BasicFramebufferDriver9getHeightEv>:
  407de0:	f3 0f 1e fa          	endbr64 
  407de4:	49 bb bc 50 01 00 00 	movabs $0x150bc,%r11
  407deb:	00 00 00 
  407dee:	48 8d 05 ef ff ff ff 	lea    -0x11(%rip),%rax        # 407de4 <_ZN4EXOS6Driver8Graphics22BasicFramebufferDriver9getHeightEv+0x4>
  407df5:	48 ba c8 f7 ff ff ff 	movabs $0xfffffffffffff7c8,%rdx
  407dfc:	ff ff ff 
  407dff:	4c 01 d8             	add    %r11,%rax
  407e02:	8b 04 10             	mov    (%rax,%rdx,1),%eax
  407e05:	c3                   	ret    
  407e06:	66 2e 0f 1f 84 00 00 	cs nopw 0x0(%rax,%rax,1)
  407e0d:	00 00 00 

0000000000407e10 <_ZN4EXOS6Driver8Graphics22BasicFramebufferDriver14getFramebufferEv>:
  407e10:	f3 0f 1e fa          	endbr64 
  407e14:	49 bb 8c 50 01 00 00 	movabs $0x1508c,%r11
  407e1b:	00 00 00 
  407e1e:	48 8d 05 ef ff ff ff 	lea    -0x11(%rip),%rax        # 407e14 <_ZN4EXOS6Driver8Graphics22BasicFramebufferDriver14getFramebufferEv+0x4>
  407e25:	48 ba d0 f7 ff ff ff 	movabs $0xfffffffffffff7d0,%rdx
  407e2c:	ff ff ff 
  407e2f:	4c 01 d8             	add    %r11,%rax
  407e32:	48 8b 04 10          	mov    (%rax,%rdx,1),%rax
  407e36:	c3                   	ret    
  407e37:	90                   	nop
  407e38:	0f 1f 84 00 00 00 00 	nopl   0x0(%rax,%rax,1)
  407e3f:	00 

0000000000407e40 <_ZN4EXOS6Driver8Graphics22BasicFramebufferDriverC1Eyjj>:
  407e40:	f3 0f 1e fa          	endbr64 
  407e44:	48 8d 05 f9 ff ff ff 	lea    -0x7(%rip),%rax        # 407e44 <_ZN4EXOS6Driver8Graphics22BasicFramebufferDriverC1Eyjj+0x4>
  407e4b:	41 89 d0             	mov    %edx,%r8d
  407e4e:	49 bb 5c 50 01 00 00 	movabs $0x1505c,%r11
  407e55:	00 00 00 
  407e58:	48 ba 80 00 00 00 00 	movabs $0x80,%rdx
  407e5f:	00 00 00 
  407e62:	4c 01 d8             	add    %r11,%rax
  407e65:	48 01 c2             	add    %rax,%rdx
  407e68:	48 89 17             	mov    %rdx,(%rdi)
  407e6b:	48 ba d0 f7 ff ff ff 	movabs $0xfffffffffffff7d0,%rdx
  407e72:	ff ff ff 
  407e75:	48 89 34 02          	mov    %rsi,(%rdx,%rax,1)
  407e79:	48 ba cc f7 ff ff ff 	movabs $0xfffffffffffff7cc,%rdx
  407e80:	ff ff ff 
  407e83:	44 89 04 02          	mov    %r8d,(%rdx,%rax,1)
  407e87:	48 ba c8 f7 ff ff ff 	movabs $0xfffffffffffff7c8,%rdx
  407e8e:	ff ff ff 
  407e91:	89 0c 02             	mov    %ecx,(%rdx,%rax,1)
  407e94:	c3                   	ret    
  407e95:	66 2e 0f 1f 84 00 00 	cs nopw 0x0(%rax,%rax,1)
  407e9c:	00 00 00 
  407e9f:	90                   	nop

0000000000407ea0 <malloc>:
  407ea0:	f3 0f 1e fa          	endbr64 
  407ea4:	49 bb fc 4f 01 00 00 	movabs $0x14ffc,%r11
  407eab:	00 00 00 
  407eae:	41 57                	push   %r15
  407eb0:	4c 8d 3d ed ff ff ff 	lea    -0x13(%rip),%r15        # 407ea4 <malloc+0x4>
  407eb7:	48 b8 60 b6 fe ff ff 	movabs $0xfffffffffffeb660,%rax
  407ebe:	ff ff ff 
  407ec1:	4d 01 df             	add    %r11,%r15
  407ec4:	4c 01 f8             	add    %r15,%rax
  407ec7:	41 5f                	pop    %r15
  407ec9:	ff e0                	jmp    *%rax
  407ecb:	0f 1f 44 00 00       	nopl   0x0(%rax,%rax,1)

0000000000407ed0 <_Z15cxxabiEarlyInitv>:
  407ed0:	f3 0f 1e fa          	endbr64 
  407ed4:	41 57                	push   %r15
  407ed6:	4c 8d 3d f7 ff ff ff 	lea    -0x9(%rip),%r15        # 407ed4 <_Z15cxxabiEarlyInitv+0x4>
  407edd:	be 08 00 00 00       	mov    $0x8,%esi
  407ee2:	49 bb cc 4f 01 00 00 	movabs $0x14fcc,%r11
  407ee9:	00 00 00 
  407eec:	48 b8 70 ff ff ff ff 	movabs $0xffffffffffffff70,%rax
  407ef3:	ff ff ff 
  407ef6:	53                   	push   %rbx
  407ef7:	4d 01 df             	add    %r11,%r15
  407efa:	48 83 ec 18          	sub    $0x18,%rsp
  407efe:	49 8b 04 07          	mov    (%r15,%rax,1),%rax
  407f02:	48 8d 7c 24 08       	lea    0x8(%rsp),%rdi
  407f07:	48 8d 58 10          	lea    0x10(%rax),%rbx
  407f0b:	48 b8 f0 98 fe ff ff 	movabs $0xfffffffffffe98f0,%rax
  407f12:	ff ff ff 
  407f15:	48 89 5c 24 08       	mov    %rbx,0x8(%rsp)
  407f1a:	4c 01 f8             	add    %r15,%rax
  407f1d:	ff d0                	call   *%rax
  407f1f:	48 ba d8 f7 ff ff ff 	movabs $0xfffffffffffff7d8,%rdx
  407f26:	ff ff ff 
  407f29:	48 89 18             	mov    %rbx,(%rax)
  407f2c:	49 89 04 17          	mov    %rax,(%r15,%rdx,1)
  407f30:	48 83 c4 18          	add    $0x18,%rsp
  407f34:	5b                   	pop    %rbx
  407f35:	41 5f                	pop    %r15
  407f37:	c3                   	ret    
  407f38:	0f 1f 84 00 00 00 00 	nopl   0x0(%rax,%rax,1)
  407f3f:	00 

0000000000407f40 <_Znwm>:
  407f40:	f3 0f 1e fa          	endbr64 
  407f44:	49 bb 5c 4f 01 00 00 	movabs $0x14f5c,%r11
  407f4b:	00 00 00 
  407f4e:	41 57                	push   %r15
  407f50:	4c 8d 3d ed ff ff ff 	lea    -0x13(%rip),%r15        # 407f44 <_Znwm+0x4>
  407f57:	41 56                	push   %r14
  407f59:	4d 01 df             	add    %r11,%r15
  407f5c:	41 55                	push   %r13
  407f5e:	41 54                	push   %r12
  407f60:	55                   	push   %rbp
  407f61:	48 bd 20 ff ff ff ff 	movabs $0xffffffffffffff20,%rbp
  407f68:	ff ff ff 
  407f6b:	53                   	push   %rbx
  407f6c:	48 bb f0 9c fe ff ff 	movabs $0xfffffffffffe9cf0,%rbx
  407f73:	ff ff ff 
  407f76:	4a 8d 04 3b          	lea    (%rbx,%r15,1),%rax
  407f7a:	48 83 ec 78          	sub    $0x78,%rsp
  407f7e:	48 89 7c 24 08       	mov    %rdi,0x8(%rsp)
  407f83:	bf b8 b8 b8 00       	mov    $0xb8b8b8,%edi
  407f88:	ff d0                	call   *%rax
  407f8a:	4a 8b 44 3d 00       	mov    0x0(%rbp,%r15,1),%rax
  407f8f:	48 8b 38             	mov    (%rax),%rdi
  407f92:	48 85 ff             	test   %rdi,%rdi
  407f95:	74 0a                	je     407fa1 <_Znwm+0x61>
  407f97:	48 8b 07             	mov    (%rdi),%rax
  407f9a:	be 5b 00 00 00       	mov    $0x5b,%esi
  407f9f:	ff 10                	call   *(%rax)
  407fa1:	bf 70 80 01 00       	mov    $0x18070,%edi
  407fa6:	4a 8d 04 3b          	lea    (%rbx,%r15,1),%rax
  407faa:	ff d0                	call   *%rax
  407fac:	4e 8b 6c 3d 00       	mov    0x0(%rbp,%r15,1),%r13
  407fb1:	48 b8 c3 09 00 00 00 	movabs $0x9c3,%rax
  407fb8:	00 00 00 
  407fbb:	4d 8d 34 07          	lea    (%r15,%rax,1),%r14
  407fbf:	b8 44 00 00 00       	mov    $0x44,%eax
  407fc4:	49 8b 7d 00          	mov    0x0(%r13),%rdi
  407fc8:	48 85 ff             	test   %rdi,%rdi
  407fcb:	74 20                	je     407fed <_Znwm+0xad>
  407fcd:	0f 1f 00             	nopl   (%rax)
  407fd0:	0f b6 f0             	movzbl %al,%esi
  407fd3:	48 8b 07             	mov    (%rdi),%rax
  407fd6:	ff 10                	call   *(%rax)
  407fd8:	41 0f b6 06          	movzbl (%r14),%eax
  407fdc:	84 c0                	test   %al,%al
  407fde:	74 0d                	je     407fed <_Znwm+0xad>
  407fe0:	49 8b 7d 00          	mov    0x0(%r13),%rdi
  407fe4:	49 83 c6 01          	add    $0x1,%r14
  407fe8:	48 85 ff             	test   %rdi,%rdi
  407feb:	75 e3                	jne    407fd0 <_Znwm+0x90>
  407fed:	bf b8 b8 b8 00       	mov    $0xb8b8b8,%edi
  407ff2:	4a 8d 04 3b          	lea    (%rbx,%r15,1),%rax
  407ff6:	ff d0                	call   *%rax
  407ff8:	4a 8b 44 3d 00       	mov    0x0(%rbp,%r15,1),%rax
  407ffd:	48 8b 38             	mov    (%rax),%rdi
  408000:	48 85 ff             	test   %rdi,%rdi
  408003:	74 0a                	je     40800f <_Znwm+0xcf>
  408005:	48 8b 07             	mov    (%rdi),%rax
  408008:	be 5d 00 00 00       	mov    $0x5d,%esi
  40800d:	ff 10                	call   *(%rax)
  40800f:	bf 60 be 60 00       	mov    $0x60be60,%edi
  408014:	4a 8d 04 3b          	lea    (%rbx,%r15,1),%rax
  408018:	ff d0                	call   *%rax
  40801a:	4e 8b 6c 3d 00       	mov    0x0(%rbp,%r15,1),%r13
  40801f:	49 8b 7d 00          	mov    0x0(%r13),%rdi
  408023:	48 85 ff             	test   %rdi,%rdi
  408026:	74 0e                	je     408036 <_Znwm+0xf6>
  408028:	48 8b 07             	mov    (%rdi),%rax
  40802b:	be 28 00 00 00       	mov    $0x28,%esi
  408030:	ff 10                	call   *(%rax)
  408032:	49 8b 7d 00          	mov    0x0(%r13),%rdi
  408036:	48 b8 d8 ff ff ff ff 	movabs $0xffffffffffffffd8,%rax
  40803d:	ff ff ff 
  408040:	49 8b 04 07          	mov    (%r15,%rax,1),%rax
  408044:	4c 8b 28             	mov    (%rax),%r13
  408047:	41 0f b6 45 00       	movzbl 0x0(%r13),%eax
  40804c:	84 c0                	test   %al,%al
  40804e:	74 2b                	je     40807b <_Znwm+0x13b>
  408050:	45 31 f6             	xor    %r14d,%r14d
  408053:	0f 1f 44 00 00       	nopl   0x0(%rax,%rax,1)
  408058:	48 85 ff             	test   %rdi,%rdi
  40805b:	74 1e                	je     40807b <_Znwm+0x13b>
  40805d:	0f b6 f0             	movzbl %al,%esi
  408060:	48 8b 07             	mov    (%rdi),%rax
  408063:	49 83 c6 01          	add    $0x1,%r14
  408067:	ff 10                	call   *(%rax)
  408069:	4a 8b 44 3d 00       	mov    0x0(%rbp,%r15,1),%rax
  40806e:	48 8b 38             	mov    (%rax),%rdi
  408071:	43 0f b6 44 35 00    	movzbl 0x0(%r13,%r14,1),%eax
  408077:	84 c0                	test   %al,%al
  408079:	75 dd                	jne    408058 <_Znwm+0x118>
  40807b:	48 b8 6d 09 00 00 00 	movabs $0x96d,%rax
  408082:	00 00 00 
  408085:	4d 8d 2c 07          	lea    (%r15,%rax,1),%r13
  408089:	b8 29 00 00 00       	mov    $0x29,%eax
  40808e:	eb 1d                	jmp    4080ad <_Znwm+0x16d>
  408090:	0f b6 f0             	movzbl %al,%esi
  408093:	48 8b 07             	mov    (%rdi),%rax
  408096:	49 83 c5 01          	add    $0x1,%r13
  40809a:	ff 10                	call   *(%rax)
  40809c:	41 0f b6 45 ff       	movzbl -0x1(%r13),%eax
  4080a1:	84 c0                	test   %al,%al
  4080a3:	74 1b                	je     4080c0 <_Znwm+0x180>
  4080a5:	4a 8b 54 3d 00       	mov    0x0(%rbp,%r15,1),%rdx
  4080aa:	48 8b 3a             	mov    (%rdx),%rdi
  4080ad:	48 85 ff             	test   %rdi,%rdi
  4080b0:	75 de                	jne    408090 <_Znwm+0x150>
  4080b2:	41 0f b6 45 00       	movzbl 0x0(%r13),%eax
  4080b7:	49 83 c5 01          	add    $0x1,%r13
  4080bb:	84 c0                	test   %al,%al
  4080bd:	75 e6                	jne    4080a5 <_Znwm+0x165>
  4080bf:	90                   	nop
  4080c0:	4c 01 fb             	add    %r15,%rbx
  4080c3:	bf b8 b8 b8 00       	mov    $0xb8b8b8,%edi
  4080c8:	ff d3                	call   *%rbx
  4080ca:	4a 8b 44 3d 00       	mov    0x0(%rbp,%r15,1),%rax
  4080cf:	bb 61 00 00 00       	mov    $0x61,%ebx
  4080d4:	4c 8b 30             	mov    (%rax),%r14
  4080d7:	48 b8 a8 09 00 00 00 	movabs $0x9a8,%rax
  4080de:	00 00 00 
  4080e1:	4d 8d 2c 07          	lea    (%r15,%rax,1),%r13
  4080e5:	eb 0c                	jmp    4080f3 <_Znwm+0x1b3>
  4080e7:	66 0f 1f 84 00 00 00 	nopw   0x0(%rax,%rax,1)
  4080ee:	00 00 
  4080f0:	49 89 fe             	mov    %rdi,%r14
  4080f3:	4d 85 f6             	test   %r14,%r14
  4080f6:	0f 84 b4 00 00 00    	je     4081b0 <_Znwm+0x270>
  4080fc:	49 8b 06             	mov    (%r14),%rax
  4080ff:	4c 89 f7             	mov    %r14,%rdi
  408102:	0f b6 f3             	movzbl %bl,%esi
  408105:	ff 10                	call   *(%rax)
  408107:	4a 8b 44 3d 00       	mov    0x0(%rbp,%r15,1),%rax
  40810c:	48 8b 38             	mov    (%rax),%rdi
  40810f:	41 0f b6 5d 01       	movzbl 0x1(%r13),%ebx
  408114:	84 db                	test   %bl,%bl
  408116:	74 28                	je     408140 <_Znwm+0x200>
  408118:	80 fb 40             	cmp    $0x40,%bl
  40811b:	74 7b                	je     408198 <_Znwm+0x258>
  40811d:	49 83 c5 01          	add    $0x1,%r13
  408121:	4d 85 f6             	test   %r14,%r14
  408124:	75 ca                	jne    4080f0 <_Znwm+0x1b0>
  408126:	41 0f b6 45 01       	movzbl 0x1(%r13),%eax
  40812b:	84 c0                	test   %al,%al
  40812d:	74 11                	je     408140 <_Znwm+0x200>
  40812f:	3c 40                	cmp    $0x40,%al
  408131:	74 4d                	je     408180 <_Znwm+0x240>
  408133:	41 0f b6 45 02       	movzbl 0x2(%r13),%eax
  408138:	49 83 c5 01          	add    $0x1,%r13
  40813c:	84 c0                	test   %al,%al
  40813e:	75 ef                	jne    40812f <_Znwm+0x1ef>
  408140:	48 85 ff             	test   %rdi,%rdi
  408143:	74 0a                	je     40814f <_Znwm+0x20f>
  408145:	48 8b 07             	mov    (%rdi),%rax
  408148:	be 0a 00 00 00       	mov    $0xa,%esi
  40814d:	ff 10                	call   *(%rax)
  40814f:	48 b8 d8 f7 ff ff ff 	movabs $0xfffffffffffff7d8,%rax
  408156:	ff ff ff 
  408159:	48 8b 74 24 08       	mov    0x8(%rsp),%rsi
  40815e:	49 8b 3c 07          	mov    (%r15,%rax,1),%rdi
  408162:	48 8b 07             	mov    (%rdi),%rax
  408165:	48 8b 00             	mov    (%rax),%rax
  408168:	48 83 c4 78          	add    $0x78,%rsp
  40816c:	5b                   	pop    %rbx
  40816d:	5d                   	pop    %rbp
  40816e:	41 5c                	pop    %r12
  408170:	41 5d                	pop    %r13
  408172:	41 5e                	pop    %r14
  408174:	41 5f                	pop    %r15
  408176:	ff e0                	jmp    *%rax
  408178:	0f 1f 84 00 00 00 00 	nopl   0x0(%rax,%rax,1)
  40817f:	00 
  408180:	41 0f b6 5d 02       	movzbl 0x2(%r13),%ebx
  408185:	4d 8d 65 02          	lea    0x2(%r13),%r12
  408189:	80 fb 40             	cmp    $0x40,%bl
  40818c:	75 32                	jne    4081c0 <_Znwm+0x280>
  40818e:	4d 89 e5             	mov    %r12,%r13
  408191:	eb 93                	jmp    408126 <_Znwm+0x1e6>
  408193:	0f 1f 44 00 00       	nopl   0x0(%rax,%rax,1)
  408198:	41 0f b6 5d 02       	movzbl 0x2(%r13),%ebx
  40819d:	4d 8d 65 02          	lea    0x2(%r13),%r12
  4081a1:	80 fb 40             	cmp    $0x40,%bl
  4081a4:	75 1a                	jne    4081c0 <_Znwm+0x280>
  4081a6:	4d 89 e5             	mov    %r12,%r13
  4081a9:	e9 73 ff ff ff       	jmp    408121 <_Znwm+0x1e1>
  4081ae:	66 90                	xchg   %ax,%ax
  4081b0:	31 ff                	xor    %edi,%edi
  4081b2:	e9 58 ff ff ff       	jmp    40810f <_Znwm+0x1cf>
  4081b7:	66 0f 1f 84 00 00 00 	nopw   0x0(%rax,%rax,1)
  4081be:	00 00 
  4081c0:	48 83 7c 24 08 00    	cmpq   $0x0,0x8(%rsp)
  4081c6:	0f 84 8a 02 00 00    	je     408456 <_Znwm+0x516>
  4081cc:	48 8b 44 24 08       	mov    0x8(%rsp),%rax
  4081d1:	c6 44 24 60 00       	movb   $0x0,0x60(%rsp)
  4081d6:	48 be 97 09 00 00 00 	movabs $0x997,%rsi
  4081dd:	00 00 00 
  4081e0:	4c 01 fe             	add    %r15,%rsi
  4081e3:	48 89 c1             	mov    %rax,%rcx
  4081e6:	49 89 c5             	mov    %rax,%r13
  4081e9:	48 89 c2             	mov    %rax,%rdx
  4081ec:	49 89 c0             	mov    %rax,%r8
  4081ef:	48 c1 e9 38          	shr    $0x38,%rcx
  4081f3:	49 c1 ed 1c          	shr    $0x1c,%r13
  4081f7:	49 89 c1             	mov    %rax,%r9
  4081fa:	49 89 c2             	mov    %rax,%r10
  4081fd:	83 e1 0f             	and    $0xf,%ecx
  408200:	49 89 c3             	mov    %rax,%r11
  408203:	49 89 c6             	mov    %rax,%r14
  408206:	49 c1 e8 34          	shr    $0x34,%r8
  40820a:	48 89 4c 24 10       	mov    %rcx,0x10(%rsp)
  40820f:	48 89 c1             	mov    %rax,%rcx
  408212:	4c 89 e8             	mov    %r13,%rax
  408215:	4c 8b 6c 24 08       	mov    0x8(%rsp),%r13
  40821a:	48 c1 e9 20          	shr    $0x20,%rcx
  40821e:	83 e0 0f             	and    $0xf,%eax
  408221:	49 c1 ee 24          	shr    $0x24,%r14
  408225:	41 83 e0 0f          	and    $0xf,%r8d
  408229:	49 c1 ed 18          	shr    $0x18,%r13
  40822d:	48 89 44 24 20       	mov    %rax,0x20(%rsp)
  408232:	83 e1 0f             	and    $0xf,%ecx
  408235:	41 83 e6 0f          	and    $0xf,%r14d
  408239:	4c 89 e8             	mov    %r13,%rax
  40823c:	0f b6 0c 31          	movzbl (%rcx,%rsi,1),%ecx
  408240:	45 0f b6 34 36       	movzbl (%r14,%rsi,1),%r14d
  408245:	49 c1 eb 28          	shr    $0x28,%r11
  408249:	83 e0 0f             	and    $0xf,%eax
  40824c:	49 c1 e9 30          	shr    $0x30,%r9
  408250:	41 83 e3 0f          	and    $0xf,%r11d
  408254:	45 0f b6 04 30       	movzbl (%r8,%rsi,1),%r8d
  408259:	48 89 44 24 28       	mov    %rax,0x28(%rsp)
  40825e:	48 8b 44 24 08       	mov    0x8(%rsp),%rax
  408263:	49 c1 ea 2c          	shr    $0x2c,%r10
  408267:	48 c1 e1 08          	shl    $0x8,%rcx
  40826b:	45 0f b6 1c 33       	movzbl (%r11,%rsi,1),%r11d
  408270:	48 c1 ea 3c          	shr    $0x3c,%rdx
  408274:	41 83 e1 0f          	and    $0xf,%r9d
  408278:	41 83 e2 0f          	and    $0xf,%r10d
  40827c:	49 89 c5             	mov    %rax,%r13
  40827f:	45 0f b6 14 32       	movzbl (%r10,%rsi,1),%r10d
  408284:	45 0f b6 0c 31       	movzbl (%r9,%rsi,1),%r9d
  408289:	49 c1 ed 14          	shr    $0x14,%r13
  40828d:	0f b6 14 32          	movzbl (%rdx,%rsi,1),%edx
  408291:	41 83 e5 0f          	and    $0xf,%r13d
  408295:	4c 89 6c 24 30       	mov    %r13,0x30(%rsp)
  40829a:	49 89 c5             	mov    %rax,%r13
  40829d:	49 c1 ed 10          	shr    $0x10,%r13
  4082a1:	4c 89 e8             	mov    %r13,%rax
  4082a4:	4c 8b 6c 24 08       	mov    0x8(%rsp),%r13
  4082a9:	83 e0 0f             	and    $0xf,%eax
  4082ac:	49 c1 ed 0c          	shr    $0xc,%r13
  4082b0:	48 89 44 24 38       	mov    %rax,0x38(%rsp)
  4082b5:	4c 89 e8             	mov    %r13,%rax
  4082b8:	83 e0 0f             	and    $0xf,%eax
  4082bb:	48 89 44 24 40       	mov    %rax,0x40(%rsp)
  4082c0:	48 8b 44 24 08       	mov    0x8(%rsp),%rax
  4082c5:	49 89 c5             	mov    %rax,%r13
  4082c8:	49 c1 ed 08          	shr    $0x8,%r13
  4082cc:	41 83 e5 0f          	and    $0xf,%r13d
  4082d0:	4c 89 6c 24 48       	mov    %r13,0x48(%rsp)
  4082d5:	49 89 c5             	mov    %rax,%r13
  4082d8:	83 e0 0f             	and    $0xf,%eax
  4082db:	49 c1 ed 04          	shr    $0x4,%r13
  4082df:	41 83 e5 0f          	and    $0xf,%r13d
  4082e3:	4c 09 f1             	or     %r14,%rcx
  4082e6:	4c 8b 74 24 48       	mov    0x48(%rsp),%r14
  4082eb:	48 c1 e1 08          	shl    $0x8,%rcx
  4082ef:	4c 09 d9             	or     %r11,%rcx
  4082f2:	4c 8b 5c 24 38       	mov    0x38(%rsp),%r11
  4082f7:	48 c1 e1 08          	shl    $0x8,%rcx
  4082fb:	4c 09 d1             	or     %r10,%rcx
  4082fe:	45 0f b6 54 35 00    	movzbl 0x0(%r13,%rsi,1),%r10d
  408304:	4c 8b 6c 24 30       	mov    0x30(%rsp),%r13
  408309:	48 c1 e1 08          	shl    $0x8,%rcx
  40830d:	4c 09 c9             	or     %r9,%rcx
  408310:	44 0f b6 0c 30       	movzbl (%rax,%rsi,1),%r9d
  408315:	48 c1 e1 08          	shl    $0x8,%rcx
  408319:	49 c1 e1 08          	shl    $0x8,%r9
  40831d:	4c 09 c1             	or     %r8,%rcx
  408320:	4c 8b 44 24 10       	mov    0x10(%rsp),%r8
  408325:	4d 09 d1             	or     %r10,%r9
  408328:	45 0f b6 14 36       	movzbl (%r14,%rsi,1),%r10d
  40832d:	48 c1 e1 08          	shl    $0x8,%rcx
  408331:	49 c1 e1 08          	shl    $0x8,%r9
  408335:	45 0f b6 04 30       	movzbl (%r8,%rsi,1),%r8d
  40833a:	4d 09 d1             	or     %r10,%r9
  40833d:	4c 8b 54 24 40       	mov    0x40(%rsp),%r10
  408342:	49 c1 e1 08          	shl    $0x8,%r9
  408346:	4c 09 c1             	or     %r8,%rcx
  408349:	44 0f b6 c2          	movzbl %dl,%r8d
  40834d:	45 0f b6 14 32       	movzbl (%r10,%rsi,1),%r10d
  408352:	48 c1 e1 08          	shl    $0x8,%rcx
  408356:	4c 09 c1             	or     %r8,%rcx
  408359:	4d 09 d1             	or     %r10,%r9
  40835c:	45 0f b6 14 33       	movzbl (%r11,%rsi,1),%r10d
  408361:	49 c1 e1 08          	shl    $0x8,%r9
  408365:	4d 09 d1             	or     %r10,%r9
  408368:	45 0f b6 54 35 00    	movzbl 0x0(%r13,%rsi,1),%r10d
  40836e:	48 8b 44 24 28       	mov    0x28(%rsp),%rax
  408373:	48 89 4c 24 10       	mov    %rcx,0x10(%rsp)
  408378:	49 c1 e1 08          	shl    $0x8,%r9
  40837c:	4d 09 d1             	or     %r10,%r9
  40837f:	44 0f b6 14 30       	movzbl (%rax,%rsi,1),%r10d
  408384:	48 8b 44 24 20       	mov    0x20(%rsp),%rax
  408389:	49 c1 e1 08          	shl    $0x8,%r9
  40838d:	4d 09 d1             	or     %r10,%r9
  408390:	44 0f b6 14 30       	movzbl (%rax,%rsi,1),%r10d
  408395:	4c 89 ce             	mov    %r9,%rsi
  408398:	48 c1 e6 08          	shl    $0x8,%rsi
  40839c:	4c 09 d6             	or     %r10,%rsi
  40839f:	48 89 74 24 18       	mov    %rsi,0x18(%rsp)
  4083a4:	66 0f 6f 44 24 10    	movdqa 0x10(%rsp),%xmm0
  4083aa:	0f 29 44 24 50       	movaps %xmm0,0x50(%rsp)
  4083af:	84 d2                	test   %dl,%dl
  4083b1:	74 30                	je     4083e3 <_Znwm+0x4a3>
  4083b3:	45 31 ed             	xor    %r13d,%r13d
  4083b6:	eb 26                	jmp    4083de <_Znwm+0x49e>
  4083b8:	0f 1f 84 00 00 00 00 	nopl   0x0(%rax,%rax,1)
  4083bf:	00 
  4083c0:	48 8b 07             	mov    (%rdi),%rax
  4083c3:	49 83 c5 01          	add    $0x1,%r13
  4083c7:	0f b6 f2             	movzbl %dl,%esi
  4083ca:	ff 10                	call   *(%rax)
  4083cc:	4a 8b 44 3d 00       	mov    0x0(%rbp,%r15,1),%rax
  4083d1:	42 0f b6 54 2c 50    	movzbl 0x50(%rsp,%r13,1),%edx
  4083d7:	48 8b 38             	mov    (%rax),%rdi
  4083da:	84 d2                	test   %dl,%dl
  4083dc:	74 05                	je     4083e3 <_Znwm+0x4a3>
  4083de:	48 85 ff             	test   %rdi,%rdi
  4083e1:	75 dd                	jne    4083c0 <_Znwm+0x480>
  4083e3:	48 b8 6f 09 00 00 00 	movabs $0x96f,%rax
  4083ea:	00 00 00 
  4083ed:	48 89 44 24 20       	mov    %rax,0x20(%rsp)
  4083f2:	84 db                	test   %bl,%bl
  4083f4:	75 30                	jne    408426 <_Znwm+0x4e6>
  4083f6:	e9 45 fd ff ff       	jmp    408140 <_Znwm+0x200>
  4083fb:	0f 1f 44 00 00       	nopl   0x0(%rax,%rax,1)
  408400:	48 85 ff             	test   %rdi,%rdi
  408403:	74 47                	je     40844c <_Znwm+0x50c>
  408405:	48 8b 07             	mov    (%rdi),%rax
  408408:	0f b6 f3             	movzbl %bl,%esi
  40840b:	ff 10                	call   *(%rax)
  40840d:	4a 8b 44 3d 00       	mov    0x0(%rbp,%r15,1),%rax
  408412:	41 0f b6 5c 24 01    	movzbl 0x1(%r12),%ebx
  408418:	48 8b 38             	mov    (%rax),%rdi
  40841b:	84 db                	test   %bl,%bl
  40841d:	0f 84 1d fd ff ff    	je     408140 <_Znwm+0x200>
  408423:	4d 89 ec             	mov    %r13,%r12
  408426:	4d 8d 6c 24 01       	lea    0x1(%r12),%r13
  40842b:	4c 89 6c 24 10       	mov    %r13,0x10(%rsp)
  408430:	80 fb 40             	cmp    $0x40,%bl
  408433:	75 cb                	jne    408400 <_Znwm+0x4c0>
  408435:	41 0f b6 5c 24 01    	movzbl 0x1(%r12),%ebx
  40843b:	80 fb 40             	cmp    $0x40,%bl
  40843e:	75 50                	jne    408490 <_Znwm+0x550>
  408440:	4d 89 ec             	mov    %r13,%r12
  408443:	4d 8d 6d 01          	lea    0x1(%r13),%r13
  408447:	48 85 ff             	test   %rdi,%rdi
  40844a:	75 b9                	jne    408405 <_Znwm+0x4c5>
  40844c:	4c 89 64 24 10       	mov    %r12,0x10(%rsp)
  408451:	e9 87 00 00 00       	jmp    4084dd <_Znwm+0x59d>
  408456:	41 bd 10 00 00 00    	mov    $0x10,%r13d
  40845c:	eb 0a                	jmp    408468 <_Znwm+0x528>
  40845e:	66 90                	xchg   %ax,%ax
  408460:	4a 8b 44 3d 00       	mov    0x0(%rbp,%r15,1),%rax
  408465:	48 8b 38             	mov    (%rax),%rdi
  408468:	48 85 ff             	test   %rdi,%rdi
  40846b:	74 0a                	je     408477 <_Znwm+0x537>
  40846d:	48 8b 07             	mov    (%rdi),%rax
  408470:	be 30 00 00 00       	mov    $0x30,%esi
  408475:	ff 10                	call   *(%rax)
  408477:	49 83 ed 01          	sub    $0x1,%r13
  40847b:	75 e3                	jne    408460 <_Znwm+0x520>
  40847d:	4a 8b 54 3d 00       	mov    0x0(%rbp,%r15,1),%rdx
  408482:	48 8b 3a             	mov    (%rdx),%rdi
  408485:	e9 59 ff ff ff       	jmp    4083e3 <_Znwm+0x4a3>
  40848a:	66 0f 1f 44 00 00    	nopw   0x0(%rax,%rax,1)
  408490:	45 31 f6             	xor    %r14d,%r14d
  408493:	be 3f 00 00 00       	mov    $0x3f,%esi
  408498:	0f 1f 84 00 00 00 00 	nopl   0x0(%rax,%rax,1)
  40849f:	00 
  4084a0:	48 85 ff             	test   %rdi,%rdi
  4084a3:	74 33                	je     4084d8 <_Znwm+0x598>
  4084a5:	48 8b 17             	mov    (%rdi),%rdx
  4084a8:	49 83 c6 01          	add    $0x1,%r14
  4084ac:	ff 12                	call   *(%rdx)
  4084ae:	4a 8b 54 3d 00       	mov    0x0(%rbp,%r15,1),%rdx
  4084b3:	48 8b 44 24 20       	mov    0x20(%rsp),%rax
  4084b8:	48 8b 3a             	mov    (%rdx),%rdi
  4084bb:	49 8d 14 07          	lea    (%r15,%rax,1),%rdx
  4084bf:	41 0f b6 34 16       	movzbl (%r14,%rdx,1),%esi
  4084c4:	40 84 f6             	test   %sil,%sil
  4084c7:	75 d7                	jne    4084a0 <_Znwm+0x560>
  4084c9:	4d 89 ec             	mov    %r13,%r12
  4084cc:	49 83 c5 01          	add    $0x1,%r13
  4084d0:	e9 2b ff ff ff       	jmp    408400 <_Znwm+0x4c0>
  4084d5:	0f 1f 00             	nopl   (%rax)
  4084d8:	4d 8d 6c 24 02       	lea    0x2(%r12),%r13
  4084dd:	48 8b 44 24 10       	mov    0x10(%rsp),%rax
  4084e2:	0f b6 58 01          	movzbl 0x1(%rax),%ebx
  4084e6:	84 db                	test   %bl,%bl
  4084e8:	0f 84 61 fc ff ff    	je     40814f <_Znwm+0x20f>
  4084ee:	31 ff                	xor    %edi,%edi
  4084f0:	e9 2e ff ff ff       	jmp    408423 <_Znwm+0x4e3>
  4084f5:	66 66 2e 0f 1f 84 00 	data16 cs nopw 0x0(%rax,%rax,1)
  4084fc:	00 00 00 00 

0000000000408500 <_Znam>:
  408500:	f3 0f 1e fa          	endbr64 
  408504:	48 8d 05 f9 ff ff ff 	lea    -0x7(%rip),%rax        # 408504 <_Znam+0x4>
  40850b:	49 bb 9c 49 01 00 00 	movabs $0x1499c,%r11
  408512:	00 00 00 
  408515:	48 ba a0 b0 fe ff ff 	movabs $0xfffffffffffeb0a0,%rdx
  40851c:	ff ff ff 
  40851f:	4c 01 d8             	add    %r11,%rax
  408522:	48 01 d0             	add    %rdx,%rax
  408525:	ff e0                	jmp    *%rax
  408527:	66 0f 1f 84 00 00 00 	nopw   0x0(%rax,%rax,1)
  40852e:	00 00 

0000000000408530 <_ZdlPv>:
  408530:	f3 0f 1e fa          	endbr64 
  408534:	48 8d 05 f9 ff ff ff 	lea    -0x7(%rip),%rax        # 408534 <_ZdlPv+0x4>
  40853b:	48 89 fe             	mov    %rdi,%rsi
  40853e:	49 bb 6c 49 01 00 00 	movabs $0x1496c,%r11
  408545:	00 00 00 
  408548:	48 ba d8 f7 ff ff ff 	movabs $0xfffffffffffff7d8,%rdx
  40854f:	ff ff ff 
  408552:	4c 01 d8             	add    %r11,%rax
  408555:	48 8b 3c 10          	mov    (%rax,%rdx,1),%rdi
  408559:	48 8b 07             	mov    (%rdi),%rax
  40855c:	ff 60 08             	jmp    *0x8(%rax)
  40855f:	90                   	nop

0000000000408560 <_ZdlPvm>:
  408560:	f3 0f 1e fa          	endbr64 
  408564:	48 8d 05 f9 ff ff ff 	lea    -0x7(%rip),%rax        # 408564 <_ZdlPvm+0x4>
  40856b:	48 89 fe             	mov    %rdi,%rsi
  40856e:	49 bb 3c 49 01 00 00 	movabs $0x1493c,%r11
  408575:	00 00 00 
  408578:	48 ba d8 f7 ff ff ff 	movabs $0xfffffffffffff7d8,%rdx
  40857f:	ff ff ff 
  408582:	4c 01 d8             	add    %r11,%rax
  408585:	48 8b 3c 10          	mov    (%rax,%rdx,1),%rdi
  408589:	48 8b 07             	mov    (%rdi),%rax
  40858c:	ff 60 08             	jmp    *0x8(%rax)
  40858f:	90                   	nop

0000000000408590 <raiseHardwareException>:
  408590:	f3 0f 1e fa          	endbr64 
  408594:	49 bb 0c 49 01 00 00 	movabs $0x1490c,%r11
  40859b:	00 00 00 
  40859e:	41 57                	push   %r15
  4085a0:	4c 8d 3d ed ff ff ff 	lea    -0x13(%rip),%r15        # 408594 <raiseHardwareException+0x4>
  4085a7:	41 56                	push   %r14
  4085a9:	4d 01 df             	add    %r11,%r15
  4085ac:	41 55                	push   %r13
  4085ae:	41 54                	push   %r12
  4085b0:	55                   	push   %rbp
  4085b1:	53                   	push   %rbx
  4085b2:	48 83 ec 08          	sub    $0x8,%rsp
  4085b6:	85 ff                	test   %edi,%edi
  4085b8:	0f 84 31 02 00 00    	je     4087ef <raiseHardwareException+0x25f>
  4085be:	48 bd f0 9c fe ff ff 	movabs $0xfffffffffffe9cf0,%rbp
  4085c5:	ff ff ff 
  4085c8:	83 ff 01             	cmp    $0x1,%edi
  4085cb:	bf b8 b8 b8 00       	mov    $0xb8b8b8,%edi
  4085d0:	4a 8d 44 3d 00       	lea    0x0(%rbp,%r15,1),%rax
  4085d5:	0f 84 34 04 00 00    	je     408a0f <raiseHardwareException+0x47f>
  4085db:	48 bb 20 ff ff ff ff 	movabs $0xffffffffffffff20,%rbx
  4085e2:	ff ff ff 
  4085e5:	ff d0                	call   *%rax
  4085e7:	4a 8b 04 3b          	mov    (%rbx,%r15,1),%rax
  4085eb:	48 8b 38             	mov    (%rax),%rdi
  4085ee:	48 85 ff             	test   %rdi,%rdi
  4085f1:	74 0a                	je     4085fd <raiseHardwareException+0x6d>
  4085f3:	48 8b 07             	mov    (%rdi),%rax
  4085f6:	be 5b 00 00 00       	mov    $0x5b,%esi
  4085fb:	ff 10                	call   *(%rax)
  4085fd:	bf 70 80 01 00       	mov    $0x18070,%edi
  408602:	4a 8d 44 3d 00       	lea    0x0(%rbp,%r15,1),%rax
  408607:	ff d0                	call   *%rax
  408609:	4e 8b 24 3b          	mov    (%rbx,%r15,1),%r12
  40860d:	be 44 00 00 00       	mov    $0x44,%esi
  408612:	48 b8 c3 09 00 00 00 	movabs $0x9c3,%rax
  408619:	00 00 00 
  40861c:	4d 8d 2c 07          	lea    (%r15,%rax,1),%r13
  408620:	49 8b 3c 24          	mov    (%r12),%rdi
  408624:	48 85 ff             	test   %rdi,%rdi
  408627:	74 23                	je     40864c <raiseHardwareException+0xbc>
  408629:	0f 1f 80 00 00 00 00 	nopl   0x0(%rax)
  408630:	48 8b 07             	mov    (%rdi),%rax
  408633:	ff 10                	call   *(%rax)
  408635:	41 0f b6 75 00       	movzbl 0x0(%r13),%esi
  40863a:	40 84 f6             	test   %sil,%sil
  40863d:	74 0d                	je     40864c <raiseHardwareException+0xbc>
  40863f:	49 8b 3c 24          	mov    (%r12),%rdi
  408643:	49 83 c5 01          	add    $0x1,%r13
  408647:	48 85 ff             	test   %rdi,%rdi
  40864a:	75 e4                	jne    408630 <raiseHardwareException+0xa0>
  40864c:	bf b8 b8 b8 00       	mov    $0xb8b8b8,%edi
  408651:	4a 8d 44 3d 00       	lea    0x0(%rbp,%r15,1),%rax
  408656:	ff d0                	call   *%rax
  408658:	4a 8b 04 3b          	mov    (%rbx,%r15,1),%rax
  40865c:	48 8b 38             	mov    (%rax),%rdi
  40865f:	48 85 ff             	test   %rdi,%rdi
  408662:	74 0a                	je     40866e <raiseHardwareException+0xde>
  408664:	48 8b 07             	mov    (%rdi),%rax
  408667:	be 5d 00 00 00       	mov    $0x5d,%esi
  40866c:	ff 10                	call   *(%rax)
  40866e:	bf 60 be 60 00       	mov    $0x60be60,%edi
  408673:	4a 8d 44 3d 00       	lea    0x0(%rbp,%r15,1),%rax
  408678:	ff d0                	call   *%rax
  40867a:	4e 8b 24 3b          	mov    (%rbx,%r15,1),%r12
  40867e:	49 8b 3c 24          	mov    (%r12),%rdi
  408682:	48 85 ff             	test   %rdi,%rdi
  408685:	74 0e                	je     408695 <raiseHardwareException+0x105>
  408687:	48 8b 07             	mov    (%rdi),%rax
  40868a:	be 28 00 00 00       	mov    $0x28,%esi
  40868f:	ff 10                	call   *(%rax)
  408691:	49 8b 3c 24          	mov    (%r12),%rdi
  408695:	48 b8 d8 ff ff ff ff 	movabs $0xffffffffffffffd8,%rax
  40869c:	ff ff ff 
  40869f:	49 8b 04 07          	mov    (%r15,%rax,1),%rax
  4086a3:	4c 8b 20             	mov    (%rax),%r12
  4086a6:	41 0f b6 34 24       	movzbl (%r12),%esi
  4086ab:	40 84 f6             	test   %sil,%sil
  4086ae:	74 27                	je     4086d7 <raiseHardwareException+0x147>
  4086b0:	45 31 ed             	xor    %r13d,%r13d
  4086b3:	eb 1d                	jmp    4086d2 <raiseHardwareException+0x142>
  4086b5:	0f 1f 00             	nopl   (%rax)
  4086b8:	48 8b 07             	mov    (%rdi),%rax
  4086bb:	49 83 c5 01          	add    $0x1,%r13
  4086bf:	ff 10                	call   *(%rax)
  4086c1:	4a 8b 04 3b          	mov    (%rbx,%r15,1),%rax
  4086c5:	43 0f b6 34 2c       	movzbl (%r12,%r13,1),%esi
  4086ca:	48 8b 38             	mov    (%rax),%rdi
  4086cd:	40 84 f6             	test   %sil,%sil
  4086d0:	74 05                	je     4086d7 <raiseHardwareException+0x147>
  4086d2:	48 85 ff             	test   %rdi,%rdi
  4086d5:	75 e1                	jne    4086b8 <raiseHardwareException+0x128>
  4086d7:	48 b8 6d 09 00 00 00 	movabs $0x96d,%rax
  4086de:	00 00 00 
  4086e1:	be 29 00 00 00       	mov    $0x29,%esi
  4086e6:	4d 8d 24 07          	lea    (%r15,%rax,1),%r12
  4086ea:	eb 1f                	jmp    40870b <raiseHardwareException+0x17b>
  4086ec:	0f 1f 40 00          	nopl   0x0(%rax)
  4086f0:	48 8b 07             	mov    (%rdi),%rax
  4086f3:	49 83 c4 01          	add    $0x1,%r12
  4086f7:	ff 10                	call   *(%rax)
  4086f9:	41 0f b6 74 24 ff    	movzbl -0x1(%r12),%esi
  4086ff:	40 84 f6             	test   %sil,%sil
  408702:	74 1a                	je     40871e <raiseHardwareException+0x18e>
  408704:	4a 8b 04 3b          	mov    (%rbx,%r15,1),%rax
  408708:	48 8b 38             	mov    (%rax),%rdi
  40870b:	48 85 ff             	test   %rdi,%rdi
  40870e:	75 e0                	jne    4086f0 <raiseHardwareException+0x160>
  408710:	41 0f b6 34 24       	movzbl (%r12),%esi
  408715:	49 83 c4 01          	add    $0x1,%r12
  408719:	40 84 f6             	test   %sil,%sil
  40871c:	75 e6                	jne    408704 <raiseHardwareException+0x174>
  40871e:	bf b8 b8 b8 00       	mov    $0xb8b8b8,%edi
  408723:	4c 01 fd             	add    %r15,%rbp
  408726:	49 bc 6f 09 00 00 00 	movabs $0x96f,%r12
  40872d:	00 00 00 
  408730:	ff d5                	call   *%rbp
  408732:	4a 8b 04 3b          	mov    (%rbx,%r15,1),%rax
  408736:	bd 75 00 00 00       	mov    $0x75,%ebp
  40873b:	4d 01 fc             	add    %r15,%r12
  40873e:	48 8b 38             	mov    (%rax),%rdi
  408741:	48 b8 dd 09 00 00 00 	movabs $0x9dd,%rax
  408748:	00 00 00 
  40874b:	4d 8d 34 07          	lea    (%r15,%rax,1),%r14
  40874f:	48 85 ff             	test   %rdi,%rdi
  408752:	74 10                	je     408764 <raiseHardwareException+0x1d4>
  408754:	48 8b 07             	mov    (%rdi),%rax
  408757:	40 0f b6 f5          	movzbl %bpl,%esi
  40875b:	ff 10                	call   *(%rax)
  40875d:	4a 8b 04 3b          	mov    (%rbx,%r15,1),%rax
  408761:	48 8b 38             	mov    (%rax),%rdi
  408764:	41 0f b6 6e 01       	movzbl 0x1(%r14),%ebp
  408769:	40 84 ed             	test   %bpl,%bpl
  40876c:	74 19                	je     408787 <raiseHardwareException+0x1f7>
  40876e:	40 80 fd 40          	cmp    $0x40,%bpl
  408772:	74 34                	je     4087a8 <raiseHardwareException+0x218>
  408774:	49 83 c6 01          	add    $0x1,%r14
  408778:	48 85 ff             	test   %rdi,%rdi
  40877b:	75 d7                	jne    408754 <raiseHardwareException+0x1c4>
  40877d:	41 0f b6 6e 01       	movzbl 0x1(%r14),%ebp
  408782:	40 84 ed             	test   %bpl,%bpl
  408785:	75 e7                	jne    40876e <raiseHardwareException+0x1de>
  408787:	48 85 ff             	test   %rdi,%rdi
  40878a:	74 14                	je     4087a0 <raiseHardwareException+0x210>
  40878c:	48 8b 07             	mov    (%rdi),%rax
  40878f:	be 0a 00 00 00       	mov    $0xa,%esi
  408794:	ff 10                	call   *(%rax)
  408796:	66 2e 0f 1f 84 00 00 	cs nopw 0x0(%rax,%rax,1)
  40879d:	00 00 00 
  4087a0:	f4                   	hlt    
  4087a1:	eb fd                	jmp    4087a0 <raiseHardwareException+0x210>
  4087a3:	0f 1f 44 00 00       	nopl   0x0(%rax,%rax,1)
  4087a8:	41 0f b6 6e 02       	movzbl 0x2(%r14),%ebp
  4087ad:	4d 8d 6e 02          	lea    0x2(%r14),%r13
  4087b1:	4d 89 ee             	mov    %r13,%r14
  4087b4:	40 80 fd 40          	cmp    $0x40,%bpl
  4087b8:	74 95                	je     40874f <raiseHardwareException+0x1bf>
  4087ba:	45 31 f6             	xor    %r14d,%r14d
  4087bd:	be 3f 00 00 00       	mov    $0x3f,%esi
  4087c2:	eb 1e                	jmp    4087e2 <raiseHardwareException+0x252>
  4087c4:	0f 1f 40 00          	nopl   0x0(%rax)
  4087c8:	48 8b 07             	mov    (%rdi),%rax
  4087cb:	49 83 c6 01          	add    $0x1,%r14
  4087cf:	ff 10                	call   *(%rax)
  4087d1:	4a 8b 04 3b          	mov    (%rbx,%r15,1),%rax
  4087d5:	43 0f b6 34 26       	movzbl (%r14,%r12,1),%esi
  4087da:	48 8b 38             	mov    (%rax),%rdi
  4087dd:	40 84 f6             	test   %sil,%sil
  4087e0:	74 05                	je     4087e7 <raiseHardwareException+0x257>
  4087e2:	48 85 ff             	test   %rdi,%rdi
  4087e5:	75 e1                	jne    4087c8 <raiseHardwareException+0x238>
  4087e7:	4d 89 ee             	mov    %r13,%r14
  4087ea:	e9 60 ff ff ff       	jmp    40874f <raiseHardwareException+0x1bf>
  4087ef:	48 bd f0 9c fe ff ff 	movabs $0xfffffffffffe9cf0,%rbp
  4087f6:	ff ff ff 
  4087f9:	bf b8 b8 b8 00       	mov    $0xb8b8b8,%edi
  4087fe:	48 bb 20 ff ff ff ff 	movabs $0xffffffffffffff20,%rbx
  408805:	ff ff ff 
  408808:	4a 8d 44 3d 00       	lea    0x0(%rbp,%r15,1),%rax
  40880d:	ff d0                	call   *%rax
  40880f:	4a 8b 04 3b          	mov    (%rbx,%r15,1),%rax
  408813:	48 8b 38             	mov    (%rax),%rdi
  408816:	48 85 ff             	test   %rdi,%rdi
  408819:	74 0a                	je     408825 <raiseHardwareException+0x295>
  40881b:	48 8b 07             	mov    (%rdi),%rax
  40881e:	be 5b 00 00 00       	mov    $0x5b,%esi
  408823:	ff 10                	call   *(%rax)
  408825:	bf 70 80 01 00       	mov    $0x18070,%edi
  40882a:	4a 8d 44 3d 00       	lea    0x0(%rbp,%r15,1),%rax
  40882f:	ff d0                	call   *%rax
  408831:	4e 8b 24 3b          	mov    (%rbx,%r15,1),%r12
  408835:	be 44 00 00 00       	mov    $0x44,%esi
  40883a:	48 b8 c3 09 00 00 00 	movabs $0x9c3,%rax
  408841:	00 00 00 
  408844:	4d 8d 2c 07          	lea    (%r15,%rax,1),%r13
  408848:	49 8b 3c 24          	mov    (%r12),%rdi
  40884c:	48 85 ff             	test   %rdi,%rdi
  40884f:	74 23                	je     408874 <raiseHardwareException+0x2e4>
  408851:	0f 1f 80 00 00 00 00 	nopl   0x0(%rax)
  408858:	48 8b 07             	mov    (%rdi),%rax
  40885b:	ff 10                	call   *(%rax)
  40885d:	41 0f b6 75 00       	movzbl 0x0(%r13),%esi
  408862:	40 84 f6             	test   %sil,%sil
  408865:	74 0d                	je     408874 <raiseHardwareException+0x2e4>
  408867:	49 8b 3c 24          	mov    (%r12),%rdi
  40886b:	49 83 c5 01          	add    $0x1,%r13
  40886f:	48 85 ff             	test   %rdi,%rdi
  408872:	75 e4                	jne    408858 <raiseHardwareException+0x2c8>
  408874:	bf b8 b8 b8 00       	mov    $0xb8b8b8,%edi
  408879:	4a 8d 44 3d 00       	lea    0x0(%rbp,%r15,1),%rax
  40887e:	ff d0                	call   *%rax
  408880:	4a 8b 04 3b          	mov    (%rbx,%r15,1),%rax
  408884:	48 8b 38             	mov    (%rax),%rdi
  408887:	48 85 ff             	test   %rdi,%rdi
  40888a:	74 0a                	je     408896 <raiseHardwareException+0x306>
  40888c:	48 8b 07             	mov    (%rdi),%rax
  40888f:	be 5d 00 00 00       	mov    $0x5d,%esi
  408894:	ff 10                	call   *(%rax)
  408896:	bf 60 be 60 00       	mov    $0x60be60,%edi
  40889b:	4a 8d 44 3d 00       	lea    0x0(%rbp,%r15,1),%rax
  4088a0:	ff d0                	call   *%rax
  4088a2:	4e 8b 24 3b          	mov    (%rbx,%r15,1),%r12
  4088a6:	49 8b 3c 24          	mov    (%r12),%rdi
  4088aa:	48 85 ff             	test   %rdi,%rdi
  4088ad:	74 0e                	je     4088bd <raiseHardwareException+0x32d>
  4088af:	48 8b 07             	mov    (%rdi),%rax
  4088b2:	be 28 00 00 00       	mov    $0x28,%esi
  4088b7:	ff 10                	call   *(%rax)
  4088b9:	49 8b 3c 24          	mov    (%r12),%rdi
  4088bd:	48 b8 d8 ff ff ff ff 	movabs $0xffffffffffffffd8,%rax
  4088c4:	ff ff ff 
  4088c7:	49 8b 04 07          	mov    (%r15,%rax,1),%rax
  4088cb:	4c 8b 20             	mov    (%rax),%r12
  4088ce:	41 0f b6 34 24       	movzbl (%r12),%esi
  4088d3:	40 84 f6             	test   %sil,%sil
  4088d6:	74 27                	je     4088ff <raiseHardwareException+0x36f>
  4088d8:	45 31 ed             	xor    %r13d,%r13d
  4088db:	0f 1f 44 00 00       	nopl   0x0(%rax,%rax,1)
  4088e0:	48 85 ff             	test   %rdi,%rdi
  4088e3:	74 1a                	je     4088ff <raiseHardwareException+0x36f>
  4088e5:	48 8b 07             	mov    (%rdi),%rax
  4088e8:	49 83 c5 01          	add    $0x1,%r13
  4088ec:	ff 10                	call   *(%rax)
  4088ee:	4a 8b 04 3b          	mov    (%rbx,%r15,1),%rax
  4088f2:	43 0f b6 34 2c       	movzbl (%r12,%r13,1),%esi
  4088f7:	48 8b 38             	mov    (%rax),%rdi
  4088fa:	40 84 f6             	test   %sil,%sil
  4088fd:	75 e1                	jne    4088e0 <raiseHardwareException+0x350>
  4088ff:	48 b8 6d 09 00 00 00 	movabs $0x96d,%rax
  408906:	00 00 00 
  408909:	be 29 00 00 00       	mov    $0x29,%esi
  40890e:	4d 8d 24 07          	lea    (%r15,%rax,1),%r12
  408912:	eb 1f                	jmp    408933 <raiseHardwareException+0x3a3>
  408914:	0f 1f 40 00          	nopl   0x0(%rax)
  408918:	48 8b 07             	mov    (%rdi),%rax
  40891b:	49 83 c4 01          	add    $0x1,%r12
  40891f:	ff 10                	call   *(%rax)
  408921:	41 0f b6 74 24 ff    	movzbl -0x1(%r12),%esi
  408927:	40 84 f6             	test   %sil,%sil
  40892a:	74 1a                	je     408946 <raiseHardwareException+0x3b6>
  40892c:	4a 8b 04 3b          	mov    (%rbx,%r15,1),%rax
  408930:	48 8b 38             	mov    (%rax),%rdi
  408933:	48 85 ff             	test   %rdi,%rdi
  408936:	75 e0                	jne    408918 <raiseHardwareException+0x388>
  408938:	41 0f b6 34 24       	movzbl (%r12),%esi
  40893d:	49 83 c4 01          	add    $0x1,%r12
  408941:	40 84 f6             	test   %sil,%sil
  408944:	75 e6                	jne    40892c <raiseHardwareException+0x39c>
  408946:	bf b8 b8 b8 00       	mov    $0xb8b8b8,%edi
  40894b:	4c 01 fd             	add    %r15,%rbp
  40894e:	49 bc 6f 09 00 00 00 	movabs $0x96f,%r12
  408955:	00 00 00 
  408958:	ff d5                	call   *%rbp
  40895a:	4a 8b 04 3b          	mov    (%rbx,%r15,1),%rax
  40895e:	bd 75 00 00 00       	mov    $0x75,%ebp
  408963:	4d 01 fc             	add    %r15,%r12
  408966:	48 8b 38             	mov    (%rax),%rdi
  408969:	48 b8 c8 09 00 00 00 	movabs $0x9c8,%rax
  408970:	00 00 00 
  408973:	4d 8d 34 07          	lea    (%r15,%rax,1),%r14
  408977:	48 85 ff             	test   %rdi,%rdi
  40897a:	74 10                	je     40898c <raiseHardwareException+0x3fc>
  40897c:	48 8b 07             	mov    (%rdi),%rax
  40897f:	40 0f b6 f5          	movzbl %bpl,%esi
  408983:	ff 10                	call   *(%rax)
  408985:	4a 8b 04 3b          	mov    (%rbx,%r15,1),%rax
  408989:	48 8b 38             	mov    (%rax),%rdi
  40898c:	41 0f b6 6e 01       	movzbl 0x1(%r14),%ebp
  408991:	40 84 ed             	test   %bpl,%bpl
  408994:	74 19                	je     4089af <raiseHardwareException+0x41f>
  408996:	40 80 fd 40          	cmp    $0x40,%bpl
  40899a:	74 2c                	je     4089c8 <raiseHardwareException+0x438>
  40899c:	49 83 c6 01          	add    $0x1,%r14
  4089a0:	48 85 ff             	test   %rdi,%rdi
  4089a3:	75 d7                	jne    40897c <raiseHardwareException+0x3ec>
  4089a5:	41 0f b6 6e 01       	movzbl 0x1(%r14),%ebp
  4089aa:	40 84 ed             	test   %bpl,%bpl
  4089ad:	75 e7                	jne    408996 <raiseHardwareException+0x406>
  4089af:	48 85 ff             	test   %rdi,%rdi
  4089b2:	74 0c                	je     4089c0 <raiseHardwareException+0x430>
  4089b4:	48 8b 07             	mov    (%rdi),%rax
  4089b7:	be 0a 00 00 00       	mov    $0xa,%esi
  4089bc:	ff 10                	call   *(%rax)
  4089be:	66 90                	xchg   %ax,%ax
  4089c0:	f4                   	hlt    
  4089c1:	eb fd                	jmp    4089c0 <raiseHardwareException+0x430>
  4089c3:	0f 1f 44 00 00       	nopl   0x0(%rax,%rax,1)
  4089c8:	41 0f b6 6e 02       	movzbl 0x2(%r14),%ebp
  4089cd:	4d 8d 6e 02          	lea    0x2(%r14),%r13
  4089d1:	4d 89 ee             	mov    %r13,%r14
  4089d4:	40 80 fd 40          	cmp    $0x40,%bpl
  4089d8:	74 9d                	je     408977 <raiseHardwareException+0x3e7>
  4089da:	45 31 f6             	xor    %r14d,%r14d
  4089dd:	be 3f 00 00 00       	mov    $0x3f,%esi
  4089e2:	eb 1e                	jmp    408a02 <raiseHardwareException+0x472>
  4089e4:	0f 1f 40 00          	nopl   0x0(%rax)
  4089e8:	48 8b 07             	mov    (%rdi),%rax
  4089eb:	49 83 c6 01          	add    $0x1,%r14
  4089ef:	ff 10                	call   *(%rax)
  4089f1:	4a 8b 04 3b          	mov    (%rbx,%r15,1),%rax
  4089f5:	43 0f b6 34 26       	movzbl (%r14,%r12,1),%esi
  4089fa:	48 8b 38             	mov    (%rax),%rdi
  4089fd:	40 84 f6             	test   %sil,%sil
  408a00:	74 05                	je     408a07 <raiseHardwareException+0x477>
  408a02:	48 85 ff             	test   %rdi,%rdi
  408a05:	75 e1                	jne    4089e8 <raiseHardwareException+0x458>
  408a07:	4d 89 ee             	mov    %r13,%r14
  408a0a:	e9 68 ff ff ff       	jmp    408977 <raiseHardwareException+0x3e7>
  408a0f:	48 bb 20 ff ff ff ff 	movabs $0xffffffffffffff20,%rbx
  408a16:	ff ff ff 
  408a19:	ff d0                	call   *%rax
  408a1b:	4a 8b 04 3b          	mov    (%rbx,%r15,1),%rax
  408a1f:	48 8b 38             	mov    (%rax),%rdi
  408a22:	48 85 ff             	test   %rdi,%rdi
  408a25:	74 0a                	je     408a31 <raiseHardwareException+0x4a1>
  408a27:	48 8b 07             	mov    (%rdi),%rax
  408a2a:	be 5b 00 00 00       	mov    $0x5b,%esi
  408a2f:	ff 10                	call   *(%rax)
  408a31:	bf 70 80 01 00       	mov    $0x18070,%edi
  408a36:	4a 8d 44 3d 00       	lea    0x0(%rbp,%r15,1),%rax
  408a3b:	ff d0                	call   *%rax
  408a3d:	4e 8b 24 3b          	mov    (%rbx,%r15,1),%r12
  408a41:	be 44 00 00 00       	mov    $0x44,%esi
  408a46:	48 b8 c3 09 00 00 00 	movabs $0x9c3,%rax
  408a4d:	00 00 00 
  408a50:	4d 8d 2c 07          	lea    (%r15,%rax,1),%r13
  408a54:	49 8b 3c 24          	mov    (%r12),%rdi
  408a58:	48 85 ff             	test   %rdi,%rdi
  408a5b:	74 1f                	je     408a7c <raiseHardwareException+0x4ec>
  408a5d:	0f 1f 00             	nopl   (%rax)
  408a60:	48 8b 07             	mov    (%rdi),%rax
  408a63:	ff 10                	call   *(%rax)
  408a65:	41 0f b6 75 00       	movzbl 0x0(%r13),%esi
  408a6a:	40 84 f6             	test   %sil,%sil
  408a6d:	74 0d                	je     408a7c <raiseHardwareException+0x4ec>
  408a6f:	49 8b 3c 24          	mov    (%r12),%rdi
  408a73:	49 83 c5 01          	add    $0x1,%r13
  408a77:	48 85 ff             	test   %rdi,%rdi
  408a7a:	75 e4                	jne    408a60 <raiseHardwareException+0x4d0>
  408a7c:	bf b8 b8 b8 00       	mov    $0xb8b8b8,%edi
  408a81:	4a 8d 44 3d 00       	lea    0x0(%rbp,%r15,1),%rax
  408a86:	ff d0                	call   *%rax
  408a88:	4a 8b 04 3b          	mov    (%rbx,%r15,1),%rax
  408a8c:	48 8b 38             	mov    (%rax),%rdi
  408a8f:	48 85 ff             	test   %rdi,%rdi
  408a92:	74 0a                	je     408a9e <raiseHardwareException+0x50e>
  408a94:	48 8b 07             	mov    (%rdi),%rax
  408a97:	be 5d 00 00 00       	mov    $0x5d,%esi
  408a9c:	ff 10                	call   *(%rax)
  408a9e:	bf 60 be 60 00       	mov    $0x60be60,%edi
  408aa3:	4a 8d 44 3d 00       	lea    0x0(%rbp,%r15,1),%rax
  408aa8:	ff d0                	call   *%rax
  408aaa:	4e 8b 24 3b          	mov    (%rbx,%r15,1),%r12
  408aae:	49 8b 3c 24          	mov    (%r12),%rdi
  408ab2:	48 85 ff             	test   %rdi,%rdi
  408ab5:	74 0e                	je     408ac5 <raiseHardwareException+0x535>
  408ab7:	48 8b 07             	mov    (%rdi),%rax
  408aba:	be 28 00 00 00       	mov    $0x28,%esi
  408abf:	ff 10                	call   *(%rax)
  408ac1:	49 8b 3c 24          	mov    (%r12),%rdi
  408ac5:	48 b8 d8 ff ff ff ff 	movabs $0xffffffffffffffd8,%rax
  408acc:	ff ff ff 
  408acf:	49 8b 04 07          	mov    (%r15,%rax,1),%rax
  408ad3:	4c 8b 20             	mov    (%rax),%r12
  408ad6:	41 0f b6 34 24       	movzbl (%r12),%esi
  408adb:	40 84 f6             	test   %sil,%sil
  408ade:	74 27                	je     408b07 <raiseHardwareException+0x577>
  408ae0:	45 31 ed             	xor    %r13d,%r13d
  408ae3:	0f 1f 44 00 00       	nopl   0x0(%rax,%rax,1)
  408ae8:	48 85 ff             	test   %rdi,%rdi
  408aeb:	74 1a                	je     408b07 <raiseHardwareException+0x577>
  408aed:	48 8b 07             	mov    (%rdi),%rax
  408af0:	49 83 c5 01          	add    $0x1,%r13
  408af4:	ff 10                	call   *(%rax)
  408af6:	4a 8b 04 3b          	mov    (%rbx,%r15,1),%rax
  408afa:	43 0f b6 34 2c       	movzbl (%r12,%r13,1),%esi
  408aff:	48 8b 38             	mov    (%rax),%rdi
  408b02:	40 84 f6             	test   %sil,%sil
  408b05:	75 e1                	jne    408ae8 <raiseHardwareException+0x558>
  408b07:	48 b8 6d 09 00 00 00 	movabs $0x96d,%rax
  408b0e:	00 00 00 
  408b11:	be 29 00 00 00       	mov    $0x29,%esi
  408b16:	4d 8d 24 07          	lea    (%r15,%rax,1),%r12
  408b1a:	eb 1f                	jmp    408b3b <raiseHardwareException+0x5ab>
  408b1c:	0f 1f 40 00          	nopl   0x0(%rax)
  408b20:	48 8b 07             	mov    (%rdi),%rax
  408b23:	49 83 c4 01          	add    $0x1,%r12
  408b27:	ff 10                	call   *(%rax)
  408b29:	41 0f b6 74 24 ff    	movzbl -0x1(%r12),%esi
  408b2f:	40 84 f6             	test   %sil,%sil
  408b32:	74 1a                	je     408b4e <raiseHardwareException+0x5be>
  408b34:	4a 8b 04 3b          	mov    (%rbx,%r15,1),%rax
  408b38:	48 8b 38             	mov    (%rax),%rdi
  408b3b:	48 85 ff             	test   %rdi,%rdi
  408b3e:	75 e0                	jne    408b20 <raiseHardwareException+0x590>
  408b40:	41 0f b6 34 24       	movzbl (%r12),%esi
  408b45:	49 83 c4 01          	add    $0x1,%r12
  408b49:	40 84 f6             	test   %sil,%sil
  408b4c:	75 e6                	jne    408b34 <raiseHardwareException+0x5a4>
  408b4e:	bf b8 b8 b8 00       	mov    $0xb8b8b8,%edi
  408b53:	4c 01 fd             	add    %r15,%rbp
  408b56:	49 bc 6f 09 00 00 00 	movabs $0x96f,%r12
  408b5d:	00 00 00 
  408b60:	ff d5                	call   *%rbp
  408b62:	4a 8b 04 3b          	mov    (%rbx,%r15,1),%rax
  408b66:	bd 72 00 00 00       	mov    $0x72,%ebp
  408b6b:	48 8b 38             	mov    (%rax),%rdi
  408b6e:	48 b8 df 09 00 00 00 	movabs $0x9df,%rax
  408b75:	00 00 00 
  408b78:	4d 8d 34 07          	lea    (%r15,%rax,1),%r14
  408b7c:	48 85 ff             	test   %rdi,%rdi
  408b7f:	74 10                	je     408b91 <raiseHardwareException+0x601>
  408b81:	48 8b 07             	mov    (%rdi),%rax
  408b84:	40 0f b6 f5          	movzbl %bpl,%esi
  408b88:	ff 10                	call   *(%rax)
  408b8a:	4a 8b 04 3b          	mov    (%rbx,%r15,1),%rax
  408b8e:	48 8b 38             	mov    (%rax),%rdi
  408b91:	41 0f b6 6e 01       	movzbl 0x1(%r14),%ebp
  408b96:	40 84 ed             	test   %bpl,%bpl
  408b99:	74 19                	je     408bb4 <raiseHardwareException+0x624>
  408b9b:	40 80 fd 40          	cmp    $0x40,%bpl
  408b9f:	74 33                	je     408bd4 <raiseHardwareException+0x644>
  408ba1:	49 83 c6 01          	add    $0x1,%r14
  408ba5:	48 85 ff             	test   %rdi,%rdi
  408ba8:	75 d7                	jne    408b81 <raiseHardwareException+0x5f1>
  408baa:	41 0f b6 6e 01       	movzbl 0x1(%r14),%ebp
  408baf:	40 84 ed             	test   %bpl,%bpl
  408bb2:	75 e7                	jne    408b9b <raiseHardwareException+0x60b>
  408bb4:	48 85 ff             	test   %rdi,%rdi
  408bb7:	74 62                	je     408c1b <raiseHardwareException+0x68b>
  408bb9:	48 8b 07             	mov    (%rdi),%rax
  408bbc:	be 0a 00 00 00       	mov    $0xa,%esi
  408bc1:	48 8b 00             	mov    (%rax),%rax
  408bc4:	48 83 c4 08          	add    $0x8,%rsp
  408bc8:	5b                   	pop    %rbx
  408bc9:	5d                   	pop    %rbp
  408bca:	41 5c                	pop    %r12
  408bcc:	41 5d                	pop    %r13
  408bce:	41 5e                	pop    %r14
  408bd0:	41 5f                	pop    %r15
  408bd2:	ff e0                	jmp    *%rax
  408bd4:	41 0f b6 6e 02       	movzbl 0x2(%r14),%ebp
  408bd9:	4d 8d 6e 02          	lea    0x2(%r14),%r13
  408bdd:	4d 89 ee             	mov    %r13,%r14
  408be0:	40 80 fd 40          	cmp    $0x40,%bpl
  408be4:	74 96                	je     408b7c <raiseHardwareException+0x5ec>
  408be6:	45 31 f6             	xor    %r14d,%r14d
  408be9:	be 3f 00 00 00       	mov    $0x3f,%esi
  408bee:	eb 1e                	jmp    408c0e <raiseHardwareException+0x67e>
  408bf0:	48 8b 07             	mov    (%rdi),%rax
  408bf3:	49 83 c6 01          	add    $0x1,%r14
  408bf7:	ff 10                	call   *(%rax)
  408bf9:	4a 8b 04 3b          	mov    (%rbx,%r15,1),%rax
  408bfd:	48 8b 38             	mov    (%rax),%rdi
  408c00:	4b 8d 04 27          	lea    (%r15,%r12,1),%rax
  408c04:	41 0f b6 34 06       	movzbl (%r14,%rax,1),%esi
  408c09:	40 84 f6             	test   %sil,%sil
  408c0c:	74 05                	je     408c13 <raiseHardwareException+0x683>
  408c0e:	48 85 ff             	test   %rdi,%rdi
  408c11:	75 dd                	jne    408bf0 <raiseHardwareException+0x660>
  408c13:	4d 89 ee             	mov    %r13,%r14
  408c16:	e9 61 ff ff ff       	jmp    408b7c <raiseHardwareException+0x5ec>
  408c1b:	48 83 c4 08          	add    $0x8,%rsp
  408c1f:	5b                   	pop    %rbx
  408c20:	5d                   	pop    %rbp
  408c21:	41 5c                	pop    %r12
  408c23:	41 5d                	pop    %r13
  408c25:	41 5e                	pop    %r14
  408c27:	41 5f                	pop    %r15
  408c29:	c3                   	ret    
  408c2a:	66 0f 1f 44 00 00    	nopw   0x0(%rax,%rax,1)

0000000000408c30 <handleInterrupt>:
  408c30:	f3 0f 1e fa          	endbr64 
  408c34:	49 bb 6c 42 01 00 00 	movabs $0x1426c,%r11
  408c3b:	00 00 00 
  408c3e:	41 57                	push   %r15
  408c40:	4c 8d 3d ed ff ff ff 	lea    -0x13(%rip),%r15        # 408c34 <handleInterrupt+0x4>
  408c47:	48 b8 90 74 fe ff ff 	movabs $0xfffffffffffe7490,%rax
  408c4e:	ff ff ff 
  408c51:	41 54                	push   %r12
  408c53:	4d 01 df             	add    %r11,%r15
  408c56:	49 89 fc             	mov    %rdi,%r12
  408c59:	4c 01 f8             	add    %r15,%rax
  408c5c:	48 83 ec 08          	sub    $0x8,%rsp
  408c60:	ff d0                	call   *%rax
  408c62:	49 83 7c 24 78 1f    	cmpq   $0x1f,0x78(%r12)
  408c68:	0f 86 8d 00 00 00    	jbe    408cfb <handleInterrupt+0xcb>
  408c6e:	b8 20 00 00 00       	mov    $0x20,%eax
  408c73:	ba 20 00 00 00       	mov    $0x20,%edx
  408c78:	ee                   	out    %al,(%dx)
  408c79:	ba 60 00 00 00       	mov    $0x60,%edx
  408c7e:	ec                   	in     (%dx),%al
  408c7f:	89 c2                	mov    %eax,%edx
  408c81:	83 e2 ef             	and    $0xffffffef,%edx
  408c84:	80 fa 2a             	cmp    $0x2a,%dl
  408c87:	74 72                	je     408cfb <handleInterrupt+0xcb>
  408c89:	89 c2                	mov    %eax,%edx
  408c8b:	83 e2 7f             	and    $0x7f,%edx
  408c8e:	80 fa 36             	cmp    $0x36,%dl
  408c91:	74 68                	je     408cfb <handleInterrupt+0xcb>
  408c93:	3c aa                	cmp    $0xaa,%al
  408c95:	74 64                	je     408cfb <handleInterrupt+0xcb>
  408c97:	3c 80                	cmp    $0x80,%al
  408c99:	76 19                	jbe    408cb4 <handleInterrupt+0x84>
  408c9b:	8d 50 35             	lea    0x35(%rax),%edx
  408c9e:	81 e2 fd 00 00 00    	and    $0xfd,%edx
  408ca4:	74 55                	je     408cfb <handleInterrupt+0xcb>
  408ca6:	8d 50 38             	lea    0x38(%rax),%edx
  408ca9:	81 e2 f7 00 00 00    	and    $0xf7,%edx
  408caf:	74 4a                	je     408cfb <handleInterrupt+0xcb>
  408cb1:	83 c0 80             	add    $0xffffff80,%eax
  408cb4:	3c 53                	cmp    $0x53,%al
  408cb6:	77 58                	ja     408d10 <handleInterrupt+0xe0>
  408cb8:	48 ba e0 dd fe ff ff 	movabs $0xfffffffffffedde0,%rdx
  408cbf:	ff ff ff 
  408cc2:	0f b6 c0             	movzbl %al,%eax
  408cc5:	4c 01 fa             	add    %r15,%rdx
  408cc8:	80 3c 02 00          	cmpb   $0x0,(%rdx,%rax,1)
  408ccc:	74 42                	je     408d10 <handleInterrupt+0xe0>
  408cce:	48 ba 20 ff ff ff ff 	movabs $0xffffffffffffff20,%rdx
  408cd5:	ff ff ff 
  408cd8:	49 8b 14 17          	mov    (%r15,%rdx,1),%rdx
  408cdc:	48 8b 3a             	mov    (%rdx),%rdi
  408cdf:	48 85 ff             	test   %rdi,%rdi
  408ce2:	74 17                	je     408cfb <handleInterrupt+0xcb>
  408ce4:	48 ba 80 dd fe ff ff 	movabs $0xfffffffffffedd80,%rdx
  408ceb:	ff ff ff 
  408cee:	49 01 d7             	add    %rdx,%r15
  408cf1:	41 0f b6 34 07       	movzbl (%r15,%rax,1),%esi
  408cf6:	48 8b 07             	mov    (%rdi),%rax
  408cf9:	ff 10                	call   *(%rax)
  408cfb:	48 83 c4 08          	add    $0x8,%rsp
  408cff:	4c 89 e0             	mov    %r12,%rax
  408d02:	41 5c                	pop    %r12
  408d04:	41 5f                	pop    %r15
  408d06:	c3                   	ret    
  408d07:	66 0f 1f 84 00 00 00 	nopw   0x0(%rax,%rax,1)
  408d0e:	00 00 
  408d10:	45 31 e4             	xor    %r12d,%r12d
  408d13:	eb e6                	jmp    408cfb <handleInterrupt+0xcb>
  408d15:	66 2e 0f 1f 84 00 00 	cs nopw 0x0(%rax,%rax,1)
  408d1c:	00 00 00 
  408d1f:	90                   	nop

0000000000408d20 <_ZZ11kernelEntryENUlhE_4_FUNEh>:
  408d20:	f3 0f 1e fa          	endbr64 
  408d24:	48 b8 90 c5 fe ff ff 	movabs $0xfffffffffffec590,%rax
  408d2b:	ff ff ff 
  408d2e:	41 57                	push   %r15
  408d30:	4c 8d 3d ed ff ff ff 	lea    -0x13(%rip),%r15        # 408d24 <_ZZ11kernelEntryENUlhE_4_FUNEh+0x4>
  408d37:	40 0f b6 f7          	movzbl %dil,%esi
  408d3b:	49 bb 7c 41 01 00 00 	movabs $0x1417c,%r11
  408d42:	00 00 00 
  408d45:	53                   	push   %rbx
  408d46:	89 fb                	mov    %edi,%ebx
  408d48:	31 ff                	xor    %edi,%edi
  408d4a:	4d 01 df             	add    %r11,%r15
  408d4d:	4c 01 f8             	add    %r15,%rax
  408d50:	48 83 ec 08          	sub    $0x8,%rsp
  408d54:	ff d0                	call   *%rax
  408d56:	48 83 c4 08          	add    $0x8,%rsp
  408d5a:	0f be fb             	movsbl %bl,%edi
  408d5d:	48 b8 40 9c fe ff ff 	movabs $0xfffffffffffe9c40,%rax
  408d64:	ff ff ff 
  408d67:	4c 01 f8             	add    %r15,%rax
  408d6a:	5b                   	pop    %rbx
  408d6b:	41 5f                	pop    %r15
  408d6d:	ff e0                	jmp    *%rax
  408d6f:	90                   	nop

0000000000408d70 <_ZN4EXOS5Utils6LoggerL3logEPKc>:
  408d70:	f3 0f 1e fa          	endbr64 
  408d74:	49 bb 2c 41 01 00 00 	movabs $0x1412c,%r11
  408d7b:	00 00 00 
  408d7e:	41 57                	push   %r15
  408d80:	41 56                	push   %r14
  408d82:	41 55                	push   %r13
  408d84:	41 54                	push   %r12
  408d86:	4c 8d 25 e7 ff ff ff 	lea    -0x19(%rip),%r12        # 408d74 <_ZN4EXOS5Utils6LoggerL3logEPKc+0x4>
  408d8d:	55                   	push   %rbp
  408d8e:	4d 01 dc             	add    %r11,%r12
  408d91:	53                   	push   %rbx
  408d92:	48 89 fb             	mov    %rdi,%rbx
  408d95:	48 83 ec 18          	sub    $0x18,%rsp
  408d99:	0f b6 3f             	movzbl (%rdi),%edi
  408d9c:	40 84 ff             	test   %dil,%dil
  408d9f:	0f 84 f0 00 00 00    	je     408e95 <_ZN4EXOS5Utils6LoggerL3logEPKc+0x125>
  408da5:	49 be 20 ff ff ff ff 	movabs $0xffffffffffffff20,%r14
  408dac:	ff ff ff 
  408daf:	4b 8b 04 26          	mov    (%r14,%r12,1),%rax
  408db3:	48 89 04 24          	mov    %rax,(%rsp)
  408db7:	48 b8 00 d7 fe ff ff 	movabs $0xfffffffffffed700,%rax
  408dbe:	ff ff ff 
  408dc1:	49 8d 2c 04          	lea    (%r12,%rax,1),%rbp
  408dc5:	eb 36                	jmp    408dfd <_ZN4EXOS5Utils6LoggerL3logEPKc+0x8d>
  408dc7:	66 0f 1f 84 00 00 00 	nopw   0x0(%rax,%rax,1)
  408dce:	00 00 
  408dd0:	49 89 df             	mov    %rbx,%r15
  408dd3:	49 8d 5f 01          	lea    0x1(%r15),%rbx
  408dd7:	4d 85 c0             	test   %r8,%r8
  408dda:	74 13                	je     408def <_ZN4EXOS5Utils6LoggerL3logEPKc+0x7f>
  408ddc:	49 8b 10             	mov    (%r8),%rdx
  408ddf:	48 8b 12             	mov    (%rdx),%rdx
  408de2:	48 39 ea             	cmp    %rbp,%rdx
  408de5:	0f 85 95 00 00 00    	jne    408e80 <_ZN4EXOS5Utils6LoggerL3logEPKc+0x110>
  408deb:	41 ff 50 08          	call   *0x8(%r8)
  408def:	41 0f b6 7f 01       	movzbl 0x1(%r15),%edi
  408df4:	40 84 ff             	test   %dil,%dil
  408df7:	0f 84 98 00 00 00    	je     408e95 <_ZN4EXOS5Utils6LoggerL3logEPKc+0x125>
  408dfd:	48 8b 04 24          	mov    (%rsp),%rax
  408e01:	4c 8d 7b 01          	lea    0x1(%rbx),%r15
  408e05:	4c 8b 00             	mov    (%rax),%r8
  408e08:	40 80 ff 40          	cmp    $0x40,%dil
  408e0c:	75 c2                	jne    408dd0 <_ZN4EXOS5Utils6LoggerL3logEPKc+0x60>
  408e0e:	0f b6 7b 01          	movzbl 0x1(%rbx),%edi
  408e12:	40 80 ff 40          	cmp    $0x40,%dil
  408e16:	74 bb                	je     408dd3 <_ZN4EXOS5Utils6LoggerL3logEPKc+0x63>
  408e18:	48 b8 6f 09 00 00 00 	movabs $0x96f,%rax
  408e1f:	00 00 00 
  408e22:	45 31 ed             	xor    %r13d,%r13d
  408e25:	bf 3f 00 00 00       	mov    $0x3f,%edi
  408e2a:	4c 01 e0             	add    %r12,%rax
  408e2d:	48 89 44 24 08       	mov    %rax,0x8(%rsp)
  408e32:	66 0f 1f 44 00 00    	nopw   0x0(%rax,%rax,1)
  408e38:	4d 85 c0             	test   %r8,%r8
  408e3b:	74 2a                	je     408e67 <_ZN4EXOS5Utils6LoggerL3logEPKc+0xf7>
  408e3d:	49 8b 08             	mov    (%r8),%rcx
  408e40:	48 8b 09             	mov    (%rcx),%rcx
  408e43:	48 39 e9             	cmp    %rbp,%rcx
  408e46:	75 28                	jne    408e70 <_ZN4EXOS5Utils6LoggerL3logEPKc+0x100>
  408e48:	41 ff 50 08          	call   *0x8(%r8)
  408e4c:	4b 8b 0c 26          	mov    (%r14,%r12,1),%rcx
  408e50:	4c 8b 01             	mov    (%rcx),%r8
  408e53:	48 8b 44 24 08       	mov    0x8(%rsp),%rax
  408e58:	49 83 c5 01          	add    $0x1,%r13
  408e5c:	41 0f b6 7c 05 00    	movzbl 0x0(%r13,%rax,1),%edi
  408e62:	40 84 ff             	test   %dil,%dil
  408e65:	75 d1                	jne    408e38 <_ZN4EXOS5Utils6LoggerL3logEPKc+0xc8>
  408e67:	0f b6 7b 01          	movzbl 0x1(%rbx),%edi
  408e6b:	e9 63 ff ff ff       	jmp    408dd3 <_ZN4EXOS5Utils6LoggerL3logEPKc+0x63>
  408e70:	89 fe                	mov    %edi,%esi
  408e72:	4c 89 c7             	mov    %r8,%rdi
  408e75:	ff d1                	call   *%rcx
  408e77:	4b 8b 0c 26          	mov    (%r14,%r12,1),%rcx
  408e7b:	4c 8b 01             	mov    (%rcx),%r8
  408e7e:	eb d3                	jmp    408e53 <_ZN4EXOS5Utils6LoggerL3logEPKc+0xe3>
  408e80:	89 fe                	mov    %edi,%esi
  408e82:	4c 89 c7             	mov    %r8,%rdi
  408e85:	ff d2                	call   *%rdx
  408e87:	41 0f b6 7f 01       	movzbl 0x1(%r15),%edi
  408e8c:	40 84 ff             	test   %dil,%dil
  408e8f:	0f 85 68 ff ff ff    	jne    408dfd <_ZN4EXOS5Utils6LoggerL3logEPKc+0x8d>
  408e95:	48 83 c4 18          	add    $0x18,%rsp
  408e99:	5b                   	pop    %rbx
  408e9a:	5d                   	pop    %rbp
  408e9b:	41 5c                	pop    %r12
  408e9d:	41 5d                	pop    %r13
  408e9f:	41 5e                	pop    %r14
  408ea1:	41 5f                	pop    %r15
  408ea3:	c3                   	ret    
  408ea4:	66 66 2e 0f 1f 84 00 	data16 cs nopw 0x0(%rax,%rax,1)
  408eab:	00 00 00 00 
  408eaf:	90                   	nop

0000000000408eb0 <_Z25missingConfigurationTablePKc>:
  408eb0:	f3 0f 1e fa          	endbr64 
  408eb4:	49 bb ec 3f 01 00 00 	movabs $0x13fec,%r11
  408ebb:	00 00 00 
  408ebe:	41 57                	push   %r15
  408ec0:	4c 8d 3d ed ff ff ff 	lea    -0x13(%rip),%r15        # 408eb4 <_Z25missingConfigurationTablePKc+0x4>
  408ec7:	48 b8 f0 9c fe ff ff 	movabs $0xfffffffffffe9cf0,%rax
  408ece:	ff ff ff 
  408ed1:	41 56                	push   %r14
  408ed3:	4d 01 df             	add    %r11,%r15
  408ed6:	41 55                	push   %r13
  408ed8:	41 54                	push   %r12
  408eda:	55                   	push   %rbp
  408edb:	53                   	push   %rbx
  408edc:	48 bb 20 ff ff ff ff 	movabs $0xffffffffffffff20,%rbx
  408ee3:	ff ff ff 
  408ee6:	48 83 ec 18          	sub    $0x18,%rsp
  408eea:	48 89 7c 24 08       	mov    %rdi,0x8(%rsp)
  408eef:	bf b8 b8 b8 00       	mov    $0xb8b8b8,%edi
  408ef4:	48 89 04 24          	mov    %rax,(%rsp)
  408ef8:	4c 01 f8             	add    %r15,%rax
  408efb:	ff d0                	call   *%rax
  408efd:	4a 8b 04 3b          	mov    (%rbx,%r15,1),%rax
  408f01:	48 8b 38             	mov    (%rax),%rdi
  408f04:	48 85 ff             	test   %rdi,%rdi
  408f07:	74 0a                	je     408f13 <_Z25missingConfigurationTablePKc+0x63>
  408f09:	48 8b 07             	mov    (%rdi),%rax
  408f0c:	be 5b 00 00 00       	mov    $0x5b,%esi
  408f11:	ff 10                	call   *(%rax)
  408f13:	48 8b 04 24          	mov    (%rsp),%rax
  408f17:	bf 00 00 aa 00       	mov    $0xaa0000,%edi
  408f1c:	4c 01 f8             	add    %r15,%rax
  408f1f:	ff d0                	call   *%rax
  408f21:	4a 8b 2c 3b          	mov    (%rbx,%r15,1),%rbp
  408f25:	be 46 00 00 00       	mov    $0x46,%esi
  408f2a:	48 b8 0d 0a 00 00 00 	movabs $0xa0d,%rax
  408f31:	00 00 00 
  408f34:	4d 8d 24 07          	lea    (%r15,%rax,1),%r12
  408f38:	48 8b 7d 00          	mov    0x0(%rbp),%rdi
  408f3c:	48 85 ff             	test   %rdi,%rdi
  408f3f:	74 23                	je     408f64 <_Z25missingConfigurationTablePKc+0xb4>
  408f41:	0f 1f 80 00 00 00 00 	nopl   0x0(%rax)
  408f48:	48 8b 07             	mov    (%rdi),%rax
  408f4b:	ff 10                	call   *(%rax)
  408f4d:	41 0f b6 34 24       	movzbl (%r12),%esi
  408f52:	40 84 f6             	test   %sil,%sil
  408f55:	74 0d                	je     408f64 <_Z25missingConfigurationTablePKc+0xb4>
  408f57:	48 8b 7d 00          	mov    0x0(%rbp),%rdi
  408f5b:	49 83 c4 01          	add    $0x1,%r12
  408f5f:	48 85 ff             	test   %rdi,%rdi
  408f62:	75 e4                	jne    408f48 <_Z25missingConfigurationTablePKc+0x98>
  408f64:	48 8b 04 24          	mov    (%rsp),%rax
  408f68:	bf b8 b8 b8 00       	mov    $0xb8b8b8,%edi
  408f6d:	4c 01 f8             	add    %r15,%rax
  408f70:	ff d0                	call   *%rax
  408f72:	4a 8b 04 3b          	mov    (%rbx,%r15,1),%rax
  408f76:	48 8b 38             	mov    (%rax),%rdi
  408f79:	48 85 ff             	test   %rdi,%rdi
  408f7c:	74 0a                	je     408f88 <_Z25missingConfigurationTablePKc+0xd8>
  408f7e:	48 8b 07             	mov    (%rdi),%rax
  408f81:	be 5d 00 00 00       	mov    $0x5d,%esi
  408f86:	ff 10                	call   *(%rax)
  408f88:	48 8b 04 24          	mov    (%rsp),%rax
  408f8c:	bf 60 be 60 00       	mov    $0x60be60,%edi
  408f91:	4c 01 f8             	add    %r15,%rax
  408f94:	ff d0                	call   *%rax
  408f96:	4a 8b 04 3b          	mov    (%rbx,%r15,1),%rax
  408f9a:	48 8b 38             	mov    (%rax),%rdi
  408f9d:	48 85 ff             	test   %rdi,%rdi
  408fa0:	74 0a                	je     408fac <_Z25missingConfigurationTablePKc+0xfc>
  408fa2:	48 8b 07             	mov    (%rdi),%rax
  408fa5:	be 28 00 00 00       	mov    $0x28,%esi
  408faa:	ff 10                	call   *(%rax)
  408fac:	48 b8 d8 ff ff ff ff 	movabs $0xffffffffffffffd8,%rax
  408fb3:	ff ff ff 
  408fb6:	48 bd 00 d7 fe ff ff 	movabs $0xfffffffffffed700,%rbp
  408fbd:	ff ff ff 
  408fc0:	49 8b 04 07          	mov    (%r15,%rax,1),%rax
  408fc4:	4c 8b 20             	mov    (%rax),%r12
  408fc7:	4a 8b 04 3b          	mov    (%rbx,%r15,1),%rax
  408fcb:	41 0f b6 3c 24       	movzbl (%r12),%edi
  408fd0:	4c 8b 00             	mov    (%rax),%r8
  408fd3:	40 84 ff             	test   %dil,%dil
  408fd6:	74 3d                	je     409015 <_Z25missingConfigurationTablePKc+0x165>
  408fd8:	45 31 ed             	xor    %r13d,%r13d
  408fdb:	4e 8d 74 3d 00       	lea    0x0(%rbp,%r15,1),%r14
  408fe0:	eb 2e                	jmp    409010 <_Z25missingConfigurationTablePKc+0x160>
  408fe2:	66 0f 1f 44 00 00    	nopw   0x0(%rax,%rax,1)
  408fe8:	49 8b 10             	mov    (%r8),%rdx
  408feb:	48 8b 12             	mov    (%rdx),%rdx
  408fee:	4c 39 f2             	cmp    %r14,%rdx
  408ff1:	0f 85 19 01 00 00    	jne    409110 <_Z25missingConfigurationTablePKc+0x260>
  408ff7:	41 ff 50 08          	call   *0x8(%r8)
  408ffb:	4a 8b 14 3b          	mov    (%rbx,%r15,1),%rdx
  408fff:	4c 8b 02             	mov    (%rdx),%r8
  409002:	49 83 c5 01          	add    $0x1,%r13
  409006:	43 0f b6 3c 2c       	movzbl (%r12,%r13,1),%edi
  40900b:	40 84 ff             	test   %dil,%dil
  40900e:	74 05                	je     409015 <_Z25missingConfigurationTablePKc+0x165>
  409010:	4d 85 c0             	test   %r8,%r8
  409013:	75 d3                	jne    408fe8 <_Z25missingConfigurationTablePKc+0x138>
  409015:	48 b8 6d 09 00 00 00 	movabs $0x96d,%rax
  40901c:	00 00 00 
  40901f:	bf 29 00 00 00       	mov    $0x29,%edi
  409024:	4e 8d 64 3d 00       	lea    0x0(%rbp,%r15,1),%r12
  409029:	4d 8d 34 07          	lea    (%r15,%rax,1),%r14
  40902d:	eb 19                	jmp    409048 <_Z25missingConfigurationTablePKc+0x198>
  40902f:	90                   	nop
  409030:	41 ff 50 08          	call   *0x8(%r8)
  409034:	41 0f b6 3e          	movzbl (%r14),%edi
  409038:	49 83 c6 01          	add    $0x1,%r14
  40903c:	40 84 ff             	test   %dil,%dil
  40903f:	74 2c                	je     40906d <_Z25missingConfigurationTablePKc+0x1bd>
  409041:	4a 8b 04 3b          	mov    (%rbx,%r15,1),%rax
  409045:	4c 8b 00             	mov    (%rax),%r8
  409048:	4d 85 c0             	test   %r8,%r8
  40904b:	74 e7                	je     409034 <_Z25missingConfigurationTablePKc+0x184>
  40904d:	49 8b 00             	mov    (%r8),%rax
  409050:	48 8b 00             	mov    (%rax),%rax
  409053:	4c 39 e0             	cmp    %r12,%rax
  409056:	74 d8                	je     409030 <_Z25missingConfigurationTablePKc+0x180>
  409058:	49 83 c6 01          	add    $0x1,%r14
  40905c:	89 fe                	mov    %edi,%esi
  40905e:	4c 89 c7             	mov    %r8,%rdi
  409061:	ff d0                	call   *%rax
  409063:	41 0f b6 7e ff       	movzbl -0x1(%r14),%edi
  409068:	40 84 ff             	test   %dil,%dil
  40906b:	75 d4                	jne    409041 <_Z25missingConfigurationTablePKc+0x191>
  40906d:	4c 8b 2c 24          	mov    (%rsp),%r13
  409071:	bf b8 b8 b8 00       	mov    $0xb8b8b8,%edi
  409076:	4d 01 fd             	add    %r15,%r13
  409079:	41 ff d5             	call   *%r13
  40907c:	4e 8b 2c 3b          	mov    (%rbx,%r15,1),%r13
  409080:	bf 43 00 00 00       	mov    $0x43,%edi
  409085:	48 b8 f5 09 00 00 00 	movabs $0x9f5,%rax
  40908c:	00 00 00 
  40908f:	4d 8d 24 07          	lea    (%r15,%rax,1),%r12
  409093:	0f 1f 44 00 00       	nopl   0x0(%rax,%rax,1)
  409098:	4d 8b 75 00          	mov    0x0(%r13),%r14
  40909c:	4d 85 f6             	test   %r14,%r14
  40909f:	74 18                	je     4090b9 <_Z25missingConfigurationTablePKc+0x209>
  4090a1:	49 8b 06             	mov    (%r14),%rax
  4090a4:	4a 8d 54 3d 00       	lea    0x0(%rbp,%r15,1),%rdx
  4090a9:	48 8b 00             	mov    (%rax),%rax
  4090ac:	48 39 d0             	cmp    %rdx,%rax
  4090af:	0f 85 ab 00 00 00    	jne    409160 <_Z25missingConfigurationTablePKc+0x2b0>
  4090b5:	41 ff 56 08          	call   *0x8(%r14)
  4090b9:	41 0f b6 7c 24 01    	movzbl 0x1(%r12),%edi
  4090bf:	40 84 ff             	test   %dil,%dil
  4090c2:	74 2b                	je     4090ef <_Z25missingConfigurationTablePKc+0x23f>
  4090c4:	40 80 ff 40          	cmp    $0x40,%dil
  4090c8:	74 76                	je     409140 <_Z25missingConfigurationTablePKc+0x290>
  4090ca:	49 83 c4 01          	add    $0x1,%r12
  4090ce:	4d 85 f6             	test   %r14,%r14
  4090d1:	75 c5                	jne    409098 <_Z25missingConfigurationTablePKc+0x1e8>
  4090d3:	41 0f b6 44 24 01    	movzbl 0x1(%r12),%eax
  4090d9:	84 c0                	test   %al,%al
  4090db:	74 12                	je     4090ef <_Z25missingConfigurationTablePKc+0x23f>
  4090dd:	3c 40                	cmp    $0x40,%al
  4090df:	74 47                	je     409128 <_Z25missingConfigurationTablePKc+0x278>
  4090e1:	41 0f b6 44 24 02    	movzbl 0x2(%r12),%eax
  4090e7:	49 83 c4 01          	add    $0x1,%r12
  4090eb:	84 c0                	test   %al,%al
  4090ed:	75 ee                	jne    4090dd <_Z25missingConfigurationTablePKc+0x22d>
  4090ef:	4a 8b 04 3b          	mov    (%rbx,%r15,1),%rax
  4090f3:	48 8b 38             	mov    (%rax),%rdi
  4090f6:	48 85 ff             	test   %rdi,%rdi
  4090f9:	74 0a                	je     409105 <_Z25missingConfigurationTablePKc+0x255>
  4090fb:	48 8b 07             	mov    (%rdi),%rax
  4090fe:	be 0a 00 00 00       	mov    $0xa,%esi
  409103:	ff 10                	call   *(%rax)
  409105:	eb fe                	jmp    409105 <_Z25missingConfigurationTablePKc+0x255>
  409107:	66 0f 1f 84 00 00 00 	nopw   0x0(%rax,%rax,1)
  40910e:	00 00 
  409110:	89 fe                	mov    %edi,%esi
  409112:	4c 89 c7             	mov    %r8,%rdi
  409115:	ff d2                	call   *%rdx
  409117:	4a 8b 14 3b          	mov    (%rbx,%r15,1),%rdx
  40911b:	4c 8b 02             	mov    (%rdx),%r8
  40911e:	e9 df fe ff ff       	jmp    409002 <_Z25missingConfigurationTablePKc+0x152>
  409123:	0f 1f 44 00 00       	nopl   0x0(%rax,%rax,1)
  409128:	41 80 7c 24 02 40    	cmpb   $0x40,0x2(%r12)
  40912e:	4d 8d 44 24 02       	lea    0x2(%r12),%r8
  409133:	75 37                	jne    40916c <_Z25missingConfigurationTablePKc+0x2bc>
  409135:	4d 89 c4             	mov    %r8,%r12
  409138:	eb 99                	jmp    4090d3 <_Z25missingConfigurationTablePKc+0x223>
  40913a:	66 0f 1f 44 00 00    	nopw   0x0(%rax,%rax,1)
  409140:	41 0f b6 7c 24 02    	movzbl 0x2(%r12),%edi
  409146:	4d 8d 44 24 02       	lea    0x2(%r12),%r8
  40914b:	40 80 ff 40          	cmp    $0x40,%dil
  40914f:	75 1b                	jne    40916c <_Z25missingConfigurationTablePKc+0x2bc>
  409151:	4d 89 c4             	mov    %r8,%r12
  409154:	e9 75 ff ff ff       	jmp    4090ce <_Z25missingConfigurationTablePKc+0x21e>
  409159:	0f 1f 80 00 00 00 00 	nopl   0x0(%rax)
  409160:	89 fe                	mov    %edi,%esi
  409162:	4c 89 f7             	mov    %r14,%rdi
  409165:	ff d0                	call   *%rax
  409167:	e9 4d ff ff ff       	jmp    4090b9 <_Z25missingConfigurationTablePKc+0x209>
  40916c:	48 8b 44 24 08       	mov    0x8(%rsp),%rax
  409171:	0f b6 30             	movzbl (%rax),%esi
  409174:	4c 8d 60 01          	lea    0x1(%rax),%r12
  409178:	40 84 f6             	test   %sil,%sil
  40917b:	74 37                	je     4091b4 <_Z25missingConfigurationTablePKc+0x304>
  40917d:	4a 8b 2c 3b          	mov    (%rbx,%r15,1),%rbp
  409181:	48 8b 7d 00          	mov    0x0(%rbp),%rdi
  409185:	48 85 ff             	test   %rdi,%rdi
  409188:	74 2a                	je     4091b4 <_Z25missingConfigurationTablePKc+0x304>
  40918a:	66 0f 1f 44 00 00    	nopw   0x0(%rax,%rax,1)
  409190:	48 8b 07             	mov    (%rdi),%rax
  409193:	4c 89 04 24          	mov    %r8,(%rsp)
  409197:	ff 10                	call   *(%rax)
  409199:	41 0f b6 34 24       	movzbl (%r12),%esi
  40919e:	4c 8b 04 24          	mov    (%rsp),%r8
  4091a2:	40 84 f6             	test   %sil,%sil
  4091a5:	74 0d                	je     4091b4 <_Z25missingConfigurationTablePKc+0x304>
  4091a7:	48 8b 7d 00          	mov    0x0(%rbp),%rdi
  4091ab:	49 83 c4 01          	add    $0x1,%r12
  4091af:	48 85 ff             	test   %rdi,%rdi
  4091b2:	75 dc                	jne    409190 <_Z25missingConfigurationTablePKc+0x2e0>
  4091b4:	48 b8 d0 be fe ff ff 	movabs $0xfffffffffffebed0,%rax
  4091bb:	ff ff ff 
  4091be:	4c 89 c7             	mov    %r8,%rdi
  4091c1:	4c 01 f8             	add    %r15,%rax
  4091c4:	ff d0                	call   *%rax
  4091c6:	e9 24 ff ff ff       	jmp    4090ef <_Z25missingConfigurationTablePKc+0x23f>
  4091cb:	0f 1f 44 00 00       	nopl   0x0(%rax,%rax,1)

00000000004091d0 <_Z15waitForKeyboardv>:
  4091d0:	f3 0f 1e fa          	endbr64 
  4091d4:	ba 64 00 00 00       	mov    $0x64,%edx
  4091d9:	0f 1f 80 00 00 00 00 	nopl   0x0(%rax)
  4091e0:	ec                   	in     (%dx),%al
  4091e1:	a8 02                	test   $0x2,%al
  4091e3:	75 fb                	jne    4091e0 <_Z15waitForKeyboardv+0x10>
  4091e5:	c3                   	ret    
  4091e6:	66 2e 0f 1f 84 00 00 	cs nopw 0x0(%rax,%rax,1)
  4091ed:	00 00 00 

00000000004091f0 <_Z12keyboardInitv>:
  4091f0:	f3 0f 1e fa          	endbr64 
  4091f4:	41 57                	push   %r15
  4091f6:	4c 8d 3d f7 ff ff ff 	lea    -0x9(%rip),%r15        # 4091f4 <_Z12keyboardInitv+0x4>
  4091fd:	ba 64 00 00 00       	mov    $0x64,%edx
  409202:	49 bb ac 3c 01 00 00 	movabs $0x13cac,%r11
  409209:	00 00 00 
  40920c:	4d 01 df             	add    %r11,%r15
  40920f:	90                   	nop
  409210:	ec                   	in     (%dx),%al
  409211:	a8 02                	test   $0x2,%al
  409213:	75 fb                	jne    409210 <_Z12keyboardInitv+0x20>
  409215:	b8 60 00 00 00       	mov    $0x60,%eax
  40921a:	ee                   	out    %al,(%dx)
  40921b:	ba 64 00 00 00       	mov    $0x64,%edx
  409220:	ec                   	in     (%dx),%al
  409221:	a8 02                	test   $0x2,%al
  409223:	75 fb                	jne    409220 <_Z12keyboardInitv+0x30>
  409225:	b8 47 00 00 00       	mov    $0x47,%eax
  40922a:	ba 60 00 00 00       	mov    $0x60,%edx
  40922f:	ee                   	out    %al,(%dx)
  409230:	48 b8 e0 c3 fe ff ff 	movabs $0xfffffffffffec3e0,%rax
  409237:	ff ff ff 
  40923a:	be 01 00 00 00       	mov    $0x1,%esi
  40923f:	bf 01 00 00 00       	mov    $0x1,%edi
  409244:	4c 01 f8             	add    %r15,%rax
  409247:	41 5f                	pop    %r15
  409249:	ff e0                	jmp    *%rax
  40924b:	0f 1f 44 00 00       	nopl   0x0(%rax,%rax,1)

0000000000409250 <_Z8archInitP10BootConfig>:
  409250:	f3 0f 1e fa          	endbr64 
  409254:	49 bb 4c 3c 01 00 00 	movabs $0x13c4c,%r11
  40925b:	00 00 00 
  40925e:	41 57                	push   %r15
  409260:	4c 8d 3d ed ff ff ff 	lea    -0x13(%rip),%r15        # 409254 <_Z8archInitP10BootConfig+0x4>
  409267:	48 b8 10 97 fe ff ff 	movabs $0xfffffffffffe9710,%rax
  40926e:	ff ff ff 
  409271:	4d 01 df             	add    %r11,%r15
  409274:	4c 01 f8             	add    %r15,%rax
  409277:	41 5f                	pop    %r15
  409279:	ff e0                	jmp    *%rax
  40927b:	0f 1f 44 00 00       	nopl   0x0(%rax,%rax,1)

0000000000409280 <maskIRQ>:
  409280:	f3 0f 1e fa          	endbr64 
  409284:	89 f9                	mov    %edi,%ecx
  409286:	ba 21 00 00 00       	mov    $0x21,%edx
  40928b:	40 80 ff 07          	cmp    $0x7,%dil
  40928f:	76 08                	jbe    409299 <maskIRQ+0x19>
  409291:	8d 4f f8             	lea    -0x8(%rdi),%ecx
  409294:	ba a1 00 00 00       	mov    $0xa1,%edx
  409299:	ec                   	in     (%dx),%al
  40929a:	bf 01 00 00 00       	mov    $0x1,%edi
  40929f:	d3 e7                	shl    %cl,%edi
  4092a1:	89 f9                	mov    %edi,%ecx
  4092a3:	f7 d7                	not    %edi
  4092a5:	21 c7                	and    %eax,%edi
  4092a7:	09 c8                	or     %ecx,%eax
  4092a9:	40 84 f6             	test   %sil,%sil
  4092ac:	0f 45 c7             	cmovne %edi,%eax
  4092af:	ee                   	out    %al,(%dx)
  4092b0:	c3                   	ret    
  4092b1:	66 66 2e 0f 1f 84 00 	data16 cs nopw 0x0(%rax,%rax,1)
  4092b8:	00 00 00 00 
  4092bc:	0f 1f 40 00          	nopl   0x0(%rax)

00000000004092c0 <picInit>:
  4092c0:	f3 0f 1e fa          	endbr64 
  4092c4:	41 57                	push   %r15
  4092c6:	bf ff ff ff ff       	mov    $0xffffffff,%edi
  4092cb:	49 bb dc 3b 01 00 00 	movabs $0x13bdc,%r11
  4092d2:	00 00 00 
  4092d5:	be 21 00 00 00       	mov    $0x21,%esi
  4092da:	4c 8d 3d e3 ff ff ff 	lea    -0x1d(%rip),%r15        # 4092c4 <picInit+0x4>
  4092e1:	89 f8                	mov    %edi,%eax
  4092e3:	89 f2                	mov    %esi,%edx
  4092e5:	4d 01 df             	add    %r11,%r15
  4092e8:	ee                   	out    %al,(%dx)
  4092e9:	b9 a1 00 00 00       	mov    $0xa1,%ecx
  4092ee:	89 ca                	mov    %ecx,%edx
  4092f0:	ee                   	out    %al,(%dx)
  4092f1:	b8 11 00 00 00       	mov    $0x11,%eax
  4092f6:	ba 20 00 00 00       	mov    $0x20,%edx
  4092fb:	ee                   	out    %al,(%dx)
  4092fc:	41 b9 20 00 00 00    	mov    $0x20,%r9d
  409302:	89 f2                	mov    %esi,%edx
  409304:	44 89 c8             	mov    %r9d,%eax
  409307:	ee                   	out    %al,(%dx)
  409308:	b8 04 00 00 00       	mov    $0x4,%eax
  40930d:	ee                   	out    %al,(%dx)
  40930e:	41 b8 01 00 00 00    	mov    $0x1,%r8d
  409314:	44 89 c0             	mov    %r8d,%eax
  409317:	ee                   	out    %al,(%dx)
  409318:	ba a0 00 00 00       	mov    $0xa0,%edx
  40931d:	44 89 c8             	mov    %r9d,%eax
  409320:	ee                   	out    %al,(%dx)
  409321:	b8 28 00 00 00       	mov    $0x28,%eax
  409326:	89 ca                	mov    %ecx,%edx
  409328:	ee                   	out    %al,(%dx)
  409329:	b8 02 00 00 00       	mov    $0x2,%eax
  40932e:	ee                   	out    %al,(%dx)
  40932f:	44 89 c0             	mov    %r8d,%eax
  409332:	ee                   	out    %al,(%dx)
  409333:	89 f8                	mov    %edi,%eax
  409335:	89 f2                	mov    %esi,%edx
  409337:	ee                   	out    %al,(%dx)
  409338:	89 ca                	mov    %ecx,%edx
  40933a:	ee                   	out    %al,(%dx)
  40933b:	48 b8 50 c3 fe ff ff 	movabs $0xfffffffffffec350,%rax
  409342:	ff ff ff 
  409345:	4c 01 f8             	add    %r15,%rax
  409348:	ff d0                	call   *%rax
  40934a:	fb                   	sti    
  40934b:	41 5f                	pop    %r15
  40934d:	c3                   	ret    
  40934e:	66 90                	xchg   %ax,%ax

0000000000409350 <_Z7getPortN4EXOS6Driver6Serial10SerialPortE>:
  409350:	f3 0f 1e fa          	endbr64 
  409354:	48 8d 05 f9 ff ff ff 	lea    -0x7(%rip),%rax        # 409354 <_Z7getPortN4EXOS6Driver6Serial10SerialPortE+0x4>
  40935b:	45 31 c0             	xor    %r8d,%r8d
  40935e:	49 bb 4c 3b 01 00 00 	movabs $0x13b4c,%r11
  409365:	00 00 00 
  409368:	4c 01 d8             	add    %r11,%rax
  40936b:	83 ff 07             	cmp    $0x7,%edi
  40936e:	0f 87 95 00 00 00    	ja     409409 <_Z7getPortN4EXOS6Driver6Serial10SerialPortE+0xb9>
  409374:	48 ba c0 00 00 00 00 	movabs $0xc0,%rdx
  40937b:	00 00 00 
  40937e:	89 f9                	mov    %edi,%ecx
  409380:	48 63 ff             	movslq %edi,%rdi
  409383:	48 01 c2             	add    %rax,%rdx
  409386:	44 0f b7 04 4a       	movzwl (%rdx,%rcx,2),%r8d
  40938b:	48 ba e0 f7 ff ff ff 	movabs $0xfffffffffffff7e0,%rdx
  409392:	ff ff ff 
  409395:	48 8d 0c 10          	lea    (%rax,%rdx,1),%rcx
  409399:	0f b6 34 39          	movzbl (%rcx,%rdi,1),%esi
  40939d:	41 89 f1             	mov    %esi,%r9d
  4093a0:	41 83 e1 01          	and    $0x1,%r9d
  4093a4:	75 63                	jne    409409 <_Z7getPortN4EXOS6Driver6Serial10SerialPortE+0xb9>
  4093a6:	45 8d 58 01          	lea    0x1(%r8),%r11d
  4093aa:	44 89 c8             	mov    %r9d,%eax
  4093ad:	44 89 da             	mov    %r11d,%edx
  4093b0:	ee                   	out    %al,(%dx)
  4093b1:	45 8d 50 03          	lea    0x3(%r8),%r10d
  4093b5:	b8 80 ff ff ff       	mov    $0xffffff80,%eax
  4093ba:	44 89 d2             	mov    %r10d,%edx
  4093bd:	ee                   	out    %al,(%dx)
  4093be:	b8 01 00 00 00       	mov    $0x1,%eax
  4093c3:	44 89 c2             	mov    %r8d,%edx
  4093c6:	ee                   	out    %al,(%dx)
  4093c7:	44 89 c8             	mov    %r9d,%eax
  4093ca:	44 89 da             	mov    %r11d,%edx
  4093cd:	ee                   	out    %al,(%dx)
  4093ce:	b8 03 00 00 00       	mov    $0x3,%eax
  4093d3:	44 89 d2             	mov    %r10d,%edx
  4093d6:	ee                   	out    %al,(%dx)
  4093d7:	b8 c7 ff ff ff       	mov    $0xffffffc7,%eax
  4093dc:	41 8d 50 02          	lea    0x2(%r8),%edx
  4093e0:	ee                   	out    %al,(%dx)
  4093e1:	41 ba 0f 00 00 00    	mov    $0xf,%r10d
  4093e7:	45 8d 48 04          	lea    0x4(%r8),%r9d
  4093eb:	44 89 d0             	mov    %r10d,%eax
  4093ee:	44 89 ca             	mov    %r9d,%edx
  4093f1:	ee                   	out    %al,(%dx)
  4093f2:	b8 1e 00 00 00       	mov    $0x1e,%eax
  4093f7:	ee                   	out    %al,(%dx)
  4093f8:	b8 58 00 00 00       	mov    $0x58,%eax
  4093fd:	44 89 c2             	mov    %r8d,%edx
  409400:	ee                   	out    %al,(%dx)
  409401:	ec                   	in     (%dx),%al
  409402:	3c 58                	cmp    $0x58,%al
  409404:	74 0a                	je     409410 <_Z7getPortN4EXOS6Driver6Serial10SerialPortE+0xc0>
  409406:	45 31 c0             	xor    %r8d,%r8d
  409409:	44 89 c0             	mov    %r8d,%eax
  40940c:	c3                   	ret    
  40940d:	0f 1f 00             	nopl   (%rax)
  409410:	44 89 d0             	mov    %r10d,%eax
  409413:	44 89 ca             	mov    %r9d,%edx
  409416:	ee                   	out    %al,(%dx)
  409417:	83 ce 01             	or     $0x1,%esi
  40941a:	44 89 c0             	mov    %r8d,%eax
  40941d:	40 88 34 39          	mov    %sil,(%rcx,%rdi,1)
  409421:	c3                   	ret    
  409422:	66 66 2e 0f 1f 84 00 	data16 cs nopw 0x0(%rax,%rax,1)
  409429:	00 00 00 00 
  40942d:	0f 1f 00             	nopl   (%rax)

0000000000409430 <_ZN4EXOS6Driver6Serial5writeENS1_10SerialPortEh>:
  409430:	f3 0f 1e fa          	endbr64 
  409434:	48 8d 15 f9 ff ff ff 	lea    -0x7(%rip),%rdx        # 409434 <_ZN4EXOS6Driver6Serial5writeENS1_10SerialPortEh+0x4>
  40943b:	49 bb 6c 3a 01 00 00 	movabs $0x13a6c,%r11
  409442:	00 00 00 
  409445:	4c 01 da             	add    %r11,%rdx
  409448:	83 ff 07             	cmp    $0x7,%edi
  40944b:	0f 87 97 00 00 00    	ja     4094e8 <_ZN4EXOS6Driver6Serial5writeENS1_10SerialPortEh+0xb8>
  409451:	48 b9 c0 00 00 00 00 	movabs $0xc0,%rcx
  409458:	00 00 00 
  40945b:	89 f8                	mov    %edi,%eax
  40945d:	41 89 f0             	mov    %esi,%r8d
  409460:	53                   	push   %rbx
  409461:	48 01 d1             	add    %rdx,%rcx
  409464:	48 63 ff             	movslq %edi,%rdi
  409467:	0f b7 34 41          	movzwl (%rcx,%rax,2),%esi
  40946b:	48 b8 e0 f7 ff ff ff 	movabs $0xfffffffffffff7e0,%rax
  409472:	ff ff ff 
  409475:	48 8d 0c 02          	lea    (%rdx,%rax,1),%rcx
  409479:	44 0f b6 0c 39       	movzbl (%rcx,%rdi,1),%r9d
  40947e:	45 89 ca             	mov    %r9d,%r10d
  409481:	41 83 e2 01          	and    $0x1,%r10d
  409485:	75 78                	jne    4094ff <_ZN4EXOS6Driver6Serial5writeENS1_10SerialPortEh+0xcf>
  409487:	8d 5e 01             	lea    0x1(%rsi),%ebx
  40948a:	44 89 d0             	mov    %r10d,%eax
  40948d:	89 da                	mov    %ebx,%edx
  40948f:	ee                   	out    %al,(%dx)
  409490:	44 8d 5e 03          	lea    0x3(%rsi),%r11d
  409494:	b8 80 ff ff ff       	mov    $0xffffff80,%eax
  409499:	44 89 da             	mov    %r11d,%edx
  40949c:	ee                   	out    %al,(%dx)
  40949d:	b8 01 00 00 00       	mov    $0x1,%eax
  4094a2:	89 f2                	mov    %esi,%edx
  4094a4:	ee                   	out    %al,(%dx)
  4094a5:	44 89 d0             	mov    %r10d,%eax
  4094a8:	89 da                	mov    %ebx,%edx
  4094aa:	ee                   	out    %al,(%dx)
  4094ab:	b8 03 00 00 00       	mov    $0x3,%eax
  4094b0:	44 89 da             	mov    %r11d,%edx
  4094b3:	ee                   	out    %al,(%dx)
  4094b4:	b8 c7 ff ff ff       	mov    $0xffffffc7,%eax
  4094b9:	8d 56 02             	lea    0x2(%rsi),%edx
  4094bc:	ee                   	out    %al,(%dx)
  4094bd:	41 bb 0f 00 00 00    	mov    $0xf,%r11d
  4094c3:	44 8d 56 04          	lea    0x4(%rsi),%r10d
  4094c7:	44 89 d8             	mov    %r11d,%eax
  4094ca:	44 89 d2             	mov    %r10d,%edx
  4094cd:	ee                   	out    %al,(%dx)
  4094ce:	b8 1e 00 00 00       	mov    $0x1e,%eax
  4094d3:	ee                   	out    %al,(%dx)
  4094d4:	b8 58 00 00 00       	mov    $0x58,%eax
  4094d9:	89 f2                	mov    %esi,%edx
  4094db:	ee                   	out    %al,(%dx)
  4094dc:	ec                   	in     (%dx),%al
  4094dd:	3c 58                	cmp    $0x58,%al
  4094df:	74 0f                	je     4094f0 <_ZN4EXOS6Driver6Serial5writeENS1_10SerialPortEh+0xc0>
  4094e1:	5b                   	pop    %rbx
  4094e2:	c3                   	ret    
  4094e3:	0f 1f 44 00 00       	nopl   0x0(%rax,%rax,1)
  4094e8:	c3                   	ret    
  4094e9:	0f 1f 80 00 00 00 00 	nopl   0x0(%rax)
  4094f0:	44 89 d8             	mov    %r11d,%eax
  4094f3:	44 89 d2             	mov    %r10d,%edx
  4094f6:	ee                   	out    %al,(%dx)
  4094f7:	41 83 c9 01          	or     $0x1,%r9d
  4094fb:	44 88 0c 39          	mov    %r9b,(%rcx,%rdi,1)
  4094ff:	66 85 f6             	test   %si,%si
  409502:	74 dd                	je     4094e1 <_ZN4EXOS6Driver6Serial5writeENS1_10SerialPortEh+0xb1>
  409504:	44 89 c0             	mov    %r8d,%eax
  409507:	89 f2                	mov    %esi,%edx
  409509:	ee                   	out    %al,(%dx)
  40950a:	5b                   	pop    %rbx
  40950b:	c3                   	ret    
  40950c:	0f 1f 40 00          	nopl   0x0(%rax)

0000000000409510 <_ZN4EXOS6Driver6Serial4readENS1_10SerialPortE>:
  409510:	f3 0f 1e fa          	endbr64 
  409514:	48 8d 05 f9 ff ff ff 	lea    -0x7(%rip),%rax        # 409514 <_ZN4EXOS6Driver6Serial4readENS1_10SerialPortE+0x4>
  40951b:	49 bb 8c 39 01 00 00 	movabs $0x1398c,%r11
  409522:	00 00 00 
  409525:	4c 01 d8             	add    %r11,%rax
  409528:	83 ff 07             	cmp    $0x7,%edi
  40952b:	0f 87 8f 00 00 00    	ja     4095c0 <_ZN4EXOS6Driver6Serial4readENS1_10SerialPortE+0xb0>
  409531:	48 ba c0 00 00 00 00 	movabs $0xc0,%rdx
  409538:	00 00 00 
  40953b:	89 f9                	mov    %edi,%ecx
  40953d:	48 63 ff             	movslq %edi,%rdi
  409540:	48 01 c2             	add    %rax,%rdx
  409543:	0f b7 34 4a          	movzwl (%rdx,%rcx,2),%esi
  409547:	48 ba e0 f7 ff ff ff 	movabs $0xfffffffffffff7e0,%rdx
  40954e:	ff ff ff 
  409551:	48 8d 0c 10          	lea    (%rax,%rdx,1),%rcx
  409555:	44 0f b6 04 39       	movzbl (%rcx,%rdi,1),%r8d
  40955a:	45 89 c1             	mov    %r8d,%r9d
  40955d:	41 83 e1 01          	and    $0x1,%r9d
  409561:	75 74                	jne    4095d7 <_ZN4EXOS6Driver6Serial4readENS1_10SerialPortE+0xc7>
  409563:	44 8d 5e 01          	lea    0x1(%rsi),%r11d
  409567:	44 89 c8             	mov    %r9d,%eax
  40956a:	44 89 da             	mov    %r11d,%edx
  40956d:	ee                   	out    %al,(%dx)
  40956e:	44 8d 56 03          	lea    0x3(%rsi),%r10d
  409572:	b8 80 ff ff ff       	mov    $0xffffff80,%eax
  409577:	44 89 d2             	mov    %r10d,%edx
  40957a:	ee                   	out    %al,(%dx)
  40957b:	b8 01 00 00 00       	mov    $0x1,%eax
  409580:	89 f2                	mov    %esi,%edx
  409582:	ee                   	out    %al,(%dx)
  409583:	44 89 c8             	mov    %r9d,%eax
  409586:	44 89 da             	mov    %r11d,%edx
  409589:	ee                   	out    %al,(%dx)
  40958a:	b8 03 00 00 00       	mov    $0x3,%eax
  40958f:	44 89 d2             	mov    %r10d,%edx
  409592:	ee                   	out    %al,(%dx)
  409593:	b8 c7 ff ff ff       	mov    $0xffffffc7,%eax
  409598:	8d 56 02             	lea    0x2(%rsi),%edx
  40959b:	ee                   	out    %al,(%dx)
  40959c:	41 ba 0f 00 00 00    	mov    $0xf,%r10d
  4095a2:	44 8d 4e 04          	lea    0x4(%rsi),%r9d
  4095a6:	44 89 d0             	mov    %r10d,%eax
  4095a9:	44 89 ca             	mov    %r9d,%edx
  4095ac:	ee                   	out    %al,(%dx)
  4095ad:	b8 1e 00 00 00       	mov    $0x1e,%eax
  4095b2:	ee                   	out    %al,(%dx)
  4095b3:	b8 58 00 00 00       	mov    $0x58,%eax
  4095b8:	89 f2                	mov    %esi,%edx
  4095ba:	ee                   	out    %al,(%dx)
  4095bb:	ec                   	in     (%dx),%al
  4095bc:	3c 58                	cmp    $0x58,%al
  4095be:	74 08                	je     4095c8 <_ZN4EXOS6Driver6Serial4readENS1_10SerialPortE+0xb8>
  4095c0:	31 c0                	xor    %eax,%eax
  4095c2:	c3                   	ret    
  4095c3:	0f 1f 44 00 00       	nopl   0x0(%rax,%rax,1)
  4095c8:	44 89 d0             	mov    %r10d,%eax
  4095cb:	44 89 ca             	mov    %r9d,%edx
  4095ce:	ee                   	out    %al,(%dx)
  4095cf:	41 83 c8 01          	or     $0x1,%r8d
  4095d3:	44 88 04 39          	mov    %r8b,(%rcx,%rdi,1)
  4095d7:	66 85 f6             	test   %si,%si
  4095da:	74 e4                	je     4095c0 <_ZN4EXOS6Driver6Serial4readENS1_10SerialPortE+0xb0>
  4095dc:	8d 56 05             	lea    0x5(%rsi),%edx
  4095df:	90                   	nop
  4095e0:	ec                   	in     (%dx),%al
  4095e1:	a8 20                	test   $0x20,%al
  4095e3:	74 fb                	je     4095e0 <_ZN4EXOS6Driver6Serial4readENS1_10SerialPortE+0xd0>
  4095e5:	89 f2                	mov    %esi,%edx
  4095e7:	ec                   	in     (%dx),%al
  4095e8:	c3                   	ret    
  4095e9:	0f 1f 80 00 00 00 00 	nopl   0x0(%rax)

00000000004095f0 <_ZN4EXOS5Utils6LoggerL8printIntEx>:
  4095f0:	f3 0f 1e fa          	endbr64 
  4095f4:	49 bb ac 38 01 00 00 	movabs $0x138ac,%r11
  4095fb:	00 00 00 
  4095fe:	41 56                	push   %r14
  409600:	41 55                	push   %r13
  409602:	49 bd 20 ff ff ff ff 	movabs $0xffffffffffffff20,%r13
  409609:	ff ff ff 
  40960c:	41 54                	push   %r12
  40960e:	55                   	push   %rbp
  40960f:	48 8d 2d de ff ff ff 	lea    -0x22(%rip),%rbp        # 4095f4 <_ZN4EXOS5Utils6LoggerL8printIntEx+0x4>
  409616:	53                   	push   %rbx
  409617:	4c 01 dd             	add    %r11,%rbp
  40961a:	48 89 fb             	mov    %rdi,%rbx
  40961d:	48 85 ff             	test   %rdi,%rdi
  409620:	78 4e                	js     409670 <_ZN4EXOS5Utils6LoggerL8printIntEx+0x80>
  409622:	48 83 fb 09          	cmp    $0x9,%rbx
  409626:	7f 68                	jg     409690 <_ZN4EXOS5Utils6LoggerL8printIntEx+0xa0>
  409628:	48 ba cd cc cc cc cc 	movabs $0xcccccccccccccccd,%rdx
  40962f:	cc cc cc 
  409632:	48 89 d8             	mov    %rbx,%rax
  409635:	48 f7 e2             	mul    %rdx
  409638:	48 c1 ea 03          	shr    $0x3,%rdx
  40963c:	48 8d 04 92          	lea    (%rdx,%rdx,4),%rax
  409640:	48 01 c0             	add    %rax,%rax
  409643:	48 29 c3             	sub    %rax,%rbx
  409646:	49 8b 44 2d 00       	mov    0x0(%r13,%rbp,1),%rax
  40964b:	83 c3 30             	add    $0x30,%ebx
  40964e:	48 8b 38             	mov    (%rax),%rdi
  409651:	48 85 ff             	test   %rdi,%rdi
  409654:	0f 84 96 00 00 00    	je     4096f0 <_ZN4EXOS5Utils6LoggerL8printIntEx+0x100>
  40965a:	48 8b 07             	mov    (%rdi),%rax
  40965d:	0f b6 f3             	movzbl %bl,%esi
  409660:	5b                   	pop    %rbx
  409661:	5d                   	pop    %rbp
  409662:	41 5c                	pop    %r12
  409664:	48 8b 00             	mov    (%rax),%rax
  409667:	41 5d                	pop    %r13
  409669:	41 5e                	pop    %r14
  40966b:	ff e0                	jmp    *%rax
  40966d:	0f 1f 00             	nopl   (%rax)
  409670:	49 8b 44 2d 00       	mov    0x0(%r13,%rbp,1),%rax
  409675:	48 8b 38             	mov    (%rax),%rdi
  409678:	48 85 ff             	test   %rdi,%rdi
  40967b:	74 0a                	je     409687 <_ZN4EXOS5Utils6LoggerL8printIntEx+0x97>
  40967d:	48 8b 07             	mov    (%rdi),%rax
  409680:	be 2d 00 00 00       	mov    $0x2d,%esi
  409685:	ff 10                	call   *(%rax)
  409687:	48 f7 db             	neg    %rbx
  40968a:	48 83 fb 09          	cmp    $0x9,%rbx
  40968e:	7e 98                	jle    409628 <_ZN4EXOS5Utils6LoggerL8printIntEx+0x38>
  409690:	48 b9 cd cc cc cc cc 	movabs $0xcccccccccccccccd,%rcx
  409697:	cc cc cc 
  40969a:	48 89 d8             	mov    %rbx,%rax
  40969d:	48 f7 e1             	mul    %rcx
  4096a0:	48 c1 ea 03          	shr    $0x3,%rdx
  4096a4:	49 89 d4             	mov    %rdx,%r12
  4096a7:	48 83 fb 63          	cmp    $0x63,%rbx
  4096ab:	7f 53                	jg     409700 <_ZN4EXOS5Utils6LoggerL8printIntEx+0x110>
  4096ad:	48 ba cd cc cc cc cc 	movabs $0xcccccccccccccccd,%rdx
  4096b4:	cc cc cc 
  4096b7:	4c 89 e0             	mov    %r12,%rax
  4096ba:	48 f7 e2             	mul    %rdx
  4096bd:	48 c1 ea 03          	shr    $0x3,%rdx
  4096c1:	48 8d 04 92          	lea    (%rdx,%rdx,4),%rax
  4096c5:	48 01 c0             	add    %rax,%rax
  4096c8:	49 29 c4             	sub    %rax,%r12
  4096cb:	49 8b 44 2d 00       	mov    0x0(%r13,%rbp,1),%rax
  4096d0:	41 83 c4 30          	add    $0x30,%r12d
  4096d4:	48 8b 38             	mov    (%rax),%rdi
  4096d7:	48 85 ff             	test   %rdi,%rdi
  4096da:	74 14                	je     4096f0 <_ZN4EXOS5Utils6LoggerL8printIntEx+0x100>
  4096dc:	48 8b 07             	mov    (%rdi),%rax
  4096df:	41 0f b6 f4          	movzbl %r12b,%esi
  4096e3:	ff 10                	call   *(%rax)
  4096e5:	e9 3e ff ff ff       	jmp    409628 <_ZN4EXOS5Utils6LoggerL8printIntEx+0x38>
  4096ea:	66 0f 1f 44 00 00    	nopw   0x0(%rax,%rax,1)
  4096f0:	5b                   	pop    %rbx
  4096f1:	5d                   	pop    %rbp
  4096f2:	41 5c                	pop    %r12
  4096f4:	41 5d                	pop    %r13
  4096f6:	41 5e                	pop    %r14
  4096f8:	c3                   	ret    
  4096f9:	0f 1f 80 00 00 00 00 	nopl   0x0(%rax)
  409700:	4c 89 e0             	mov    %r12,%rax
  409703:	48 f7 e1             	mul    %rcx
  409706:	48 c1 ea 03          	shr    $0x3,%rdx
  40970a:	49 89 d6             	mov    %rdx,%r14
  40970d:	48 81 fb e7 03 00 00 	cmp    $0x3e7,%rbx
  409714:	7f 42                	jg     409758 <_ZN4EXOS5Utils6LoggerL8printIntEx+0x168>
  409716:	48 ba cd cc cc cc cc 	movabs $0xcccccccccccccccd,%rdx
  40971d:	cc cc cc 
  409720:	4c 89 f0             	mov    %r14,%rax
  409723:	48 f7 e2             	mul    %rdx
  409726:	48 c1 ea 03          	shr    $0x3,%rdx
  40972a:	48 8d 04 92          	lea    (%rdx,%rdx,4),%rax
  40972e:	48 01 c0             	add    %rax,%rax
  409731:	49 29 c6             	sub    %rax,%r14
  409734:	49 8b 44 2d 00       	mov    0x0(%r13,%rbp,1),%rax
  409739:	41 83 c6 30          	add    $0x30,%r14d
  40973d:	48 8b 38             	mov    (%rax),%rdi
  409740:	48 85 ff             	test   %rdi,%rdi
  409743:	74 ab                	je     4096f0 <_ZN4EXOS5Utils6LoggerL8printIntEx+0x100>
  409745:	48 8b 07             	mov    (%rdi),%rax
  409748:	41 0f b6 f6          	movzbl %r14b,%esi
  40974c:	ff 10                	call   *(%rax)
  40974e:	e9 5a ff ff ff       	jmp    4096ad <_ZN4EXOS5Utils6LoggerL8printIntEx+0xbd>
  409753:	0f 1f 44 00 00       	nopl   0x0(%rax,%rax,1)
  409758:	4c 89 f0             	mov    %r14,%rax
  40975b:	48 f7 e1             	mul    %rcx
  40975e:	48 b8 50 c7 fe ff ff 	movabs $0xfffffffffffec750,%rax
  409765:	ff ff ff 
  409768:	48 01 e8             	add    %rbp,%rax
  40976b:	48 c1 ea 03          	shr    $0x3,%rdx
  40976f:	48 89 d7             	mov    %rdx,%rdi
  409772:	ff d0                	call   *%rax
  409774:	eb a0                	jmp    409716 <_ZN4EXOS5Utils6LoggerL8printIntEx+0x126>
  409776:	66 2e 0f 1f 84 00 00 	cs nopw 0x0(%rax,%rax,1)
  40977d:	00 00 00 

0000000000409780 <_Z7smpInitP8AcpiMadt>:
  409780:	f3 0f 1e fa          	endbr64 
  409784:	49 bb 1c 37 01 00 00 	movabs $0x1371c,%r11
  40978b:	00 00 00 
  40978e:	41 57                	push   %r15
  409790:	4c 8d 3d ed ff ff ff 	lea    -0x13(%rip),%r15        # 409784 <_Z7smpInitP8AcpiMadt+0x4>
  409797:	48 b8 5e 0a 00 00 00 	movabs $0xa5e,%rax
  40979e:	00 00 00 
  4097a1:	41 56                	push   %r14
  4097a3:	4d 01 df             	add    %r11,%r15
  4097a6:	41 55                	push   %r13
  4097a8:	41 54                	push   %r12
  4097aa:	49 bc 20 ff ff ff ff 	movabs $0xffffffffffffff20,%r12
  4097b1:	ff ff ff 
  4097b4:	55                   	push   %rbp
  4097b5:	53                   	push   %rbx
  4097b6:	48 89 fb             	mov    %rdi,%rbx
  4097b9:	48 81 ec a8 00 00 00 	sub    $0xa8,%rsp
  4097c0:	48 89 7c 24 48       	mov    %rdi,0x48(%rsp)
  4097c5:	49 8d 3c 07          	lea    (%r15,%rax,1),%rdi
  4097c9:	48 b8 90 9d fe ff ff 	movabs $0xfffffffffffe9d90,%rax
  4097d0:	ff ff ff 
  4097d3:	4c 01 f8             	add    %r15,%rax
  4097d6:	ff d0                	call   *%rax
  4097d8:	8b 43 24             	mov    0x24(%rbx),%eax
  4097db:	48 ba e8 f7 ff ff ff 	movabs $0xfffffffffffff7e8,%rdx
  4097e2:	ff ff ff 
  4097e5:	48 89 54 24 28       	mov    %rdx,0x28(%rsp)
  4097ea:	42 89 04 3a          	mov    %eax,(%rdx,%r15,1)
  4097ee:	48 8d 43 2c          	lea    0x2c(%rbx),%rax
  4097f2:	48 89 44 24 58       	mov    %rax,0x58(%rsp)
  4097f7:	48 b8 f8 f7 ff ff ff 	movabs $0xfffffffffffff7f8,%rax
  4097fe:	ff ff ff 
  409801:	48 89 44 24 38       	mov    %rax,0x38(%rsp)
  409806:	4a 8b 0c 38          	mov    (%rax,%r15,1),%rcx
  40980a:	48 b8 f0 f7 ff ff ff 	movabs $0xfffffffffffff7f0,%rax
  409811:	ff ff ff 
  409814:	48 89 44 24 18       	mov    %rax,0x18(%rsp)
  409819:	48 b8 f0 9c fe ff ff 	movabs $0xfffffffffffe9cf0,%rax
  409820:	ff ff ff 
  409823:	48 89 44 24 20       	mov    %rax,0x20(%rsp)
  409828:	48 b8 d8 ff ff ff ff 	movabs $0xffffffffffffffd8,%rax
  40982f:	ff ff ff 
  409832:	48 89 44 24 68       	mov    %rax,0x68(%rsp)
  409837:	48 b8 6d 09 00 00 00 	movabs $0x96d,%rax
  40983e:	00 00 00 
  409841:	48 89 44 24 60       	mov    %rax,0x60(%rsp)
  409846:	48 b8 ec f7 ff ff ff 	movabs $0xfffffffffffff7ec,%rax
  40984d:	ff ff ff 
  409850:	48 89 44 24 30       	mov    %rax,0x30(%rsp)
  409855:	48 b8 6f 09 00 00 00 	movabs $0x96f,%rax
  40985c:	00 00 00 
  40985f:	48 89 44 24 50       	mov    %rax,0x50(%rsp)
  409864:	0f 1f 40 00          	nopl   0x0(%rax)
  409868:	48 8b 44 24 18       	mov    0x18(%rsp),%rax
  40986d:	42 c6 04 38 00       	movb   $0x0,(%rax,%r15,1)
  409872:	48 8b 44 24 48       	mov    0x48(%rsp),%rax
  409877:	8b 40 04             	mov    0x4(%rax),%eax
  40987a:	89 c5                	mov    %eax,%ebp
  40987c:	89 04 24             	mov    %eax,(%rsp)
  40987f:	83 ed 2c             	sub    $0x2c,%ebp
  409882:	0f 84 60 07 00 00    	je     409fe8 <_Z7smpInitP8AcpiMadt+0x868>
  409888:	4c 8b 74 24 58       	mov    0x58(%rsp),%r14
  40988d:	45 31 ed             	xor    %r13d,%r13d
  409890:	48 b8 68 09 00 00 00 	movabs $0x968,%rax
  409897:	00 00 00 
  40989a:	48 89 44 24 40       	mov    %rax,0x40(%rsp)
  40989f:	4c 89 f3             	mov    %r14,%rbx
  4098a2:	41 89 ee             	mov    %ebp,%r14d
  4098a5:	eb 1d                	jmp    4098c4 <_Z7smpInitP8AcpiMadt+0x144>
  4098a7:	66 0f 1f 84 00 00 00 	nopw   0x0(%rax,%rax,1)
  4098ae:	00 00 
  4098b0:	84 c0                	test   %al,%al
  4098b2:	0f 84 50 02 00 00    	je     409b08 <_Z7smpInitP8AcpiMadt+0x388>
  4098b8:	45 85 f6             	test   %r14d,%r14d
  4098bb:	0f 84 97 04 00 00    	je     409d58 <_Z7smpInitP8AcpiMadt+0x5d8>
  4098c1:	48 89 eb             	mov    %rbp,%rbx
  4098c4:	0f b6 6b 01          	movzbl 0x1(%rbx),%ebp
  4098c8:	48 89 e8             	mov    %rbp,%rax
  4098cb:	48 01 dd             	add    %rbx,%rbp
  4098ce:	41 29 c6             	sub    %eax,%r14d
  4098d1:	0f b6 03             	movzbl (%rbx),%eax
  4098d4:	3c 01                	cmp    $0x1,%al
  4098d6:	0f 84 0c 02 00 00    	je     409ae8 <_Z7smpInitP8AcpiMadt+0x368>
  4098dc:	3c 05                	cmp    $0x5,%al
  4098de:	75 d0                	jne    4098b0 <_Z7smpInitP8AcpiMadt+0x130>
  4098e0:	48 85 c9             	test   %rcx,%rcx
  4098e3:	74 d3                	je     4098b8 <_Z7smpInitP8AcpiMadt+0x138>
  4098e5:	48 8b 43 08          	mov    0x8(%rbx),%rax
  4098e9:	48 8b 54 24 28       	mov    0x28(%rsp),%rdx
  4098ee:	42 89 04 3a          	mov    %eax,(%rdx,%r15,1)
  4098f2:	45 85 f6             	test   %r14d,%r14d
  4098f5:	75 ca                	jne    4098c1 <_Z7smpInitP8AcpiMadt+0x141>
  4098f7:	48 8b 44 24 20       	mov    0x20(%rsp),%rax
  4098fc:	bf b8 b8 b8 00       	mov    $0xb8b8b8,%edi
  409901:	4c 01 f8             	add    %r15,%rax
  409904:	ff d0                	call   *%rax
  409906:	4b 8b 04 3c          	mov    (%r12,%r15,1),%rax
  40990a:	48 8b 38             	mov    (%rax),%rdi
  40990d:	48 85 ff             	test   %rdi,%rdi
  409910:	74 0a                	je     40991c <_Z7smpInitP8AcpiMadt+0x19c>
  409912:	48 8b 07             	mov    (%rdi),%rax
  409915:	be 5b 00 00 00       	mov    $0x5b,%esi
  40991a:	ff 10                	call   *(%rax)
  40991c:	48 8b 44 24 20       	mov    0x20(%rsp),%rax
  409921:	bf 70 80 01 00       	mov    $0x18070,%edi
  409926:	4c 01 f8             	add    %r15,%rax
  409929:	ff d0                	call   *%rax
  40992b:	4b 8b 1c 3c          	mov    (%r12,%r15,1),%rbx
  40992f:	48 b8 c3 09 00 00 00 	movabs $0x9c3,%rax
  409936:	00 00 00 
  409939:	49 8d 2c 07          	lea    (%r15,%rax,1),%rbp
  40993d:	b8 44 00 00 00       	mov    $0x44,%eax
  409942:	eb 18                	jmp    40995c <_Z7smpInitP8AcpiMadt+0x1dc>
  409944:	0f 1f 40 00          	nopl   0x0(%rax)
  409948:	0f b6 f0             	movzbl %al,%esi
  40994b:	48 8b 07             	mov    (%rdi),%rax
  40994e:	ff 10                	call   *(%rax)
  409950:	0f b6 45 00          	movzbl 0x0(%rbp),%eax
  409954:	84 c0                	test   %al,%al
  409956:	74 0c                	je     409964 <_Z7smpInitP8AcpiMadt+0x1e4>
  409958:	48 83 c5 01          	add    $0x1,%rbp
  40995c:	48 8b 3b             	mov    (%rbx),%rdi
  40995f:	48 85 ff             	test   %rdi,%rdi
  409962:	75 e4                	jne    409948 <_Z7smpInitP8AcpiMadt+0x1c8>
  409964:	48 8b 44 24 20       	mov    0x20(%rsp),%rax
  409969:	bf b8 b8 b8 00       	mov    $0xb8b8b8,%edi
  40996e:	4c 01 f8             	add    %r15,%rax
  409971:	ff d0                	call   *%rax
  409973:	4b 8b 04 3c          	mov    (%r12,%r15,1),%rax
  409977:	48 8b 38             	mov    (%rax),%rdi
  40997a:	48 85 ff             	test   %rdi,%rdi
  40997d:	74 0a                	je     409989 <_Z7smpInitP8AcpiMadt+0x209>
  40997f:	48 8b 07             	mov    (%rdi),%rax
  409982:	be 5d 00 00 00       	mov    $0x5d,%esi
  409987:	ff 10                	call   *(%rax)
  409989:	48 8b 44 24 20       	mov    0x20(%rsp),%rax
  40998e:	bf 60 be 60 00       	mov    $0x60be60,%edi
  409993:	4c 01 f8             	add    %r15,%rax
  409996:	ff d0                	call   *%rax
  409998:	4b 8b 1c 3c          	mov    (%r12,%r15,1),%rbx
  40999c:	48 8b 3b             	mov    (%rbx),%rdi
  40999f:	48 85 ff             	test   %rdi,%rdi
  4099a2:	74 0d                	je     4099b1 <_Z7smpInitP8AcpiMadt+0x231>
  4099a4:	48 8b 07             	mov    (%rdi),%rax
  4099a7:	be 28 00 00 00       	mov    $0x28,%esi
  4099ac:	ff 10                	call   *(%rax)
  4099ae:	48 8b 3b             	mov    (%rbx),%rdi
  4099b1:	48 8b 44 24 68       	mov    0x68(%rsp),%rax
  4099b6:	4a 8b 04 38          	mov    (%rax,%r15,1),%rax
  4099ba:	48 8b 18             	mov    (%rax),%rbx
  4099bd:	0f b6 03             	movzbl (%rbx),%eax
  4099c0:	84 c0                	test   %al,%al
  4099c2:	74 2c                	je     4099f0 <_Z7smpInitP8AcpiMadt+0x270>
  4099c4:	31 ed                	xor    %ebp,%ebp
  4099c6:	66 2e 0f 1f 84 00 00 	cs nopw 0x0(%rax,%rax,1)
  4099cd:	00 00 00 
  4099d0:	48 85 ff             	test   %rdi,%rdi
  4099d3:	74 1b                	je     4099f0 <_Z7smpInitP8AcpiMadt+0x270>
  4099d5:	0f b6 f0             	movzbl %al,%esi
  4099d8:	48 8b 07             	mov    (%rdi),%rax
  4099db:	48 83 c5 01          	add    $0x1,%rbp
  4099df:	ff 10                	call   *(%rax)
  4099e1:	4b 8b 04 3c          	mov    (%r12,%r15,1),%rax
  4099e5:	48 8b 38             	mov    (%rax),%rdi
  4099e8:	0f b6 04 2b          	movzbl (%rbx,%rbp,1),%eax
  4099ec:	84 c0                	test   %al,%al
  4099ee:	75 e0                	jne    4099d0 <_Z7smpInitP8AcpiMadt+0x250>
  4099f0:	48 8b 44 24 60       	mov    0x60(%rsp),%rax
  4099f5:	4a 8d 1c 38          	lea    (%rax,%r15,1),%rbx
  4099f9:	b8 29 00 00 00       	mov    $0x29,%eax
  4099fe:	eb 1b                	jmp    409a1b <_Z7smpInitP8AcpiMadt+0x29b>
  409a00:	0f b6 f0             	movzbl %al,%esi
  409a03:	48 8b 07             	mov    (%rdi),%rax
  409a06:	48 83 c3 01          	add    $0x1,%rbx
  409a0a:	ff 10                	call   *(%rax)
  409a0c:	0f b6 43 ff          	movzbl -0x1(%rbx),%eax
  409a10:	84 c0                	test   %al,%al
  409a12:	74 1c                	je     409a30 <_Z7smpInitP8AcpiMadt+0x2b0>
  409a14:	4b 8b 14 3c          	mov    (%r12,%r15,1),%rdx
  409a18:	48 8b 3a             	mov    (%rdx),%rdi
  409a1b:	48 85 ff             	test   %rdi,%rdi
  409a1e:	75 e0                	jne    409a00 <_Z7smpInitP8AcpiMadt+0x280>
  409a20:	0f b6 03             	movzbl (%rbx),%eax
  409a23:	48 83 c3 01          	add    $0x1,%rbx
  409a27:	84 c0                	test   %al,%al
  409a29:	75 e9                	jne    409a14 <_Z7smpInitP8AcpiMadt+0x294>
  409a2b:	0f 1f 44 00 00       	nopl   0x0(%rax,%rax,1)
  409a30:	48 8b 44 24 20       	mov    0x20(%rsp),%rax
  409a35:	bf b8 b8 b8 00       	mov    $0xb8b8b8,%edi
  409a3a:	bb 66 00 00 00       	mov    $0x66,%ebx
  409a3f:	4c 01 f8             	add    %r15,%rax
  409a42:	ff d0                	call   *%rax
  409a44:	4b 8b 04 3c          	mov    (%r12,%r15,1),%rax
  409a48:	4c 8b 30             	mov    (%rax),%r14
  409a4b:	48 b8 e0 0a 00 00 00 	movabs $0xae0,%rax
  409a52:	00 00 00 
  409a55:	49 8d 2c 07          	lea    (%r15,%rax,1),%rbp
  409a59:	eb 08                	jmp    409a63 <_Z7smpInitP8AcpiMadt+0x2e3>
  409a5b:	0f 1f 44 00 00       	nopl   0x0(%rax,%rax,1)
  409a60:	49 89 fe             	mov    %rdi,%r14
  409a63:	4d 85 f6             	test   %r14,%r14
  409a66:	0f 84 c4 03 00 00    	je     409e30 <_Z7smpInitP8AcpiMadt+0x6b0>
  409a6c:	49 8b 06             	mov    (%r14),%rax
  409a6f:	4c 89 f7             	mov    %r14,%rdi
  409a72:	0f b6 f3             	movzbl %bl,%esi
  409a75:	ff 10                	call   *(%rax)
  409a77:	4b 8b 04 3c          	mov    (%r12,%r15,1),%rax
  409a7b:	48 8b 38             	mov    (%rax),%rdi
  409a7e:	0f b6 5d 01          	movzbl 0x1(%rbp),%ebx
  409a82:	84 db                	test   %bl,%bl
  409a84:	74 2e                	je     409ab4 <_Z7smpInitP8AcpiMadt+0x334>
  409a86:	80 fb 40             	cmp    $0x40,%bl
  409a89:	0f 84 61 03 00 00    	je     409df0 <_Z7smpInitP8AcpiMadt+0x670>
  409a8f:	48 83 c5 01          	add    $0x1,%rbp
  409a93:	4d 85 f6             	test   %r14,%r14
  409a96:	75 c8                	jne    409a60 <_Z7smpInitP8AcpiMadt+0x2e0>
  409a98:	0f b6 45 01          	movzbl 0x1(%rbp),%eax
  409a9c:	84 c0                	test   %al,%al
  409a9e:	74 14                	je     409ab4 <_Z7smpInitP8AcpiMadt+0x334>
  409aa0:	3c 40                	cmp    $0x40,%al
  409aa2:	0f 84 68 03 00 00    	je     409e10 <_Z7smpInitP8AcpiMadt+0x690>
  409aa8:	0f b6 45 02          	movzbl 0x2(%rbp),%eax
  409aac:	48 83 c5 01          	add    $0x1,%rbp
  409ab0:	84 c0                	test   %al,%al
  409ab2:	75 ec                	jne    409aa0 <_Z7smpInitP8AcpiMadt+0x320>
  409ab4:	48 85 ff             	test   %rdi,%rdi
  409ab7:	74 0a                	je     409ac3 <_Z7smpInitP8AcpiMadt+0x343>
  409ab9:	48 8b 07             	mov    (%rdi),%rax
  409abc:	be 0a 00 00 00       	mov    $0xa,%esi
  409ac1:	ff 10                	call   *(%rax)
  409ac3:	48 81 c4 a8 00 00 00 	add    $0xa8,%rsp
  409aca:	48 b8 f0 9d fe ff ff 	movabs $0xfffffffffffe9df0,%rax
  409ad1:	ff ff ff 
  409ad4:	5b                   	pop    %rbx
  409ad5:	4c 01 f8             	add    %r15,%rax
  409ad8:	5d                   	pop    %rbp
  409ad9:	41 5c                	pop    %r12
  409adb:	41 5d                	pop    %r13
  409add:	41 5e                	pop    %r14
  409adf:	41 5f                	pop    %r15
  409ae1:	ff e0                	jmp    *%rax
  409ae3:	0f 1f 44 00 00       	nopl   0x0(%rax,%rax,1)
  409ae8:	48 85 c9             	test   %rcx,%rcx
  409aeb:	0f 84 c7 fd ff ff    	je     4098b8 <_Z7smpInitP8AcpiMadt+0x138>
  409af1:	8b 43 04             	mov    0x4(%rbx),%eax
  409af4:	48 8b 54 24 30       	mov    0x30(%rsp),%rdx
  409af9:	41 89 04 17          	mov    %eax,(%r15,%rdx,1)
  409afd:	e9 f0 fd ff ff       	jmp    4098f2 <_Z7smpInitP8AcpiMadt+0x172>
  409b02:	66 0f 1f 44 00 00    	nopw   0x0(%rax,%rax,1)
  409b08:	f6 43 04 01          	testb  $0x1,0x4(%rbx)
  409b0c:	0f 84 30 02 00 00    	je     409d42 <_Z7smpInitP8AcpiMadt+0x5c2>
  409b12:	48 85 c9             	test   %rcx,%rcx
  409b15:	0f 84 27 02 00 00    	je     409d42 <_Z7smpInitP8AcpiMadt+0x5c2>
  409b1b:	0f b6 43 03          	movzbl 0x3(%rbx),%eax
  409b1f:	45 0f b6 ed          	movzbl %r13b,%r13d
  409b23:	bf b8 b8 b8 00       	mov    $0xb8b8b8,%edi
  409b28:	42 88 04 29          	mov    %al,(%rcx,%r13,1)
  409b2c:	48 8b 44 24 20       	mov    0x20(%rsp),%rax
  409b31:	4c 01 f8             	add    %r15,%rax
  409b34:	ff d0                	call   *%rax
  409b36:	4b 8b 04 3c          	mov    (%r12,%r15,1),%rax
  409b3a:	48 8b 38             	mov    (%rax),%rdi
  409b3d:	48 85 ff             	test   %rdi,%rdi
  409b40:	74 0a                	je     409b4c <_Z7smpInitP8AcpiMadt+0x3cc>
  409b42:	48 8b 07             	mov    (%rdi),%rax
  409b45:	be 5b 00 00 00       	mov    $0x5b,%esi
  409b4a:	ff 10                	call   *(%rax)
  409b4c:	48 8b 44 24 20       	mov    0x20(%rsp),%rax
  409b51:	bf 40 cc 2e 00       	mov    $0x2ecc40,%edi
  409b56:	4c 01 f8             	add    %r15,%rax
  409b59:	ff d0                	call   *%rax
  409b5b:	48 8b 44 24 40       	mov    0x40(%rsp),%rax
  409b60:	4b 8b 14 3c          	mov    (%r12,%r15,1),%rdx
  409b64:	48 89 1c 24          	mov    %rbx,(%rsp)
  409b68:	4d 8d 2c 07          	lea    (%r15,%rax,1),%r13
  409b6c:	b8 49 00 00 00       	mov    $0x49,%eax
  409b71:	4c 89 eb             	mov    %r13,%rbx
  409b74:	49 89 d5             	mov    %rdx,%r13
  409b77:	eb 1a                	jmp    409b93 <_Z7smpInitP8AcpiMadt+0x413>
  409b79:	0f 1f 80 00 00 00 00 	nopl   0x0(%rax)
  409b80:	0f b6 f0             	movzbl %al,%esi
  409b83:	48 8b 07             	mov    (%rdi),%rax
  409b86:	ff 10                	call   *(%rax)
  409b88:	0f b6 03             	movzbl (%rbx),%eax
  409b8b:	84 c0                	test   %al,%al
  409b8d:	74 0d                	je     409b9c <_Z7smpInitP8AcpiMadt+0x41c>
  409b8f:	48 83 c3 01          	add    $0x1,%rbx
  409b93:	49 8b 7d 00          	mov    0x0(%r13),%rdi
  409b97:	48 85 ff             	test   %rdi,%rdi
  409b9a:	75 e4                	jne    409b80 <_Z7smpInitP8AcpiMadt+0x400>
  409b9c:	48 8b 44 24 20       	mov    0x20(%rsp),%rax
  409ba1:	bf b8 b8 b8 00       	mov    $0xb8b8b8,%edi
  409ba6:	48 8b 1c 24          	mov    (%rsp),%rbx
  409baa:	4c 01 f8             	add    %r15,%rax
  409bad:	ff d0                	call   *%rax
  409baf:	4b 8b 04 3c          	mov    (%r12,%r15,1),%rax
  409bb3:	48 8b 38             	mov    (%rax),%rdi
  409bb6:	48 85 ff             	test   %rdi,%rdi
  409bb9:	74 0a                	je     409bc5 <_Z7smpInitP8AcpiMadt+0x445>
  409bbb:	48 8b 07             	mov    (%rdi),%rax
  409bbe:	be 5d 00 00 00       	mov    $0x5d,%esi
  409bc3:	ff 10                	call   *(%rax)
  409bc5:	48 8b 44 24 20       	mov    0x20(%rsp),%rax
  409bca:	bf 60 be 60 00       	mov    $0x60be60,%edi
  409bcf:	4c 01 f8             	add    %r15,%rax
  409bd2:	ff d0                	call   *%rax
  409bd4:	4f 8b 2c 3c          	mov    (%r12,%r15,1),%r13
  409bd8:	49 8b 7d 00          	mov    0x0(%r13),%rdi
  409bdc:	48 85 ff             	test   %rdi,%rdi
  409bdf:	74 0e                	je     409bef <_Z7smpInitP8AcpiMadt+0x46f>
  409be1:	48 8b 07             	mov    (%rdi),%rax
  409be4:	be 28 00 00 00       	mov    $0x28,%esi
  409be9:	ff 10                	call   *(%rax)
  409beb:	49 8b 7d 00          	mov    0x0(%r13),%rdi
  409bef:	48 8b 44 24 68       	mov    0x68(%rsp),%rax
  409bf4:	4a 8b 04 38          	mov    (%rax,%r15,1),%rax
  409bf8:	48 8b 10             	mov    (%rax),%rdx
  409bfb:	0f b6 02             	movzbl (%rdx),%eax
  409bfe:	84 c0                	test   %al,%al
  409c00:	74 34                	je     409c36 <_Z7smpInitP8AcpiMadt+0x4b6>
  409c02:	45 31 ed             	xor    %r13d,%r13d
  409c05:	48 89 1c 24          	mov    %rbx,(%rsp)
  409c09:	4c 89 eb             	mov    %r13,%rbx
  409c0c:	49 89 d5             	mov    %rdx,%r13
  409c0f:	90                   	nop
  409c10:	48 85 ff             	test   %rdi,%rdi
  409c13:	74 1d                	je     409c32 <_Z7smpInitP8AcpiMadt+0x4b2>
  409c15:	0f b6 f0             	movzbl %al,%esi
  409c18:	48 8b 07             	mov    (%rdi),%rax
  409c1b:	48 83 c3 01          	add    $0x1,%rbx
  409c1f:	ff 10                	call   *(%rax)
  409c21:	4b 8b 04 3c          	mov    (%r12,%r15,1),%rax
  409c25:	48 8b 38             	mov    (%rax),%rdi
  409c28:	41 0f b6 44 1d 00    	movzbl 0x0(%r13,%rbx,1),%eax
  409c2e:	84 c0                	test   %al,%al
  409c30:	75 de                	jne    409c10 <_Z7smpInitP8AcpiMadt+0x490>
  409c32:	48 8b 1c 24          	mov    (%rsp),%rbx
  409c36:	48 8b 44 24 60       	mov    0x60(%rsp),%rax
  409c3b:	4e 8d 2c 38          	lea    (%rax,%r15,1),%r13
  409c3f:	b8 29 00 00 00       	mov    $0x29,%eax
  409c44:	eb 26                	jmp    409c6c <_Z7smpInitP8AcpiMadt+0x4ec>
  409c46:	66 2e 0f 1f 84 00 00 	cs nopw 0x0(%rax,%rax,1)
  409c4d:	00 00 00 
  409c50:	0f b6 f0             	movzbl %al,%esi
  409c53:	48 8b 07             	mov    (%rdi),%rax
  409c56:	49 83 c5 01          	add    $0x1,%r13
  409c5a:	ff 10                	call   *(%rax)
  409c5c:	41 0f b6 45 ff       	movzbl -0x1(%r13),%eax
  409c61:	84 c0                	test   %al,%al
  409c63:	74 1b                	je     409c80 <_Z7smpInitP8AcpiMadt+0x500>
  409c65:	4b 8b 14 3c          	mov    (%r12,%r15,1),%rdx
  409c69:	48 8b 3a             	mov    (%rdx),%rdi
  409c6c:	48 85 ff             	test   %rdi,%rdi
  409c6f:	75 df                	jne    409c50 <_Z7smpInitP8AcpiMadt+0x4d0>
  409c71:	41 0f b6 45 00       	movzbl 0x0(%r13),%eax
  409c76:	49 83 c5 01          	add    $0x1,%r13
  409c7a:	84 c0                	test   %al,%al
  409c7c:	75 e7                	jne    409c65 <_Z7smpInitP8AcpiMadt+0x4e5>
  409c7e:	66 90                	xchg   %ax,%ax
  409c80:	48 8b 44 24 20       	mov    0x20(%rsp),%rax
  409c85:	bf b8 b8 b8 00       	mov    $0xb8b8b8,%edi
  409c8a:	4c 01 f8             	add    %r15,%rax
  409c8d:	ff d0                	call   *%rax
  409c8f:	0f b6 43 03          	movzbl 0x3(%rbx),%eax
  409c93:	48 89 2c 24          	mov    %rbp,(%rsp)
  409c97:	bb 6e 00 00 00       	mov    $0x6e,%ebx
  409c9c:	48 ba b8 0a 00 00 00 	movabs $0xab8,%rdx
  409ca3:	00 00 00 
  409ca6:	88 44 24 70          	mov    %al,0x70(%rsp)
  409caa:	4b 8b 04 3c          	mov    (%r12,%r15,1),%rax
  409cae:	49 8d 0c 17          	lea    (%r15,%rdx,1),%rcx
  409cb2:	48 89 cd             	mov    %rcx,%rbp
  409cb5:	48 8b 00             	mov    (%rax),%rax
  409cb8:	49 89 c5             	mov    %rax,%r13
  409cbb:	eb 06                	jmp    409cc3 <_Z7smpInitP8AcpiMadt+0x543>
  409cbd:	0f 1f 00             	nopl   (%rax)
  409cc0:	49 89 fd             	mov    %rdi,%r13
  409cc3:	4d 85 ed             	test   %r13,%r13
  409cc6:	0f 84 fc 00 00 00    	je     409dc8 <_Z7smpInitP8AcpiMadt+0x648>
  409ccc:	49 8b 45 00          	mov    0x0(%r13),%rax
  409cd0:	0f b6 f3             	movzbl %bl,%esi
  409cd3:	4c 89 ef             	mov    %r13,%rdi
  409cd6:	ff 10                	call   *(%rax)
  409cd8:	4b 8b 04 3c          	mov    (%r12,%r15,1),%rax
  409cdc:	0f b6 5d 01          	movzbl 0x1(%rbp),%ebx
  409ce0:	48 8b 38             	mov    (%rax),%rdi
  409ce3:	84 db                	test   %bl,%bl
  409ce5:	0f 84 f5 00 00 00    	je     409de0 <_Z7smpInitP8AcpiMadt+0x660>
  409ceb:	80 fb 40             	cmp    $0x40,%bl
  409cee:	0f 84 94 00 00 00    	je     409d88 <_Z7smpInitP8AcpiMadt+0x608>
  409cf4:	48 83 c5 01          	add    $0x1,%rbp
  409cf8:	4d 85 ed             	test   %r13,%r13
  409cfb:	75 c3                	jne    409cc0 <_Z7smpInitP8AcpiMadt+0x540>
  409cfd:	48 89 e9             	mov    %rbp,%rcx
  409d00:	48 8b 2c 24          	mov    (%rsp),%rbp
  409d04:	0f b6 41 01          	movzbl 0x1(%rcx),%eax
  409d08:	84 c0                	test   %al,%al
  409d0a:	74 14                	je     409d20 <_Z7smpInitP8AcpiMadt+0x5a0>
  409d0c:	3c 40                	cmp    $0x40,%al
  409d0e:	0f 84 94 00 00 00    	je     409da8 <_Z7smpInitP8AcpiMadt+0x628>
  409d14:	0f b6 41 02          	movzbl 0x2(%rcx),%eax
  409d18:	48 83 c1 01          	add    $0x1,%rcx
  409d1c:	84 c0                	test   %al,%al
  409d1e:	75 ec                	jne    409d0c <_Z7smpInitP8AcpiMadt+0x58c>
  409d20:	48 85 ff             	test   %rdi,%rdi
  409d23:	74 0a                	je     409d2f <_Z7smpInitP8AcpiMadt+0x5af>
  409d25:	48 8b 07             	mov    (%rdi),%rax
  409d28:	be 0a 00 00 00       	mov    $0xa,%esi
  409d2d:	ff 10                	call   *(%rax)
  409d2f:	48 8b 44 24 18       	mov    0x18(%rsp),%rax
  409d34:	46 0f b6 2c 38       	movzbl (%rax,%r15,1),%r13d
  409d39:	48 8b 44 24 38       	mov    0x38(%rsp),%rax
  409d3e:	4a 8b 0c 38          	mov    (%rax,%r15,1),%rcx
  409d42:	48 8b 44 24 18       	mov    0x18(%rsp),%rax
  409d47:	41 83 c5 01          	add    $0x1,%r13d
  409d4b:	46 88 2c 38          	mov    %r13b,(%rax,%r15,1)
  409d4f:	45 85 f6             	test   %r14d,%r14d
  409d52:	0f 85 69 fb ff ff    	jne    4098c1 <_Z7smpInitP8AcpiMadt+0x141>
  409d58:	48 85 c9             	test   %rcx,%rcx
  409d5b:	0f 85 96 fb ff ff    	jne    4098f7 <_Z7smpInitP8AcpiMadt+0x177>
  409d61:	48 b8 60 b6 fe ff ff 	movabs $0xfffffffffffeb660,%rax
  409d68:	ff ff ff 
  409d6b:	41 0f b6 fd          	movzbl %r13b,%edi
  409d6f:	4c 01 f8             	add    %r15,%rax
  409d72:	ff d0                	call   *%rax
  409d74:	48 89 c1             	mov    %rax,%rcx
  409d77:	48 8b 44 24 38       	mov    0x38(%rsp),%rax
  409d7c:	4a 89 0c 38          	mov    %rcx,(%rax,%r15,1)
  409d80:	e9 e3 fa ff ff       	jmp    409868 <_Z7smpInitP8AcpiMadt+0xe8>
  409d85:	0f 1f 00             	nopl   (%rax)
  409d88:	0f b6 5d 02          	movzbl 0x2(%rbp),%ebx
  409d8c:	48 8d 45 02          	lea    0x2(%rbp),%rax
  409d90:	80 fb 40             	cmp    $0x40,%bl
  409d93:	0f 85 a7 00 00 00    	jne    409e40 <_Z7smpInitP8AcpiMadt+0x6c0>
  409d99:	48 89 c5             	mov    %rax,%rbp
  409d9c:	e9 57 ff ff ff       	jmp    409cf8 <_Z7smpInitP8AcpiMadt+0x578>
  409da1:	0f 1f 80 00 00 00 00 	nopl   0x0(%rax)
  409da8:	0f b6 59 02          	movzbl 0x2(%rcx),%ebx
  409dac:	4c 8d 69 02          	lea    0x2(%rcx),%r13
  409db0:	80 fb 40             	cmp    $0x40,%bl
  409db3:	0f 85 8e 00 00 00    	jne    409e47 <_Z7smpInitP8AcpiMadt+0x6c7>
  409db9:	4c 89 e9             	mov    %r13,%rcx
  409dbc:	e9 43 ff ff ff       	jmp    409d04 <_Z7smpInitP8AcpiMadt+0x584>
  409dc1:	0f 1f 80 00 00 00 00 	nopl   0x0(%rax)
  409dc8:	0f b6 5d 01          	movzbl 0x1(%rbp),%ebx
  409dcc:	31 ff                	xor    %edi,%edi
  409dce:	84 db                	test   %bl,%bl
  409dd0:	0f 85 15 ff ff ff    	jne    409ceb <_Z7smpInitP8AcpiMadt+0x56b>
  409dd6:	66 2e 0f 1f 84 00 00 	cs nopw 0x0(%rax,%rax,1)
  409ddd:	00 00 00 
  409de0:	48 8b 2c 24          	mov    (%rsp),%rbp
  409de4:	e9 37 ff ff ff       	jmp    409d20 <_Z7smpInitP8AcpiMadt+0x5a0>
  409de9:	0f 1f 80 00 00 00 00 	nopl   0x0(%rax)
  409df0:	0f b6 5d 02          	movzbl 0x2(%rbp),%ebx
  409df4:	48 8d 4d 02          	lea    0x2(%rbp),%rcx
  409df8:	80 fb 40             	cmp    $0x40,%bl
  409dfb:	0f 85 3b 02 00 00    	jne    40a03c <_Z7smpInitP8AcpiMadt+0x8bc>
  409e01:	48 89 cd             	mov    %rcx,%rbp
  409e04:	e9 8a fc ff ff       	jmp    409a93 <_Z7smpInitP8AcpiMadt+0x313>
  409e09:	0f 1f 80 00 00 00 00 	nopl   0x0(%rax)
  409e10:	0f b6 5d 02          	movzbl 0x2(%rbp),%ebx
  409e14:	48 8d 4d 02          	lea    0x2(%rbp),%rcx
  409e18:	80 fb 40             	cmp    $0x40,%bl
  409e1b:	0f 85 1b 02 00 00    	jne    40a03c <_Z7smpInitP8AcpiMadt+0x8bc>
  409e21:	48 89 cd             	mov    %rcx,%rbp
  409e24:	e9 6f fc ff ff       	jmp    409a98 <_Z7smpInitP8AcpiMadt+0x318>
  409e29:	0f 1f 80 00 00 00 00 	nopl   0x0(%rax)
  409e30:	31 ff                	xor    %edi,%edi
  409e32:	e9 47 fc ff ff       	jmp    409a7e <_Z7smpInitP8AcpiMadt+0x2fe>
  409e37:	66 0f 1f 84 00 00 00 	nopw   0x0(%rax,%rax,1)
  409e3e:	00 00 
  409e40:	48 8b 2c 24          	mov    (%rsp),%rbp
  409e44:	49 89 c5             	mov    %rax,%r13
  409e47:	0f b6 44 24 70       	movzbl 0x70(%rsp),%eax
  409e4c:	48 85 c0             	test   %rax,%rax
  409e4f:	0f 84 aa 01 00 00    	je     409fff <_Z7smpInitP8AcpiMadt+0x87f>
  409e55:	48 b9 97 09 00 00 00 	movabs $0x997,%rcx
  409e5c:	00 00 00 
  409e5f:	48 8b 74 24 70       	mov    0x70(%rsp),%rsi
  409e64:	48 c1 e8 04          	shr    $0x4,%rax
  409e68:	31 d2                	xor    %edx,%edx
  409e6a:	4c 01 f9             	add    %r15,%rcx
  409e6d:	c6 84 24 90 00 00 00 	movb   $0x0,0x90(%rsp)
  409e74:	00 
  409e75:	0f b6 04 08          	movzbl (%rax,%rcx,1),%eax
  409e79:	83 e6 0f             	and    $0xf,%esi
  409e7c:	c7 84 24 88 00 00 00 	movl   $0x30303030,0x88(%rsp)
  409e83:	30 30 30 30 
  409e87:	88 c2                	mov    %al,%dl
  409e89:	8a 34 0e             	mov    (%rsi,%rcx,1),%dh
  409e8c:	48 b9 20 0b 00 00 00 	movabs $0xb20,%rcx
  409e93:	00 00 00 
  409e96:	49 8b 0c 0f          	mov    (%r15,%rcx,1),%rcx
  409e9a:	66 89 94 24 8e 00 00 	mov    %dx,0x8e(%rsp)
  409ea1:	00 
  409ea2:	ba 30 30 00 00       	mov    $0x3030,%edx
  409ea7:	66 89 94 24 8c 00 00 	mov    %dx,0x8c(%rsp)
  409eae:	00 
  409eaf:	48 89 8c 24 80 00 00 	mov    %rcx,0x80(%rsp)
  409eb6:	00 
  409eb7:	84 c0                	test   %al,%al
  409eb9:	74 47                	je     409f02 <_Z7smpInitP8AcpiMadt+0x782>
  409ebb:	31 c9                	xor    %ecx,%ecx
  409ebd:	48 8d 94 24 8e 00 00 	lea    0x8e(%rsp),%rdx
  409ec4:	00 
  409ec5:	48 89 2c 24          	mov    %rbp,(%rsp)
  409ec9:	88 5c 24 70          	mov    %bl,0x70(%rsp)
  409ecd:	48 89 d5             	mov    %rdx,%rbp
  409ed0:	48 89 cb             	mov    %rcx,%rbx
  409ed3:	0f 1f 44 00 00       	nopl   0x0(%rax,%rax,1)
  409ed8:	48 85 ff             	test   %rdi,%rdi
  409edb:	74 1c                	je     409ef9 <_Z7smpInitP8AcpiMadt+0x779>
  409edd:	0f b6 f0             	movzbl %al,%esi
  409ee0:	48 8b 07             	mov    (%rdi),%rax
  409ee3:	48 83 c3 01          	add    $0x1,%rbx
  409ee7:	ff 10                	call   *(%rax)
  409ee9:	4b 8b 04 3c          	mov    (%r12,%r15,1),%rax
  409eed:	48 8b 38             	mov    (%rax),%rdi
  409ef0:	0f b6 44 1d 00       	movzbl 0x0(%rbp,%rbx,1),%eax
  409ef5:	84 c0                	test   %al,%al
  409ef7:	75 df                	jne    409ed8 <_Z7smpInitP8AcpiMadt+0x758>
  409ef9:	48 8b 2c 24          	mov    (%rsp),%rbp
  409efd:	0f b6 5c 24 70       	movzbl 0x70(%rsp),%ebx
  409f02:	84 db                	test   %bl,%bl
  409f04:	0f 84 16 fe ff ff    	je     409d20 <_Z7smpInitP8AcpiMadt+0x5a0>
  409f0a:	48 89 6c 24 70       	mov    %rbp,0x70(%rsp)
  409f0f:	4c 89 ed             	mov    %r13,%rbp
  409f12:	41 89 dd             	mov    %ebx,%r13d
  409f15:	44 89 74 24 7c       	mov    %r14d,0x7c(%rsp)
  409f1a:	eb 2a                	jmp    409f46 <_Z7smpInitP8AcpiMadt+0x7c6>
  409f1c:	0f 1f 40 00          	nopl   0x0(%rax)
  409f20:	48 85 ff             	test   %rdi,%rdi
  409f23:	74 46                	je     409f6b <_Z7smpInitP8AcpiMadt+0x7eb>
  409f25:	48 8b 17             	mov    (%rdi),%rdx
  409f28:	41 0f b6 f5          	movzbl %r13b,%esi
  409f2c:	ff 12                	call   *(%rdx)
  409f2e:	4b 8b 14 3c          	mov    (%r12,%r15,1),%rdx
  409f32:	44 0f b6 6d 01       	movzbl 0x1(%rbp),%r13d
  409f37:	48 8b 3a             	mov    (%rdx),%rdi
  409f3a:	45 84 ed             	test   %r13b,%r13b
  409f3d:	0f 84 ad 00 00 00    	je     409ff0 <_Z7smpInitP8AcpiMadt+0x870>
  409f43:	4c 89 f5             	mov    %r14,%rbp
  409f46:	4c 8d 75 01          	lea    0x1(%rbp),%r14
  409f4a:	4c 89 34 24          	mov    %r14,(%rsp)
  409f4e:	41 80 fd 40          	cmp    $0x40,%r13b
  409f52:	75 cc                	jne    409f20 <_Z7smpInitP8AcpiMadt+0x7a0>
  409f54:	44 0f b6 6d 01       	movzbl 0x1(%rbp),%r13d
  409f59:	41 80 fd 40          	cmp    $0x40,%r13b
  409f5d:	75 31                	jne    409f90 <_Z7smpInitP8AcpiMadt+0x810>
  409f5f:	4c 89 f5             	mov    %r14,%rbp
  409f62:	4d 8d 76 01          	lea    0x1(%r14),%r14
  409f66:	48 85 ff             	test   %rdi,%rdi
  409f69:	75 ba                	jne    409f25 <_Z7smpInitP8AcpiMadt+0x7a5>
  409f6b:	48 89 2c 24          	mov    %rbp,(%rsp)
  409f6f:	48 8b 04 24          	mov    (%rsp),%rax
  409f73:	44 0f b6 68 01       	movzbl 0x1(%rax),%r13d
  409f78:	45 84 ed             	test   %r13b,%r13b
  409f7b:	75 61                	jne    409fde <_Z7smpInitP8AcpiMadt+0x85e>
  409f7d:	48 8b 6c 24 70       	mov    0x70(%rsp),%rbp
  409f82:	44 8b 74 24 7c       	mov    0x7c(%rsp),%r14d
  409f87:	e9 a3 fd ff ff       	jmp    409d2f <_Z7smpInitP8AcpiMadt+0x5af>
  409f8c:	0f 1f 40 00          	nopl   0x0(%rax)
  409f90:	31 db                	xor    %ebx,%ebx
  409f92:	ba 3f 00 00 00       	mov    $0x3f,%edx
  409f97:	eb 2e                	jmp    409fc7 <_Z7smpInitP8AcpiMadt+0x847>
  409f99:	0f 1f 80 00 00 00 00 	nopl   0x0(%rax)
  409fa0:	48 8b 07             	mov    (%rdi),%rax
  409fa3:	0f b6 f2             	movzbl %dl,%esi
  409fa6:	48 83 c3 01          	add    $0x1,%rbx
  409faa:	ff 10                	call   *(%rax)
  409fac:	4b 8b 04 3c          	mov    (%r12,%r15,1),%rax
  409fb0:	48 8b 38             	mov    (%rax),%rdi
  409fb3:	48 8b 44 24 50       	mov    0x50(%rsp),%rax
  409fb8:	4c 01 f8             	add    %r15,%rax
  409fbb:	0f b6 14 03          	movzbl (%rbx,%rax,1),%edx
  409fbf:	84 d2                	test   %dl,%dl
  409fc1:	0f 84 c6 05 00 00    	je     40a58d <_Z7smpInitP8AcpiMadt+0xe0d>
  409fc7:	48 85 ff             	test   %rdi,%rdi
  409fca:	75 d4                	jne    409fa0 <_Z7smpInitP8AcpiMadt+0x820>
  409fcc:	48 8b 04 24          	mov    (%rsp),%rax
  409fd0:	4c 8d 75 02          	lea    0x2(%rbp),%r14
  409fd4:	44 0f b6 68 01       	movzbl 0x1(%rax),%r13d
  409fd9:	45 84 ed             	test   %r13b,%r13b
  409fdc:	74 9f                	je     409f7d <_Z7smpInitP8AcpiMadt+0x7fd>
  409fde:	31 ff                	xor    %edi,%edi
  409fe0:	e9 5e ff ff ff       	jmp    409f43 <_Z7smpInitP8AcpiMadt+0x7c3>
  409fe5:	0f 1f 00             	nopl   (%rax)
  409fe8:	45 31 ed             	xor    %r13d,%r13d
  409feb:	e9 68 fd ff ff       	jmp    409d58 <_Z7smpInitP8AcpiMadt+0x5d8>
  409ff0:	48 8b 6c 24 70       	mov    0x70(%rsp),%rbp
  409ff5:	44 8b 74 24 7c       	mov    0x7c(%rsp),%r14d
  409ffa:	e9 21 fd ff ff       	jmp    409d20 <_Z7smpInitP8AcpiMadt+0x5a0>
  409fff:	48 85 ff             	test   %rdi,%rdi
  40a002:	0f 84 6f 01 00 00    	je     40a177 <_Z7smpInitP8AcpiMadt+0x9f7>
  40a008:	48 8b 07             	mov    (%rdi),%rax
  40a00b:	be 30 00 00 00       	mov    $0x30,%esi
  40a010:	ff 10                	call   *(%rax)
  40a012:	4b 8b 14 3c          	mov    (%r12,%r15,1),%rdx
  40a016:	48 8b 3a             	mov    (%rdx),%rdi
  40a019:	48 89 14 24          	mov    %rdx,(%rsp)
  40a01d:	48 85 ff             	test   %rdi,%rdi
  40a020:	0f 84 51 01 00 00    	je     40a177 <_Z7smpInitP8AcpiMadt+0x9f7>
  40a026:	48 8b 07             	mov    (%rdi),%rax
  40a029:	be 30 00 00 00       	mov    $0x30,%esi
  40a02e:	ff 10                	call   *(%rax)
  40a030:	48 8b 14 24          	mov    (%rsp),%rdx
  40a034:	48 8b 3a             	mov    (%rdx),%rdi
  40a037:	e9 c6 fe ff ff       	jmp    409f02 <_Z7smpInitP8AcpiMadt+0x782>
  40a03c:	45 0f b6 ed          	movzbl %r13b,%r13d
  40a040:	49 83 fd 09          	cmp    $0x9,%r13
  40a044:	0f 8f bf 00 00 00    	jg     40a109 <_Z7smpInitP8AcpiMadt+0x989>
  40a04a:	48 ba cd cc cc cc cc 	movabs $0xcccccccccccccccd,%rdx
  40a051:	cc cc cc 
  40a054:	4c 89 e8             	mov    %r13,%rax
  40a057:	48 f7 e2             	mul    %rdx
  40a05a:	48 c1 ea 03          	shr    $0x3,%rdx
  40a05e:	48 8d 04 92          	lea    (%rdx,%rdx,4),%rax
  40a062:	48 01 c0             	add    %rax,%rax
  40a065:	49 29 c5             	sub    %rax,%r13
  40a068:	41 8d 75 30          	lea    0x30(%r13),%esi
  40a06c:	48 85 ff             	test   %rdi,%rdi
  40a06f:	0f 84 32 04 00 00    	je     40a4a7 <_Z7smpInitP8AcpiMadt+0xd27>
  40a075:	48 8b 07             	mov    (%rdi),%rax
  40a078:	48 89 0c 24          	mov    %rcx,(%rsp)
  40a07c:	40 0f b6 f6          	movzbl %sil,%esi
  40a080:	ff 10                	call   *(%rax)
  40a082:	84 db                	test   %bl,%bl
  40a084:	48 8b 0c 24          	mov    (%rsp),%rcx
  40a088:	48 b8 ec f7 ff ff ff 	movabs $0xfffffffffffff7ec,%rax
  40a08f:	ff ff ff 
  40a092:	41 8b 2c 07          	mov    (%r15,%rax,1),%ebp
  40a096:	0f 84 d9 04 00 00    	je     40a575 <_Z7smpInitP8AcpiMadt+0xdf5>
  40a09c:	4b 8b 04 3c          	mov    (%r12,%r15,1),%rax
  40a0a0:	49 89 ce             	mov    %rcx,%r14
  40a0a3:	48 8b 38             	mov    (%rax),%rdi
  40a0a6:	eb 30                	jmp    40a0d8 <_Z7smpInitP8AcpiMadt+0x958>
  40a0a8:	0f 1f 84 00 00 00 00 	nopl   0x0(%rax,%rax,1)
  40a0af:	00 
  40a0b0:	4d 8d 6e 01          	lea    0x1(%r14),%r13
  40a0b4:	48 85 ff             	test   %rdi,%rdi
  40a0b7:	74 42                	je     40a0fb <_Z7smpInitP8AcpiMadt+0x97b>
  40a0b9:	48 8b 07             	mov    (%rdi),%rax
  40a0bc:	0f b6 f3             	movzbl %bl,%esi
  40a0bf:	ff 10                	call   *(%rax)
  40a0c1:	4b 8b 04 3c          	mov    (%r12,%r15,1),%rax
  40a0c5:	41 0f b6 5e 01       	movzbl 0x1(%r14),%ebx
  40a0ca:	48 8b 38             	mov    (%rax),%rdi
  40a0cd:	84 db                	test   %bl,%bl
  40a0cf:	0f 84 df f9 ff ff    	je     409ab4 <_Z7smpInitP8AcpiMadt+0x334>
  40a0d5:	4d 89 ee             	mov    %r13,%r14
  40a0d8:	80 fb 40             	cmp    $0x40,%bl
  40a0db:	75 d3                	jne    40a0b0 <_Z7smpInitP8AcpiMadt+0x930>
  40a0dd:	41 0f b6 5e 01       	movzbl 0x1(%r14),%ebx
  40a0e2:	4d 8d 6e 01          	lea    0x1(%r14),%r13
  40a0e6:	80 fb 40             	cmp    $0x40,%bl
  40a0e9:	0f 85 97 00 00 00    	jne    40a186 <_Z7smpInitP8AcpiMadt+0xa06>
  40a0ef:	4d 89 ee             	mov    %r13,%r14
  40a0f2:	4d 8d 6e 01          	lea    0x1(%r14),%r13
  40a0f6:	48 85 ff             	test   %rdi,%rdi
  40a0f9:	75 be                	jne    40a0b9 <_Z7smpInitP8AcpiMadt+0x939>
  40a0fb:	41 0f b6 5e 01       	movzbl 0x1(%r14),%ebx
  40a100:	84 db                	test   %bl,%bl
  40a102:	75 d1                	jne    40a0d5 <_Z7smpInitP8AcpiMadt+0x955>
  40a104:	e9 ba f9 ff ff       	jmp    409ac3 <_Z7smpInitP8AcpiMadt+0x343>
  40a109:	48 be cd cc cc cc cc 	movabs $0xcccccccccccccccd,%rsi
  40a110:	cc cc cc 
  40a113:	4c 89 e8             	mov    %r13,%rax
  40a116:	48 f7 e6             	mul    %rsi
  40a119:	48 c1 ea 03          	shr    $0x3,%rdx
  40a11d:	48 89 d5             	mov    %rdx,%rbp
  40a120:	49 83 fd 63          	cmp    $0x63,%r13
  40a124:	0f 8f c7 03 00 00    	jg     40a4f1 <_Z7smpInitP8AcpiMadt+0xd71>
  40a12a:	48 ba cd cc cc cc cc 	movabs $0xcccccccccccccccd,%rdx
  40a131:	cc cc cc 
  40a134:	48 89 e8             	mov    %rbp,%rax
  40a137:	48 89 ee             	mov    %rbp,%rsi
  40a13a:	48 f7 e2             	mul    %rdx
  40a13d:	48 89 d0             	mov    %rdx,%rax
  40a140:	48 c1 e8 03          	shr    $0x3,%rax
  40a144:	48 8d 04 80          	lea    (%rax,%rax,4),%rax
  40a148:	48 01 c0             	add    %rax,%rax
  40a14b:	48 29 c6             	sub    %rax,%rsi
  40a14e:	83 c6 30             	add    $0x30,%esi
  40a151:	48 85 ff             	test   %rdi,%rdi
  40a154:	0f 84 4d 03 00 00    	je     40a4a7 <_Z7smpInitP8AcpiMadt+0xd27>
  40a15a:	48 8b 07             	mov    (%rdi),%rax
  40a15d:	48 89 0c 24          	mov    %rcx,(%rsp)
  40a161:	40 0f b6 f6          	movzbl %sil,%esi
  40a165:	ff 10                	call   *(%rax)
  40a167:	4b 8b 04 3c          	mov    (%r12,%r15,1),%rax
  40a16b:	48 8b 0c 24          	mov    (%rsp),%rcx
  40a16f:	48 8b 38             	mov    (%rax),%rdi
  40a172:	e9 d3 fe ff ff       	jmp    40a04a <_Z7smpInitP8AcpiMadt+0x8ca>
  40a177:	31 ff                	xor    %edi,%edi
  40a179:	84 db                	test   %bl,%bl
  40a17b:	0f 85 89 fd ff ff    	jne    409f0a <_Z7smpInitP8AcpiMadt+0x78a>
  40a181:	e9 a9 fb ff ff       	jmp    409d2f <_Z7smpInitP8AcpiMadt+0x5af>
  40a186:	41 89 ee             	mov    %ebp,%r14d
  40a189:	4d 85 f6             	test   %r14,%r14
  40a18c:	0f 84 da 02 00 00    	je     40a46c <_Z7smpInitP8AcpiMadt+0xcec>
  40a192:	4c 89 f0             	mov    %r14,%rax
  40a195:	83 e5 0f             	and    $0xf,%ebp
  40a198:	4d 89 f3             	mov    %r14,%r11
  40a19b:	4c 89 f6             	mov    %r14,%rsi
  40a19e:	48 c1 e8 1c          	shr    $0x1c,%rax
  40a1a2:	4d 89 f0             	mov    %r14,%r8
  40a1a5:	4d 89 f1             	mov    %r14,%r9
  40a1a8:	4d 89 f2             	mov    %r14,%r10
  40a1ab:	49 c1 eb 08          	shr    $0x8,%r11
  40a1af:	49 c1 ea 0c          	shr    $0xc,%r10
  40a1b3:	c6 84 24 90 00 00 00 	movb   $0x0,0x90(%rsp)
  40a1ba:	00 
  40a1bb:	48 b9 97 09 00 00 00 	movabs $0x997,%rcx
  40a1c2:	00 00 00 
  40a1c5:	4c 01 f9             	add    %r15,%rcx
  40a1c8:	41 83 e3 0f          	and    $0xf,%r11d
  40a1cc:	41 83 e2 0f          	and    $0xf,%r10d
  40a1d0:	49 c1 e9 10          	shr    $0x10,%r9
  40a1d4:	0f b6 14 08          	movzbl (%rax,%rcx,1),%edx
  40a1d8:	4c 89 f0             	mov    %r14,%rax
  40a1db:	41 83 e1 0f          	and    $0xf,%r9d
  40a1df:	49 c1 e8 14          	shr    $0x14,%r8
  40a1e3:	0f b6 6c 0d 00       	movzbl 0x0(%rbp,%rcx,1),%ebp
  40a1e8:	48 c1 e8 04          	shr    $0x4,%rax
  40a1ec:	45 0f b6 1c 0b       	movzbl (%r11,%rcx,1),%r11d
  40a1f1:	41 83 e0 0f          	and    $0xf,%r8d
  40a1f5:	83 e0 0f             	and    $0xf,%eax
  40a1f8:	45 0f b6 14 0a       	movzbl (%r10,%rcx,1),%r10d
  40a1fd:	45 0f b6 0c 09       	movzbl (%r9,%rcx,1),%r9d
  40a202:	48 c1 ee 18          	shr    $0x18,%rsi
  40a206:	44 0f b6 34 08       	movzbl (%rax,%rcx,1),%r14d
  40a20b:	48 89 e8             	mov    %rbp,%rax
  40a20e:	45 0f b6 04 08       	movzbl (%r8,%rcx,1),%r8d
  40a213:	83 e6 0f             	and    $0xf,%esi
  40a216:	48 c1 e0 08          	shl    $0x8,%rax
  40a21a:	0f b6 0c 0e          	movzbl (%rsi,%rcx,1),%ecx
  40a21e:	48 be 30 30 30 30 30 	movabs $0x3030303030303030,%rsi
  40a225:	30 30 30 
  40a228:	4c 09 f0             	or     %r14,%rax
  40a22b:	48 89 34 24          	mov    %rsi,(%rsp)
  40a22f:	48 c1 e0 08          	shl    $0x8,%rax
  40a233:	4c 09 d8             	or     %r11,%rax
  40a236:	48 c1 e0 08          	shl    $0x8,%rax
  40a23a:	4c 09 d0             	or     %r10,%rax
  40a23d:	48 c1 e0 08          	shl    $0x8,%rax
  40a241:	4c 09 c8             	or     %r9,%rax
  40a244:	48 c1 e0 08          	shl    $0x8,%rax
  40a248:	4c 09 c0             	or     %r8,%rax
  40a24b:	48 c1 e0 08          	shl    $0x8,%rax
  40a24f:	48 09 c8             	or     %rcx,%rax
  40a252:	0f b6 ca             	movzbl %dl,%ecx
  40a255:	48 c1 e0 08          	shl    $0x8,%rax
  40a259:	48 09 c8             	or     %rcx,%rax
  40a25c:	48 89 44 24 08       	mov    %rax,0x8(%rsp)
  40a261:	66 0f 6f 04 24       	movdqa (%rsp),%xmm0
  40a266:	0f 29 84 24 80 00 00 	movaps %xmm0,0x80(%rsp)
  40a26d:	00 
  40a26e:	84 d2                	test   %dl,%dl
  40a270:	74 2d                	je     40a29f <_Z7smpInitP8AcpiMadt+0xb1f>
  40a272:	45 31 f6             	xor    %r14d,%r14d
  40a275:	48 8d ac 24 88 00 00 	lea    0x88(%rsp),%rbp
  40a27c:	00 
  40a27d:	48 85 ff             	test   %rdi,%rdi
  40a280:	74 1d                	je     40a29f <_Z7smpInitP8AcpiMadt+0xb1f>
  40a282:	48 8b 07             	mov    (%rdi),%rax
  40a285:	49 83 c6 01          	add    $0x1,%r14
  40a289:	0f b6 f2             	movzbl %dl,%esi
  40a28c:	ff 10                	call   *(%rax)
  40a28e:	4b 8b 04 3c          	mov    (%r12,%r15,1),%rax
  40a292:	42 0f b6 54 35 00    	movzbl 0x0(%rbp,%r14,1),%edx
  40a298:	48 8b 38             	mov    (%rax),%rdi
  40a29b:	84 d2                	test   %dl,%dl
  40a29d:	75 de                	jne    40a27d <_Z7smpInitP8AcpiMadt+0xafd>
  40a29f:	48 8b 44 24 28       	mov    0x28(%rsp),%rax
  40a2a4:	42 8b 2c 38          	mov    (%rax,%r15,1),%ebp
  40a2a8:	84 db                	test   %bl,%bl
  40a2aa:	75 0f                	jne    40a2bb <_Z7smpInitP8AcpiMadt+0xb3b>
  40a2ac:	e9 03 f8 ff ff       	jmp    409ab4 <_Z7smpInitP8AcpiMadt+0x334>
  40a2b1:	0f 1f 80 00 00 00 00 	nopl   0x0(%rax)
  40a2b8:	4d 89 f5             	mov    %r14,%r13
  40a2bb:	4d 8d 75 01          	lea    0x1(%r13),%r14
  40a2bf:	48 85 ff             	test   %rdi,%rdi
  40a2c2:	0f 84 cd 01 00 00    	je     40a495 <_Z7smpInitP8AcpiMadt+0xd15>
  40a2c8:	48 8b 07             	mov    (%rdi),%rax
  40a2cb:	0f b6 f3             	movzbl %bl,%esi
  40a2ce:	ff 10                	call   *(%rax)
  40a2d0:	4b 8b 04 3c          	mov    (%r12,%r15,1),%rax
  40a2d4:	41 0f b6 5d 01       	movzbl 0x1(%r13),%ebx
  40a2d9:	48 8b 38             	mov    (%rax),%rdi
  40a2dc:	84 db                	test   %bl,%bl
  40a2de:	0f 84 d0 f7 ff ff    	je     409ab4 <_Z7smpInitP8AcpiMadt+0x334>
  40a2e4:	80 fb 40             	cmp    $0x40,%bl
  40a2e7:	75 cf                	jne    40a2b8 <_Z7smpInitP8AcpiMadt+0xb38>
  40a2e9:	41 0f b6 5d 02       	movzbl 0x2(%r13),%ebx
  40a2ee:	4d 8d 75 02          	lea    0x2(%r13),%r14
  40a2f2:	80 fb 40             	cmp    $0x40,%bl
  40a2f5:	74 c1                	je     40a2b8 <_Z7smpInitP8AcpiMadt+0xb38>
  40a2f7:	41 89 ed             	mov    %ebp,%r13d
  40a2fa:	4d 85 ed             	test   %r13,%r13
  40a2fd:	0f 84 c5 01 00 00    	je     40a4c8 <_Z7smpInitP8AcpiMadt+0xd48>
  40a303:	4c 89 e8             	mov    %r13,%rax
  40a306:	4c 89 ee             	mov    %r13,%rsi
  40a309:	4d 89 e8             	mov    %r13,%r8
  40a30c:	4d 89 e9             	mov    %r13,%r9
  40a30f:	48 c1 e8 1c          	shr    $0x1c,%rax
  40a313:	4d 89 ea             	mov    %r13,%r10
  40a316:	4d 89 eb             	mov    %r13,%r11
  40a319:	83 e5 0f             	and    $0xf,%ebp
  40a31c:	49 c1 ed 04          	shr    $0x4,%r13
  40a320:	49 c1 eb 08          	shr    $0x8,%r11
  40a324:	c6 84 24 90 00 00 00 	movb   $0x0,0x90(%rsp)
  40a32b:	00 
  40a32c:	48 b9 97 09 00 00 00 	movabs $0x997,%rcx
  40a333:	00 00 00 
  40a336:	4c 01 f9             	add    %r15,%rcx
  40a339:	41 83 e5 0f          	and    $0xf,%r13d
  40a33d:	41 83 e3 0f          	and    $0xf,%r11d
  40a341:	49 c1 ea 0c          	shr    $0xc,%r10
  40a345:	0f b6 14 08          	movzbl (%rax,%rcx,1),%edx
  40a349:	49 c1 e9 10          	shr    $0x10,%r9
  40a34d:	41 83 e2 0f          	and    $0xf,%r10d
  40a351:	49 c1 e8 14          	shr    $0x14,%r8
  40a355:	0f b6 44 0d 00       	movzbl 0x0(%rbp,%rcx,1),%eax
  40a35a:	41 83 e1 0f          	and    $0xf,%r9d
  40a35e:	41 83 e0 0f          	and    $0xf,%r8d
  40a362:	48 c1 ee 18          	shr    $0x18,%rsi
  40a366:	41 0f b6 6c 0d 00    	movzbl 0x0(%r13,%rcx,1),%ebp
  40a36c:	45 0f b6 1c 0b       	movzbl (%r11,%rcx,1),%r11d
  40a371:	83 e6 0f             	and    $0xf,%esi
  40a374:	48 c1 e0 08          	shl    $0x8,%rax
  40a378:	45 0f b6 14 0a       	movzbl (%r10,%rcx,1),%r10d
  40a37d:	45 0f b6 0c 09       	movzbl (%r9,%rcx,1),%r9d
  40a382:	48 09 e8             	or     %rbp,%rax
  40a385:	45 0f b6 04 08       	movzbl (%r8,%rcx,1),%r8d
  40a38a:	0f b6 0c 0e          	movzbl (%rsi,%rcx,1),%ecx
  40a38e:	48 be 30 30 30 30 30 	movabs $0x3030303030303030,%rsi
  40a395:	30 30 30 
  40a398:	48 c1 e0 08          	shl    $0x8,%rax
  40a39c:	48 89 34 24          	mov    %rsi,(%rsp)
  40a3a0:	4c 09 d8             	or     %r11,%rax
  40a3a3:	48 c1 e0 08          	shl    $0x8,%rax
  40a3a7:	4c 09 d0             	or     %r10,%rax
  40a3aa:	48 c1 e0 08          	shl    $0x8,%rax
  40a3ae:	4c 09 c8             	or     %r9,%rax
  40a3b1:	48 c1 e0 08          	shl    $0x8,%rax
  40a3b5:	4c 09 c0             	or     %r8,%rax
  40a3b8:	48 c1 e0 08          	shl    $0x8,%rax
  40a3bc:	48 09 c8             	or     %rcx,%rax
  40a3bf:	0f b6 ca             	movzbl %dl,%ecx
  40a3c2:	48 c1 e0 08          	shl    $0x8,%rax
  40a3c6:	48 09 c8             	or     %rcx,%rax
  40a3c9:	48 89 44 24 08       	mov    %rax,0x8(%rsp)
  40a3ce:	66 0f 6f 0c 24       	movdqa (%rsp),%xmm1
  40a3d3:	0f 29 8c 24 80 00 00 	movaps %xmm1,0x80(%rsp)
  40a3da:	00 
  40a3db:	84 d2                	test   %dl,%dl
  40a3dd:	74 2e                	je     40a40d <_Z7smpInitP8AcpiMadt+0xc8d>
  40a3df:	31 ed                	xor    %ebp,%ebp
  40a3e1:	4c 8d ac 24 88 00 00 	lea    0x88(%rsp),%r13
  40a3e8:	00 
  40a3e9:	eb 1d                	jmp    40a408 <_Z7smpInitP8AcpiMadt+0xc88>
  40a3eb:	48 8b 07             	mov    (%rdi),%rax
  40a3ee:	48 83 c5 01          	add    $0x1,%rbp
  40a3f2:	0f b6 f2             	movzbl %dl,%esi
  40a3f5:	ff 10                	call   *(%rax)
  40a3f7:	4b 8b 04 3c          	mov    (%r12,%r15,1),%rax
  40a3fb:	41 0f b6 54 2d 00    	movzbl 0x0(%r13,%rbp,1),%edx
  40a401:	48 8b 38             	mov    (%rax),%rdi
  40a404:	84 d2                	test   %dl,%dl
  40a406:	74 05                	je     40a40d <_Z7smpInitP8AcpiMadt+0xc8d>
  40a408:	48 85 ff             	test   %rdi,%rdi
  40a40b:	75 de                	jne    40a3eb <_Z7smpInitP8AcpiMadt+0xc6b>
  40a40d:	84 db                	test   %bl,%bl
  40a40f:	0f 84 9f f6 ff ff    	je     409ab4 <_Z7smpInitP8AcpiMadt+0x334>
  40a415:	48 bd 6f 09 00 00 00 	movabs $0x96f,%rbp
  40a41c:	00 00 00 
  40a41f:	eb 2b                	jmp    40a44c <_Z7smpInitP8AcpiMadt+0xccc>
  40a421:	49 89 d5             	mov    %rdx,%r13
  40a424:	48 85 ff             	test   %rdi,%rdi
  40a427:	0f 84 34 01 00 00    	je     40a561 <_Z7smpInitP8AcpiMadt+0xde1>
  40a42d:	48 8b 07             	mov    (%rdi),%rax
  40a430:	0f b6 f3             	movzbl %bl,%esi
  40a433:	ff 10                	call   *(%rax)
  40a435:	4b 8b 04 3c          	mov    (%r12,%r15,1),%rax
  40a439:	41 0f b6 5e 01       	movzbl 0x1(%r14),%ebx
  40a43e:	48 8b 38             	mov    (%rax),%rdi
  40a441:	84 db                	test   %bl,%bl
  40a443:	0f 84 6b f6 ff ff    	je     409ab4 <_Z7smpInitP8AcpiMadt+0x334>
  40a449:	4d 89 ee             	mov    %r13,%r14
  40a44c:	49 8d 56 01          	lea    0x1(%r14),%rdx
  40a450:	80 fb 40             	cmp    $0x40,%bl
  40a453:	75 cc                	jne    40a421 <_Z7smpInitP8AcpiMadt+0xca1>
  40a455:	41 0f b6 5e 01       	movzbl 0x1(%r14),%ebx
  40a45a:	80 fb 40             	cmp    $0x40,%bl
  40a45d:	0f 85 bf 00 00 00    	jne    40a522 <_Z7smpInitP8AcpiMadt+0xda2>
  40a463:	49 89 d6             	mov    %rdx,%r14
  40a466:	48 8d 52 01          	lea    0x1(%rdx),%rdx
  40a46a:	eb b5                	jmp    40a421 <_Z7smpInitP8AcpiMadt+0xca1>
  40a46c:	48 85 ff             	test   %rdi,%rdi
  40a46f:	0f 84 2a fe ff ff    	je     40a29f <_Z7smpInitP8AcpiMadt+0xb1f>
  40a475:	48 8b 07             	mov    (%rdi),%rax
  40a478:	be 30 00 00 00       	mov    $0x30,%esi
  40a47d:	49 83 c6 01          	add    $0x1,%r14
  40a481:	ff 10                	call   *(%rax)
  40a483:	4b 8b 04 3c          	mov    (%r12,%r15,1),%rax
  40a487:	48 8b 38             	mov    (%rax),%rdi
  40a48a:	49 83 fe 08          	cmp    $0x8,%r14
  40a48e:	75 dc                	jne    40a46c <_Z7smpInitP8AcpiMadt+0xcec>
  40a490:	e9 0a fe ff ff       	jmp    40a29f <_Z7smpInitP8AcpiMadt+0xb1f>
  40a495:	41 0f b6 5d 01       	movzbl 0x1(%r13),%ebx
  40a49a:	84 db                	test   %bl,%bl
  40a49c:	0f 85 42 fe ff ff    	jne    40a2e4 <_Z7smpInitP8AcpiMadt+0xb64>
  40a4a2:	e9 1c f6 ff ff       	jmp    409ac3 <_Z7smpInitP8AcpiMadt+0x343>
  40a4a7:	48 b8 ec f7 ff ff ff 	movabs $0xfffffffffffff7ec,%rax
  40a4ae:	ff ff ff 
  40a4b1:	41 8b 2c 07          	mov    (%r15,%rax,1),%ebp
  40a4b5:	84 db                	test   %bl,%bl
  40a4b7:	0f 85 df fb ff ff    	jne    40a09c <_Z7smpInitP8AcpiMadt+0x91c>
  40a4bd:	e9 01 f6 ff ff       	jmp    409ac3 <_Z7smpInitP8AcpiMadt+0x343>
  40a4c2:	66 0f 1f 44 00 00    	nopw   0x0(%rax,%rax,1)
  40a4c8:	48 85 ff             	test   %rdi,%rdi
  40a4cb:	0f 84 3c ff ff ff    	je     40a40d <_Z7smpInitP8AcpiMadt+0xc8d>
  40a4d1:	48 8b 07             	mov    (%rdi),%rax
  40a4d4:	be 30 00 00 00       	mov    $0x30,%esi
  40a4d9:	49 83 c5 01          	add    $0x1,%r13
  40a4dd:	ff 10                	call   *(%rax)
  40a4df:	4b 8b 04 3c          	mov    (%r12,%r15,1),%rax
  40a4e3:	48 8b 38             	mov    (%rax),%rdi
  40a4e6:	49 83 fd 08          	cmp    $0x8,%r13
  40a4ea:	75 dc                	jne    40a4c8 <_Z7smpInitP8AcpiMadt+0xd48>
  40a4ec:	e9 1c ff ff ff       	jmp    40a40d <_Z7smpInitP8AcpiMadt+0xc8d>
  40a4f1:	48 89 d0             	mov    %rdx,%rax
  40a4f4:	48 f7 e6             	mul    %rsi
  40a4f7:	48 89 d0             	mov    %rdx,%rax
  40a4fa:	48 c1 e8 03          	shr    $0x3,%rax
  40a4fe:	83 c0 30             	add    $0x30,%eax
  40a501:	48 85 ff             	test   %rdi,%rdi
  40a504:	74 a1                	je     40a4a7 <_Z7smpInitP8AcpiMadt+0xd27>
  40a506:	0f b6 f0             	movzbl %al,%esi
  40a509:	48 8b 07             	mov    (%rdi),%rax
  40a50c:	48 89 0c 24          	mov    %rcx,(%rsp)
  40a510:	ff 10                	call   *(%rax)
  40a512:	4b 8b 04 3c          	mov    (%r12,%r15,1),%rax
  40a516:	48 8b 0c 24          	mov    (%rsp),%rcx
  40a51a:	48 8b 38             	mov    (%rax),%rdi
  40a51d:	e9 08 fc ff ff       	jmp    40a12a <_Z7smpInitP8AcpiMadt+0x9aa>
  40a522:	45 31 ed             	xor    %r13d,%r13d
  40a525:	b8 3f 00 00 00       	mov    $0x3f,%eax
  40a52a:	eb 29                	jmp    40a555 <_Z7smpInitP8AcpiMadt+0xdd5>
  40a52c:	0f b6 f0             	movzbl %al,%esi
  40a52f:	48 8b 07             	mov    (%rdi),%rax
  40a532:	48 89 14 24          	mov    %rdx,(%rsp)
  40a536:	49 83 c5 01          	add    $0x1,%r13
  40a53a:	ff 10                	call   *(%rax)
  40a53c:	4b 8b 04 3c          	mov    (%r12,%r15,1),%rax
  40a540:	48 8b 14 24          	mov    (%rsp),%rdx
  40a544:	48 8b 38             	mov    (%rax),%rdi
  40a547:	49 8d 04 2f          	lea    (%r15,%rbp,1),%rax
  40a54b:	41 0f b6 44 05 00    	movzbl 0x0(%r13,%rax,1),%eax
  40a551:	84 c0                	test   %al,%al
  40a553:	74 2c                	je     40a581 <_Z7smpInitP8AcpiMadt+0xe01>
  40a555:	48 85 ff             	test   %rdi,%rdi
  40a558:	75 d2                	jne    40a52c <_Z7smpInitP8AcpiMadt+0xdac>
  40a55a:	4d 8d 6e 02          	lea    0x2(%r14),%r13
  40a55e:	49 89 d6             	mov    %rdx,%r14
  40a561:	41 0f b6 5e 01       	movzbl 0x1(%r14),%ebx
  40a566:	84 db                	test   %bl,%bl
  40a568:	0f 84 55 f5 ff ff    	je     409ac3 <_Z7smpInitP8AcpiMadt+0x343>
  40a56e:	31 ff                	xor    %edi,%edi
  40a570:	e9 d4 fe ff ff       	jmp    40a449 <_Z7smpInitP8AcpiMadt+0xcc9>
  40a575:	4b 8b 04 3c          	mov    (%r12,%r15,1),%rax
  40a579:	48 8b 38             	mov    (%rax),%rdi
  40a57c:	e9 33 f5 ff ff       	jmp    409ab4 <_Z7smpInitP8AcpiMadt+0x334>
  40a581:	49 89 d6             	mov    %rdx,%r14
  40a584:	48 83 c2 01          	add    $0x1,%rdx
  40a588:	e9 94 fe ff ff       	jmp    40a421 <_Z7smpInitP8AcpiMadt+0xca1>
  40a58d:	4c 89 f5             	mov    %r14,%rbp
  40a590:	49 83 c6 01          	add    $0x1,%r14
  40a594:	e9 87 f9 ff ff       	jmp    409f20 <_Z7smpInitP8AcpiMadt+0x7a0>

Disassembly of section .text._ZN4EXOS5Utils18SimpleOutputStream5writeEh:

000000000040a5a0 <_ZN4EXOS5Utils18SimpleOutputStream5writeEh>:
  40a5a0:	f3 0f 1e fa          	endbr64 
  40a5a4:	49 89 f8             	mov    %rdi,%r8
  40a5a7:	40 0f b6 fe          	movzbl %sil,%edi
  40a5ab:	41 ff 60 08          	jmp    *0x8(%r8)

Disassembly of section .text._ZN4EXOS5Utils18SimpleOutputStream5writeEPKvm:

000000000040a5b0 <_ZN4EXOS5Utils18SimpleOutputStream5writeEPKvm>:
  40a5b0:	f3 0f 1e fa          	endbr64 
  40a5b4:	48 85 d2             	test   %rdx,%rdx
  40a5b7:	74 37                	je     40a5f0 <_ZN4EXOS5Utils18SimpleOutputStream5writeEPKvm+0x40>
  40a5b9:	41 54                	push   %r12
  40a5bb:	49 89 fc             	mov    %rdi,%r12
  40a5be:	55                   	push   %rbp
  40a5bf:	48 8d 2c 16          	lea    (%rsi,%rdx,1),%rbp
  40a5c3:	53                   	push   %rbx
  40a5c4:	48 89 f3             	mov    %rsi,%rbx
  40a5c7:	66 0f 1f 84 00 00 00 	nopw   0x0(%rax,%rax,1)
  40a5ce:	00 00 
  40a5d0:	0f b6 3b             	movzbl (%rbx),%edi
  40a5d3:	48 83 c3 01          	add    $0x1,%rbx
  40a5d7:	41 ff 54 24 08       	call   *0x8(%r12)
  40a5dc:	48 39 eb             	cmp    %rbp,%rbx
  40a5df:	75 ef                	jne    40a5d0 <_ZN4EXOS5Utils18SimpleOutputStream5writeEPKvm+0x20>
  40a5e1:	5b                   	pop    %rbx
  40a5e2:	5d                   	pop    %rbp
  40a5e3:	41 5c                	pop    %r12
  40a5e5:	c3                   	ret    
  40a5e6:	66 2e 0f 1f 84 00 00 	cs nopw 0x0(%rax,%rax,1)
  40a5ed:	00 00 00 
  40a5f0:	c3                   	ret    
