
build/kernel.sys：     文件格式 elf64-x86-64


Disassembly of section .text:

0000000000401000 <_text>:
  401000:	6a 00                	push   $0x0
  401002:	6a 00                	push   $0x0
  401004:	ff 25 d0 00 00 00    	jmp    *0xd0(%rip)        # 4010da <_handleIntr>

000000000040100a <interruptEntry01>:
  40100a:	6a 00                	push   $0x0
  40100c:	6a 01                	push   $0x1
  40100e:	ff 25 c6 00 00 00    	jmp    *0xc6(%rip)        # 4010da <_handleIntr>

0000000000401014 <interruptEntry03>:
  401014:	6a 00                	push   $0x0
  401016:	6a 03                	push   $0x3
  401018:	ff 25 bc 00 00 00    	jmp    *0xbc(%rip)        # 4010da <_handleIntr>

000000000040101e <interruptEntry04>:
  40101e:	6a 00                	push   $0x0
  401020:	6a 04                	push   $0x4
  401022:	ff 25 b2 00 00 00    	jmp    *0xb2(%rip)        # 4010da <_handleIntr>

0000000000401028 <interruptEntry05>:
  401028:	6a 00                	push   $0x0
  40102a:	6a 05                	push   $0x5
  40102c:	ff 25 a8 00 00 00    	jmp    *0xa8(%rip)        # 4010da <_handleIntr>

0000000000401032 <interruptEntry06>:
  401032:	6a 00                	push   $0x0
  401034:	6a 06                	push   $0x6
  401036:	ff 25 9e 00 00 00    	jmp    *0x9e(%rip)        # 4010da <_handleIntr>

000000000040103c <interruptEntry07>:
  40103c:	6a 00                	push   $0x0
  40103e:	6a 07                	push   $0x7
  401040:	ff 25 94 00 00 00    	jmp    *0x94(%rip)        # 4010da <_handleIntr>

0000000000401046 <interruptEntry08>:
  401046:	6a 08                	push   $0x8
  401048:	ff 25 8c 00 00 00    	jmp    *0x8c(%rip)        # 4010da <_handleIntr>

000000000040104e <interruptEntry09>:
  40104e:	6a 00                	push   $0x0
  401050:	6a 09                	push   $0x9
  401052:	ff 25 82 00 00 00    	jmp    *0x82(%rip)        # 4010da <_handleIntr>

0000000000401058 <interruptEntry0a>:
  401058:	6a 0a                	push   $0xa
  40105a:	ff 25 7a 00 00 00    	jmp    *0x7a(%rip)        # 4010da <_handleIntr>

0000000000401060 <interruptEntry0b>:
  401060:	6a 0b                	push   $0xb
  401062:	ff 25 72 00 00 00    	jmp    *0x72(%rip)        # 4010da <_handleIntr>

0000000000401068 <interruptEntry0c>:
  401068:	6a 0c                	push   $0xc
  40106a:	ff 25 6a 00 00 00    	jmp    *0x6a(%rip)        # 4010da <_handleIntr>

0000000000401070 <interruptEntry0d>:
  401070:	6a 0d                	push   $0xd
  401072:	ff 25 62 00 00 00    	jmp    *0x62(%rip)        # 4010da <_handleIntr>

0000000000401078 <interruptEntry0e>:
  401078:	6a 0e                	push   $0xe
  40107a:	ff 25 5a 00 00 00    	jmp    *0x5a(%rip)        # 4010da <_handleIntr>

0000000000401080 <interruptEntry10>:
  401080:	6a 00                	push   $0x0
  401082:	6a 10                	push   $0x10
  401084:	ff 25 50 00 00 00    	jmp    *0x50(%rip)        # 4010da <_handleIntr>

000000000040108a <interruptEntry11>:
  40108a:	6a 00                	push   $0x0
  40108c:	6a 11                	push   $0x11
  40108e:	ff 25 46 00 00 00    	jmp    *0x46(%rip)        # 4010da <_handleIntr>

0000000000401094 <interruptEntry12>:
  401094:	6a 00                	push   $0x0
  401096:	6a 12                	push   $0x12
  401098:	ff 25 3c 00 00 00    	jmp    *0x3c(%rip)        # 4010da <_handleIntr>

000000000040109e <interruptEntry13>:
  40109e:	6a 00                	push   $0x0
  4010a0:	6a 13                	push   $0x13
  4010a2:	ff 25 32 00 00 00    	jmp    *0x32(%rip)        # 4010da <_handleIntr>

00000000004010a8 <interruptEntry14>:
  4010a8:	6a 00                	push   $0x0
  4010aa:	6a 14                	push   $0x14
  4010ac:	ff 25 28 00 00 00    	jmp    *0x28(%rip)        # 4010da <_handleIntr>

00000000004010b2 <interruptEntry15>:
  4010b2:	6a 00                	push   $0x0
  4010b4:	6a 15                	push   $0x15
  4010b6:	ff 25 1e 00 00 00    	jmp    *0x1e(%rip)        # 4010da <_handleIntr>

00000000004010bc <interruptEntry1c>:
  4010bc:	6a 00                	push   $0x0
  4010be:	6a 1c                	push   $0x1c
  4010c0:	ff 25 14 00 00 00    	jmp    *0x14(%rip)        # 4010da <_handleIntr>

00000000004010c6 <interruptEntry1d>:
  4010c6:	6a 00                	push   $0x0
  4010c8:	6a 1d                	push   $0x1d
  4010ca:	ff 25 0a 00 00 00    	jmp    *0xa(%rip)        # 4010da <_handleIntr>

00000000004010d0 <interruptEntry1e>:
  4010d0:	6a 00                	push   $0x0
  4010d2:	6a 1e                	push   $0x1e
  4010d4:	ff 25 00 00 00 00    	jmp    *0x0(%rip)        # 4010da <_handleIntr>

00000000004010da <_handleIntr>:
  4010da:	50                   	push   %rax
  4010db:	53                   	push   %rbx
  4010dc:	51                   	push   %rcx
  4010dd:	52                   	push   %rdx
  4010de:	56                   	push   %rsi
  4010df:	57                   	push   %rdi
  4010e0:	55                   	push   %rbp
  4010e1:	41 50                	push   %r8
  4010e3:	41 51                	push   %r9
  4010e5:	41 52                	push   %r10
  4010e7:	41 53                	push   %r11
  4010e9:	41 54                	push   %r12
  4010eb:	41 55                	push   %r13
  4010ed:	41 56                	push   %r14
  4010ef:	41 57                	push   %r15
  4010f1:	48 89 e7             	mov    %rsp,%rdi
  4010f4:	ff 15 0a 09 00 00    	call   *0x90a(%rip)        # 401a04 <handleInterrupt>
  4010fa:	48 89 c4             	mov    %rax,%rsp
  4010fd:	41 5f                	pop    %r15
  4010ff:	41 5e                	pop    %r14
  401101:	41 5d                	pop    %r13
  401103:	41 5c                	pop    %r12
  401105:	41 5b                	pop    %r11
  401107:	41 5a                	pop    %r10
  401109:	41 59                	pop    %r9
  40110b:	41 58                	pop    %r8
  40110d:	5d                   	pop    %rbp
  40110e:	5f                   	pop    %rdi
  40110f:	5e                   	pop    %rsi
  401110:	5a                   	pop    %rdx
  401111:	59                   	pop    %rcx
  401112:	5b                   	pop    %rbx
  401113:	58                   	pop    %rax
  401114:	48 83 c4 10          	add    $0x10,%rsp
  401118:	48 cf                	iretq  

000000000040111a <makeGDTEntry>:
  40111a:	f3 0f 1e fa          	endbr64 
  40111e:	55                   	push   %rbp
  40111f:	48 89 e5             	mov    %rsp,%rbp
  401122:	48 8d 05 f9 ff ff ff 	lea    -0x7(%rip),%rax        # 401122 <makeGDTEntry+0x8>
  401129:	49 bb 5e 24 00 00 00 	movabs $0x245e,%r11
  401130:	00 00 00 
  401133:	4c 01 d8             	add    %r11,%rax
  401136:	89 f9                	mov    %edi,%ecx
  401138:	89 75 e8             	mov    %esi,-0x18(%rbp)
  40113b:	89 55 e4             	mov    %edx,-0x1c(%rbp)
  40113e:	89 ca                	mov    %ecx,%edx
  401140:	88 55 ec             	mov    %dl,-0x14(%rbp)
  401143:	0f b6 55 ec          	movzbl -0x14(%rbp),%edx
  401147:	48 63 d2             	movslq %edx,%rdx
  40114a:	48 8d 0c d5 00 00 00 	lea    0x0(,%rdx,8),%rcx
  401151:	00 
  401152:	48 ba 40 ed ff ff ff 	movabs $0xffffffffffffed40,%rdx
  401159:	ff ff ff 
  40115c:	48 8d 04 10          	lea    (%rax,%rdx,1),%rax
  401160:	48 01 c8             	add    %rcx,%rax
  401163:	48 89 45 f8          	mov    %rax,-0x8(%rbp)
  401167:	48 8b 45 f8          	mov    -0x8(%rbp),%rax
  40116b:	0f b6 50 05          	movzbl 0x5(%rax),%edx
  40116f:	83 ca 80             	or     $0xffffff80,%edx
  401172:	88 50 05             	mov    %dl,0x5(%rax)
  401175:	8b 45 e4             	mov    -0x1c(%rbp),%eax
  401178:	83 e0 08             	and    $0x8,%eax
  40117b:	48 85 c0             	test   %rax,%rax
  40117e:	0f 95 c2             	setne  %dl
  401181:	48 8b 45 f8          	mov    -0x8(%rbp),%rax
  401185:	83 e2 01             	and    $0x1,%edx
  401188:	89 d1                	mov    %edx,%ecx
  40118a:	c1 e1 05             	shl    $0x5,%ecx
  40118d:	0f b6 50 06          	movzbl 0x6(%rax),%edx
  401191:	83 e2 df             	and    $0xffffffdf,%edx
  401194:	09 ca                	or     %ecx,%edx
  401196:	88 50 06             	mov    %dl,0x6(%rax)
  401199:	48 8b 45 f8          	mov    -0x8(%rbp),%rax
  40119d:	0f b6 50 05          	movzbl 0x5(%rax),%edx
  4011a1:	83 ca 10             	or     $0x10,%edx
  4011a4:	88 50 05             	mov    %dl,0x5(%rax)
  4011a7:	8b 45 e8             	mov    -0x18(%rbp),%eax
  4011aa:	83 e0 03             	and    $0x3,%eax
  4011ad:	48 8b 55 f8          	mov    -0x8(%rbp),%rdx
  4011b1:	83 e0 03             	and    $0x3,%eax
  4011b4:	c1 e0 05             	shl    $0x5,%eax
  4011b7:	89 c1                	mov    %eax,%ecx
  4011b9:	0f b6 42 05          	movzbl 0x5(%rdx),%eax
  4011bd:	83 e0 9f             	and    $0xffffff9f,%eax
  4011c0:	09 c8                	or     %ecx,%eax
  4011c2:	88 42 05             	mov    %al,0x5(%rdx)
  4011c5:	8b 45 e4             	mov    -0x1c(%rbp),%eax
  4011c8:	83 e0 0f             	and    $0xf,%eax
  4011cb:	48 8b 55 f8          	mov    -0x8(%rbp),%rdx
  4011cf:	83 e0 0f             	and    $0xf,%eax
  4011d2:	89 c1                	mov    %eax,%ecx
  4011d4:	0f b6 42 05          	movzbl 0x5(%rdx),%eax
  4011d8:	83 e0 f0             	and    $0xfffffff0,%eax
  4011db:	09 c8                	or     %ecx,%eax
  4011dd:	88 42 05             	mov    %al,0x5(%rdx)
  4011e0:	90                   	nop
  4011e1:	5d                   	pop    %rbp
  4011e2:	c3                   	ret    

00000000004011e3 <makeGDTSSEntry>:
  4011e3:	f3 0f 1e fa          	endbr64 
  4011e7:	55                   	push   %rbp
  4011e8:	48 89 e5             	mov    %rsp,%rbp
  4011eb:	48 8d 05 f9 ff ff ff 	lea    -0x7(%rip),%rax        # 4011eb <makeGDTSSEntry+0x8>
  4011f2:	49 bb 95 23 00 00 00 	movabs $0x2395,%r11
  4011f9:	00 00 00 
  4011fc:	4c 01 d8             	add    %r11,%rax
  4011ff:	48 89 75 e0          	mov    %rsi,-0x20(%rbp)
  401203:	89 55 e8             	mov    %edx,-0x18(%rbp)
  401206:	89 ca                	mov    %ecx,%edx
  401208:	89 f9                	mov    %edi,%ecx
  40120a:	88 4d ec             	mov    %cl,-0x14(%rbp)
  40120d:	88 55 dc             	mov    %dl,-0x24(%rbp)
  401210:	0f b6 55 ec          	movzbl -0x14(%rbp),%edx
  401214:	01 d2                	add    %edx,%edx
  401216:	83 c2 09             	add    $0x9,%edx
  401219:	48 63 d2             	movslq %edx,%rdx
  40121c:	48 8d 0c d5 00 00 00 	lea    0x0(,%rdx,8),%rcx
  401223:	00 
  401224:	48 ba 40 ed ff ff ff 	movabs $0xffffffffffffed40,%rdx
  40122b:	ff ff ff 
  40122e:	48 8d 04 10          	lea    (%rax,%rdx,1),%rax
  401232:	48 01 c8             	add    %rcx,%rax
  401235:	48 89 45 f8          	mov    %rax,-0x8(%rbp)
  401239:	48 8b 45 f8          	mov    -0x8(%rbp),%rax
  40123d:	0f b6 50 05          	movzbl 0x5(%rax),%edx
  401241:	83 ca 80             	or     $0xffffff80,%edx
  401244:	88 50 05             	mov    %dl,0x5(%rax)
  401247:	48 8b 45 f8          	mov    -0x8(%rbp),%rax
  40124b:	0f b6 50 05          	movzbl 0x5(%rax),%edx
  40124f:	83 e2 ef             	and    $0xffffffef,%edx
  401252:	88 50 05             	mov    %dl,0x5(%rax)
  401255:	48 8b 45 f8          	mov    -0x8(%rbp),%rax
  401259:	0f b6 50 05          	movzbl 0x5(%rax),%edx
  40125d:	83 e2 9f             	and    $0xffffff9f,%edx
  401260:	88 50 05             	mov    %dl,0x5(%rax)
  401263:	0f b6 45 dc          	movzbl -0x24(%rbp),%eax
  401267:	83 e0 0f             	and    $0xf,%eax
  40126a:	89 c2                	mov    %eax,%edx
  40126c:	48 8b 45 f8          	mov    -0x8(%rbp),%rax
  401270:	89 d1                	mov    %edx,%ecx
  401272:	83 e1 0f             	and    $0xf,%ecx
  401275:	0f b6 50 05          	movzbl 0x5(%rax),%edx
  401279:	83 e2 f0             	and    $0xfffffff0,%edx
  40127c:	09 ca                	or     %ecx,%edx
  40127e:	88 50 05             	mov    %dl,0x5(%rax)
  401281:	8b 45 e8             	mov    -0x18(%rbp),%eax
  401284:	89 c2                	mov    %eax,%edx
  401286:	48 8b 45 f8          	mov    -0x8(%rbp),%rax
  40128a:	66 89 10             	mov    %dx,(%rax)
  40128d:	8b 45 e8             	mov    -0x18(%rbp),%eax
  401290:	c1 e8 10             	shr    $0x10,%eax
  401293:	83 e0 0f             	and    $0xf,%eax
  401296:	48 8b 55 f8          	mov    -0x8(%rbp),%rdx
  40129a:	83 e0 0f             	and    $0xf,%eax
  40129d:	89 c1                	mov    %eax,%ecx
  40129f:	0f b6 42 06          	movzbl 0x6(%rdx),%eax
  4012a3:	83 e0 f0             	and    $0xfffffff0,%eax
  4012a6:	09 c8                	or     %ecx,%eax
  4012a8:	88 42 06             	mov    %al,0x6(%rdx)
  4012ab:	48 8b 45 e0          	mov    -0x20(%rbp),%rax
  4012af:	89 c2                	mov    %eax,%edx
  4012b1:	48 8b 45 f8          	mov    -0x8(%rbp),%rax
  4012b5:	66 89 50 02          	mov    %dx,0x2(%rax)
  4012b9:	48 8b 45 e0          	mov    -0x20(%rbp),%rax
  4012bd:	48 c1 e8 10          	shr    $0x10,%rax
  4012c1:	89 c2                	mov    %eax,%edx
  4012c3:	48 8b 45 f8          	mov    -0x8(%rbp),%rax
  4012c7:	88 50 04             	mov    %dl,0x4(%rax)
  4012ca:	48 8b 45 e0          	mov    -0x20(%rbp),%rax
  4012ce:	48 c1 e8 18          	shr    $0x18,%rax
  4012d2:	89 c2                	mov    %eax,%edx
  4012d4:	48 8b 45 f8          	mov    -0x8(%rbp),%rax
  4012d8:	88 50 07             	mov    %dl,0x7(%rax)
  4012db:	48 8b 45 e0          	mov    -0x20(%rbp),%rax
  4012df:	48 c1 e8 20          	shr    $0x20,%rax
  4012e3:	89 c2                	mov    %eax,%edx
  4012e5:	48 8b 45 f8          	mov    -0x8(%rbp),%rax
  4012e9:	89 50 08             	mov    %edx,0x8(%rax)
  4012ec:	90                   	nop
  4012ed:	5d                   	pop    %rbp
  4012ee:	c3                   	ret    

00000000004012ef <registerInterrupt>:
  4012ef:	f3 0f 1e fa          	endbr64 
  4012f3:	55                   	push   %rbp
  4012f4:	48 89 e5             	mov    %rsp,%rbp
  4012f7:	48 8d 05 f9 ff ff ff 	lea    -0x7(%rip),%rax        # 4012f7 <registerInterrupt+0x8>
  4012fe:	49 bb 89 22 00 00 00 	movabs $0x2289,%r11
  401305:	00 00 00 
  401308:	4c 01 d8             	add    %r11,%rax
  40130b:	48 89 75 e0          	mov    %rsi,-0x20(%rbp)
  40130f:	44 89 45 d8          	mov    %r8d,-0x28(%rbp)
  401313:	89 fe                	mov    %edi,%esi
  401315:	40 88 75 ec          	mov    %sil,-0x14(%rbp)
  401319:	66 89 55 e8          	mov    %dx,-0x18(%rbp)
  40131d:	89 ca                	mov    %ecx,%edx
  40131f:	88 55 dc             	mov    %dl,-0x24(%rbp)
  401322:	0f b6 55 ec          	movzbl -0x14(%rbp),%edx
  401326:	48 63 d2             	movslq %edx,%rdx
  401329:	48 89 d1             	mov    %rdx,%rcx
  40132c:	48 c1 e1 04          	shl    $0x4,%rcx
  401330:	48 ba 40 ef ff ff ff 	movabs $0xffffffffffffef40,%rdx
  401337:	ff ff ff 
  40133a:	48 8d 04 10          	lea    (%rax,%rdx,1),%rax
  40133e:	48 01 c8             	add    %rcx,%rax
  401341:	48 89 45 f8          	mov    %rax,-0x8(%rbp)
  401345:	48 8b 45 e0          	mov    -0x20(%rbp),%rax
  401349:	89 c2                	mov    %eax,%edx
  40134b:	48 8b 45 f8          	mov    -0x8(%rbp),%rax
  40134f:	66 89 10             	mov    %dx,(%rax)
  401352:	48 8b 45 f8          	mov    -0x8(%rbp),%rax
  401356:	0f b7 55 e8          	movzwl -0x18(%rbp),%edx
  40135a:	66 89 50 02          	mov    %dx,0x2(%rax)
  40135e:	0f b6 45 dc          	movzbl -0x24(%rbp),%eax
  401362:	83 e0 07             	and    $0x7,%eax
  401365:	89 c2                	mov    %eax,%edx
  401367:	48 8b 45 f8          	mov    -0x8(%rbp),%rax
  40136b:	88 50 04             	mov    %dl,0x4(%rax)
  40136e:	8b 45 d8             	mov    -0x28(%rbp),%eax
  401371:	89 c2                	mov    %eax,%edx
  401373:	48 8b 45 f8          	mov    -0x8(%rbp),%rax
  401377:	88 50 05             	mov    %dl,0x5(%rax)
  40137a:	48 8b 45 e0          	mov    -0x20(%rbp),%rax
  40137e:	48 c1 e8 10          	shr    $0x10,%rax
  401382:	89 c2                	mov    %eax,%edx
  401384:	48 8b 45 f8          	mov    -0x8(%rbp),%rax
  401388:	66 89 50 06          	mov    %dx,0x6(%rax)
  40138c:	48 8b 45 e0          	mov    -0x20(%rbp),%rax
  401390:	48 c1 e8 20          	shr    $0x20,%rax
  401394:	89 c2                	mov    %eax,%edx
  401396:	48 8b 45 f8          	mov    -0x8(%rbp),%rax
  40139a:	89 50 08             	mov    %edx,0x8(%rax)
  40139d:	90                   	nop
  40139e:	5d                   	pop    %rbp
  40139f:	c3                   	ret    

00000000004013a0 <loadDT>:
  4013a0:	f3 0f 1e fa          	endbr64 
  4013a4:	55                   	push   %rbp
  4013a5:	48 89 e5             	mov    %rsp,%rbp
  4013a8:	48 8d 05 f9 ff ff ff 	lea    -0x7(%rip),%rax        # 4013a8 <loadDT+0x8>
  4013af:	49 bb d8 21 00 00 00 	movabs $0x21d8,%r11
  4013b6:	00 00 00 
  4013b9:	4c 01 d8             	add    %r11,%rax
  4013bc:	0f 01 15 d5 21 00 00 	lgdt   0x21d5(%rip)        # 403598 <gdtr>
  4013c3:	48 c7 c0 00 00 00 00 	mov    $0x0,%rax
  4013ca:	8e d8                	mov    %eax,%ds
  4013cc:	8e c0                	mov    %eax,%es
  4013ce:	8e e0                	mov    %eax,%fs
  4013d0:	8e e8                	mov    %eax,%gs
  4013d2:	48 c7 c0 00 00 00 00 	mov    $0x0,%rax
  4013d9:	8e d0                	mov    %eax,%ss
  4013db:	6a 08                	push   $0x8
  4013dd:	48 8d 05 03 00 00 00 	lea    0x3(%rip),%rax        # 4013e7 <loadDT+0x47>
  4013e4:	50                   	push   %rax
  4013e5:	48 cb                	lretq  
  4013e7:	0f 01 1d ba 21 00 00 	lidt   0x21ba(%rip)        # 4035a8 <idtr>
  4013ee:	90                   	nop
  4013ef:	5d                   	pop    %rbp
  4013f0:	c3                   	ret    

00000000004013f1 <registerInterruptHandlers>:
  4013f1:	f3 0f 1e fa          	endbr64 
  4013f5:	55                   	push   %rbp
  4013f6:	48 89 e5             	mov    %rsp,%rbp
  4013f9:	41 57                	push   %r15
  4013fb:	53                   	push   %rbx
  4013fc:	48 8d 1d f9 ff ff ff 	lea    -0x7(%rip),%rbx        # 4013fc <registerInterruptHandlers+0xb>
  401403:	49 bb 84 21 00 00 00 	movabs $0x2184,%r11
  40140a:	00 00 00 
  40140d:	4c 01 db             	add    %r11,%rbx
  401410:	48 b8 b8 ff ff ff ff 	movabs $0xffffffffffffffb8,%rax
  401417:	ff ff ff 
  40141a:	48 8b 04 03          	mov    (%rbx,%rax,1),%rax
  40141e:	41 b8 8f 00 00 00    	mov    $0x8f,%r8d
  401424:	b9 00 00 00 00       	mov    $0x0,%ecx
  401429:	ba 08 00 00 00       	mov    $0x8,%edx
  40142e:	48 89 c6             	mov    %rax,%rsi
  401431:	bf 00 00 00 00       	mov    $0x0,%edi
  401436:	49 89 df             	mov    %rbx,%r15
  401439:	48 b8 6f dd ff ff ff 	movabs $0xffffffffffffdd6f,%rax
  401440:	ff ff ff 
  401443:	48 01 d8             	add    %rbx,%rax
  401446:	ff d0                	call   *%rax
  401448:	48 b8 f0 ff ff ff ff 	movabs $0xfffffffffffffff0,%rax
  40144f:	ff ff ff 
  401452:	48 8b 04 03          	mov    (%rbx,%rax,1),%rax
  401456:	41 b8 8f 00 00 00    	mov    $0x8f,%r8d
  40145c:	b9 00 00 00 00       	mov    $0x0,%ecx
  401461:	ba 08 00 00 00       	mov    $0x8,%edx
  401466:	48 89 c6             	mov    %rax,%rsi
  401469:	bf 01 00 00 00       	mov    $0x1,%edi
  40146e:	49 89 df             	mov    %rbx,%r15
  401471:	48 b8 6f dd ff ff ff 	movabs $0xffffffffffffdd6f,%rax
  401478:	ff ff ff 
  40147b:	48 01 d8             	add    %rbx,%rax
  40147e:	ff d0                	call   *%rax
  401480:	48 b8 58 ff ff ff ff 	movabs $0xffffffffffffff58,%rax
  401487:	ff ff ff 
  40148a:	48 8b 04 03          	mov    (%rbx,%rax,1),%rax
  40148e:	41 b8 8f 00 00 00    	mov    $0x8f,%r8d
  401494:	b9 00 00 00 00       	mov    $0x0,%ecx
  401499:	ba 08 00 00 00       	mov    $0x8,%edx
  40149e:	48 89 c6             	mov    %rax,%rsi
  4014a1:	bf 03 00 00 00       	mov    $0x3,%edi
  4014a6:	49 89 df             	mov    %rbx,%r15
  4014a9:	48 b8 6f dd ff ff ff 	movabs $0xffffffffffffdd6f,%rax
  4014b0:	ff ff ff 
  4014b3:	48 01 d8             	add    %rbx,%rax
  4014b6:	ff d0                	call   *%rax
  4014b8:	48 b8 48 ff ff ff ff 	movabs $0xffffffffffffff48,%rax
  4014bf:	ff ff ff 
  4014c2:	48 8b 04 03          	mov    (%rbx,%rax,1),%rax
  4014c6:	41 b8 8f 00 00 00    	mov    $0x8f,%r8d
  4014cc:	b9 00 00 00 00       	mov    $0x0,%ecx
  4014d1:	ba 08 00 00 00       	mov    $0x8,%edx
  4014d6:	48 89 c6             	mov    %rax,%rsi
  4014d9:	bf 04 00 00 00       	mov    $0x4,%edi
  4014de:	49 89 df             	mov    %rbx,%r15
  4014e1:	48 b8 6f dd ff ff ff 	movabs $0xffffffffffffdd6f,%rax
  4014e8:	ff ff ff 
  4014eb:	48 01 d8             	add    %rbx,%rax
  4014ee:	ff d0                	call   *%rax
  4014f0:	48 b8 88 ff ff ff ff 	movabs $0xffffffffffffff88,%rax
  4014f7:	ff ff ff 
  4014fa:	48 8b 04 03          	mov    (%rbx,%rax,1),%rax
  4014fe:	41 b8 8f 00 00 00    	mov    $0x8f,%r8d
  401504:	b9 00 00 00 00       	mov    $0x0,%ecx
  401509:	ba 08 00 00 00       	mov    $0x8,%edx
  40150e:	48 89 c6             	mov    %rax,%rsi
  401511:	bf 05 00 00 00       	mov    $0x5,%edi
  401516:	49 89 df             	mov    %rbx,%r15
  401519:	48 b8 6f dd ff ff ff 	movabs $0xffffffffffffdd6f,%rax
  401520:	ff ff ff 
  401523:	48 01 d8             	add    %rbx,%rax
  401526:	ff d0                	call   *%rax
  401528:	48 b8 78 ff ff ff ff 	movabs $0xffffffffffffff78,%rax
  40152f:	ff ff ff 
  401532:	48 8b 04 03          	mov    (%rbx,%rax,1),%rax
  401536:	41 b8 8f 00 00 00    	mov    $0x8f,%r8d
  40153c:	b9 00 00 00 00       	mov    $0x0,%ecx
  401541:	ba 08 00 00 00       	mov    $0x8,%edx
  401546:	48 89 c6             	mov    %rax,%rsi
  401549:	bf 06 00 00 00       	mov    $0x6,%edi
  40154e:	49 89 df             	mov    %rbx,%r15
  401551:	48 b8 6f dd ff ff ff 	movabs $0xffffffffffffdd6f,%rax
  401558:	ff ff ff 
  40155b:	48 01 d8             	add    %rbx,%rax
  40155e:	ff d0                	call   *%rax
  401560:	48 b8 c8 ff ff ff ff 	movabs $0xffffffffffffffc8,%rax
  401567:	ff ff ff 
  40156a:	48 8b 04 03          	mov    (%rbx,%rax,1),%rax
  40156e:	41 b8 8f 00 00 00    	mov    $0x8f,%r8d
  401574:	b9 00 00 00 00       	mov    $0x0,%ecx
  401579:	ba 08 00 00 00       	mov    $0x8,%edx
  40157e:	48 89 c6             	mov    %rax,%rsi
  401581:	bf 07 00 00 00       	mov    $0x7,%edi
  401586:	49 89 df             	mov    %rbx,%r15
  401589:	48 b8 6f dd ff ff ff 	movabs $0xffffffffffffdd6f,%rax
  401590:	ff ff ff 
  401593:	48 01 d8             	add    %rbx,%rax
  401596:	ff d0                	call   *%rax
  401598:	48 b8 70 ff ff ff ff 	movabs $0xffffffffffffff70,%rax
  40159f:	ff ff ff 
  4015a2:	48 8b 04 03          	mov    (%rbx,%rax,1),%rax
  4015a6:	41 b8 8f 00 00 00    	mov    $0x8f,%r8d
  4015ac:	b9 00 00 00 00       	mov    $0x0,%ecx
  4015b1:	ba 08 00 00 00       	mov    $0x8,%edx
  4015b6:	48 89 c6             	mov    %rax,%rsi
  4015b9:	bf 08 00 00 00       	mov    $0x8,%edi
  4015be:	49 89 df             	mov    %rbx,%r15
  4015c1:	48 b8 6f dd ff ff ff 	movabs $0xffffffffffffdd6f,%rax
  4015c8:	ff ff ff 
  4015cb:	48 01 d8             	add    %rbx,%rax
  4015ce:	ff d0                	call   *%rax
  4015d0:	48 b8 c0 ff ff ff ff 	movabs $0xffffffffffffffc0,%rax
  4015d7:	ff ff ff 
  4015da:	48 8b 04 03          	mov    (%rbx,%rax,1),%rax
  4015de:	41 b8 8f 00 00 00    	mov    $0x8f,%r8d
  4015e4:	b9 00 00 00 00       	mov    $0x0,%ecx
  4015e9:	ba 08 00 00 00       	mov    $0x8,%edx
  4015ee:	48 89 c6             	mov    %rax,%rsi
  4015f1:	bf 09 00 00 00       	mov    $0x9,%edi
  4015f6:	49 89 df             	mov    %rbx,%r15
  4015f9:	48 b8 6f dd ff ff ff 	movabs $0xffffffffffffdd6f,%rax
  401600:	ff ff ff 
  401603:	48 01 d8             	add    %rbx,%rax
  401606:	ff d0                	call   *%rax
  401608:	48 b8 a0 ff ff ff ff 	movabs $0xffffffffffffffa0,%rax
  40160f:	ff ff ff 
  401612:	48 8b 04 03          	mov    (%rbx,%rax,1),%rax
  401616:	41 b8 8f 00 00 00    	mov    $0x8f,%r8d
  40161c:	b9 00 00 00 00       	mov    $0x0,%ecx
  401621:	ba 08 00 00 00       	mov    $0x8,%edx
  401626:	48 89 c6             	mov    %rax,%rsi
  401629:	bf 0a 00 00 00       	mov    $0xa,%edi
  40162e:	49 89 df             	mov    %rbx,%r15
  401631:	48 b8 6f dd ff ff ff 	movabs $0xffffffffffffdd6f,%rax
  401638:	ff ff ff 
  40163b:	48 01 d8             	add    %rbx,%rax
  40163e:	ff d0                	call   *%rax
  401640:	48 b8 a8 ff ff ff ff 	movabs $0xffffffffffffffa8,%rax
  401647:	ff ff ff 
  40164a:	48 8b 04 03          	mov    (%rbx,%rax,1),%rax
  40164e:	41 b8 8f 00 00 00    	mov    $0x8f,%r8d
  401654:	b9 00 00 00 00       	mov    $0x0,%ecx
  401659:	ba 08 00 00 00       	mov    $0x8,%edx
  40165e:	48 89 c6             	mov    %rax,%rsi
  401661:	bf 0b 00 00 00       	mov    $0xb,%edi
  401666:	49 89 df             	mov    %rbx,%r15
  401669:	48 b8 6f dd ff ff ff 	movabs $0xffffffffffffdd6f,%rax
  401670:	ff ff ff 
  401673:	48 01 d8             	add    %rbx,%rax
  401676:	ff d0                	call   *%rax
  401678:	48 b8 50 ff ff ff ff 	movabs $0xffffffffffffff50,%rax
  40167f:	ff ff ff 
  401682:	48 8b 04 03          	mov    (%rbx,%rax,1),%rax
  401686:	41 b8 8f 00 00 00    	mov    $0x8f,%r8d
  40168c:	b9 00 00 00 00       	mov    $0x0,%ecx
  401691:	ba 08 00 00 00       	mov    $0x8,%edx
  401696:	48 89 c6             	mov    %rax,%rsi
  401699:	bf 0c 00 00 00       	mov    $0xc,%edi
  40169e:	49 89 df             	mov    %rbx,%r15
  4016a1:	48 b8 6f dd ff ff ff 	movabs $0xffffffffffffdd6f,%rax
  4016a8:	ff ff ff 
  4016ab:	48 01 d8             	add    %rbx,%rax
  4016ae:	ff d0                	call   *%rax
  4016b0:	48 b8 60 ff ff ff ff 	movabs $0xffffffffffffff60,%rax
  4016b7:	ff ff ff 
  4016ba:	48 8b 04 03          	mov    (%rbx,%rax,1),%rax
  4016be:	41 b8 8f 00 00 00    	mov    $0x8f,%r8d
  4016c4:	b9 00 00 00 00       	mov    $0x0,%ecx
  4016c9:	ba 08 00 00 00       	mov    $0x8,%edx
  4016ce:	48 89 c6             	mov    %rax,%rsi
  4016d1:	bf 0d 00 00 00       	mov    $0xd,%edi
  4016d6:	49 89 df             	mov    %rbx,%r15
  4016d9:	48 b8 6f dd ff ff ff 	movabs $0xffffffffffffdd6f,%rax
  4016e0:	ff ff ff 
  4016e3:	48 01 d8             	add    %rbx,%rax
  4016e6:	ff d0                	call   *%rax
  4016e8:	48 b8 e0 ff ff ff ff 	movabs $0xffffffffffffffe0,%rax
  4016ef:	ff ff ff 
  4016f2:	48 8b 04 03          	mov    (%rbx,%rax,1),%rax
  4016f6:	41 b8 8f 00 00 00    	mov    $0x8f,%r8d
  4016fc:	b9 00 00 00 00       	mov    $0x0,%ecx
  401701:	ba 08 00 00 00       	mov    $0x8,%edx
  401706:	48 89 c6             	mov    %rax,%rsi
  401709:	bf 0e 00 00 00       	mov    $0xe,%edi
  40170e:	49 89 df             	mov    %rbx,%r15
  401711:	48 b8 6f dd ff ff ff 	movabs $0xffffffffffffdd6f,%rax
  401718:	ff ff ff 
  40171b:	48 01 d8             	add    %rbx,%rax
  40171e:	ff d0                	call   *%rax
  401720:	48 b8 80 ff ff ff ff 	movabs $0xffffffffffffff80,%rax
  401727:	ff ff ff 
  40172a:	48 8b 04 03          	mov    (%rbx,%rax,1),%rax
  40172e:	41 b8 8f 00 00 00    	mov    $0x8f,%r8d
  401734:	b9 00 00 00 00       	mov    $0x0,%ecx
  401739:	ba 08 00 00 00       	mov    $0x8,%edx
  40173e:	48 89 c6             	mov    %rax,%rsi
  401741:	bf 10 00 00 00       	mov    $0x10,%edi
  401746:	49 89 df             	mov    %rbx,%r15
  401749:	48 b8 6f dd ff ff ff 	movabs $0xffffffffffffdd6f,%rax
  401750:	ff ff ff 
  401753:	48 01 d8             	add    %rbx,%rax
  401756:	ff d0                	call   *%rax
  401758:	48 b8 68 ff ff ff ff 	movabs $0xffffffffffffff68,%rax
  40175f:	ff ff ff 
  401762:	48 8b 04 03          	mov    (%rbx,%rax,1),%rax
  401766:	41 b8 8f 00 00 00    	mov    $0x8f,%r8d
  40176c:	b9 00 00 00 00       	mov    $0x0,%ecx
  401771:	ba 08 00 00 00       	mov    $0x8,%edx
  401776:	48 89 c6             	mov    %rax,%rsi
  401779:	bf 11 00 00 00       	mov    $0x11,%edi
  40177e:	49 89 df             	mov    %rbx,%r15
  401781:	48 b8 6f dd ff ff ff 	movabs $0xffffffffffffdd6f,%rax
  401788:	ff ff ff 
  40178b:	48 01 d8             	add    %rbx,%rax
  40178e:	ff d0                	call   *%rax
  401790:	48 b8 b0 ff ff ff ff 	movabs $0xffffffffffffffb0,%rax
  401797:	ff ff ff 
  40179a:	48 8b 04 03          	mov    (%rbx,%rax,1),%rax
  40179e:	41 b8 8f 00 00 00    	mov    $0x8f,%r8d
  4017a4:	b9 00 00 00 00       	mov    $0x0,%ecx
  4017a9:	ba 08 00 00 00       	mov    $0x8,%edx
  4017ae:	48 89 c6             	mov    %rax,%rsi
  4017b1:	bf 12 00 00 00       	mov    $0x12,%edi
  4017b6:	49 89 df             	mov    %rbx,%r15
  4017b9:	48 b8 6f dd ff ff ff 	movabs $0xffffffffffffdd6f,%rax
  4017c0:	ff ff ff 
  4017c3:	48 01 d8             	add    %rbx,%rax
  4017c6:	ff d0                	call   *%rax
  4017c8:	48 b8 d0 ff ff ff ff 	movabs $0xffffffffffffffd0,%rax
  4017cf:	ff ff ff 
  4017d2:	48 8b 04 03          	mov    (%rbx,%rax,1),%rax
  4017d6:	41 b8 8f 00 00 00    	mov    $0x8f,%r8d
  4017dc:	b9 00 00 00 00       	mov    $0x0,%ecx
  4017e1:	ba 08 00 00 00       	mov    $0x8,%edx
  4017e6:	48 89 c6             	mov    %rax,%rsi
  4017e9:	bf 13 00 00 00       	mov    $0x13,%edi
  4017ee:	49 89 df             	mov    %rbx,%r15
  4017f1:	48 b8 6f dd ff ff ff 	movabs $0xffffffffffffdd6f,%rax
  4017f8:	ff ff ff 
  4017fb:	48 01 d8             	add    %rbx,%rax
  4017fe:	ff d0                	call   *%rax
  401800:	48 b8 f8 ff ff ff ff 	movabs $0xfffffffffffffff8,%rax
  401807:	ff ff ff 
  40180a:	48 8b 04 03          	mov    (%rbx,%rax,1),%rax
  40180e:	41 b8 8f 00 00 00    	mov    $0x8f,%r8d
  401814:	b9 00 00 00 00       	mov    $0x0,%ecx
  401819:	ba 08 00 00 00       	mov    $0x8,%edx
  40181e:	48 89 c6             	mov    %rax,%rsi
  401821:	bf 14 00 00 00       	mov    $0x14,%edi
  401826:	49 89 df             	mov    %rbx,%r15
  401829:	48 b8 6f dd ff ff ff 	movabs $0xffffffffffffdd6f,%rax
  401830:	ff ff ff 
  401833:	48 01 d8             	add    %rbx,%rax
  401836:	ff d0                	call   *%rax
  401838:	48 b8 e8 ff ff ff ff 	movabs $0xffffffffffffffe8,%rax
  40183f:	ff ff ff 
  401842:	48 8b 04 03          	mov    (%rbx,%rax,1),%rax
  401846:	41 b8 8f 00 00 00    	mov    $0x8f,%r8d
  40184c:	b9 00 00 00 00       	mov    $0x0,%ecx
  401851:	ba 08 00 00 00       	mov    $0x8,%edx
  401856:	48 89 c6             	mov    %rax,%rsi
  401859:	bf 15 00 00 00       	mov    $0x15,%edi
  40185e:	49 89 df             	mov    %rbx,%r15
  401861:	48 b8 6f dd ff ff ff 	movabs $0xffffffffffffdd6f,%rax
  401868:	ff ff ff 
  40186b:	48 01 d8             	add    %rbx,%rax
  40186e:	ff d0                	call   *%rax
  401870:	48 b8 d8 ff ff ff ff 	movabs $0xffffffffffffffd8,%rax
  401877:	ff ff ff 
  40187a:	48 8b 04 03          	mov    (%rbx,%rax,1),%rax
  40187e:	41 b8 8f 00 00 00    	mov    $0x8f,%r8d
  401884:	b9 00 00 00 00       	mov    $0x0,%ecx
  401889:	ba 08 00 00 00       	mov    $0x8,%edx
  40188e:	48 89 c6             	mov    %rax,%rsi
  401891:	bf 1c 00 00 00       	mov    $0x1c,%edi
  401896:	49 89 df             	mov    %rbx,%r15
  401899:	48 b8 6f dd ff ff ff 	movabs $0xffffffffffffdd6f,%rax
  4018a0:	ff ff ff 
  4018a3:	48 01 d8             	add    %rbx,%rax
  4018a6:	ff d0                	call   *%rax
  4018a8:	48 b8 90 ff ff ff ff 	movabs $0xffffffffffffff90,%rax
  4018af:	ff ff ff 
  4018b2:	48 8b 04 03          	mov    (%rbx,%rax,1),%rax
  4018b6:	41 b8 8f 00 00 00    	mov    $0x8f,%r8d
  4018bc:	b9 00 00 00 00       	mov    $0x0,%ecx
  4018c1:	ba 08 00 00 00       	mov    $0x8,%edx
  4018c6:	48 89 c6             	mov    %rax,%rsi
  4018c9:	bf 1d 00 00 00       	mov    $0x1d,%edi
  4018ce:	49 89 df             	mov    %rbx,%r15
  4018d1:	48 b8 6f dd ff ff ff 	movabs $0xffffffffffffdd6f,%rax
  4018d8:	ff ff ff 
  4018db:	48 01 d8             	add    %rbx,%rax
  4018de:	ff d0                	call   *%rax
  4018e0:	48 b8 98 ff ff ff ff 	movabs $0xffffffffffffff98,%rax
  4018e7:	ff ff ff 
  4018ea:	48 8b 04 03          	mov    (%rbx,%rax,1),%rax
  4018ee:	41 b8 8f 00 00 00    	mov    $0x8f,%r8d
  4018f4:	b9 00 00 00 00       	mov    $0x0,%ecx
  4018f9:	ba 08 00 00 00       	mov    $0x8,%edx
  4018fe:	48 89 c6             	mov    %rax,%rsi
  401901:	bf 1e 00 00 00       	mov    $0x1e,%edi
  401906:	49 89 df             	mov    %rbx,%r15
  401909:	48 b8 6f dd ff ff ff 	movabs $0xffffffffffffdd6f,%rax
  401910:	ff ff ff 
  401913:	48 01 d8             	add    %rbx,%rax
  401916:	ff d0                	call   *%rax
  401918:	90                   	nop
  401919:	5b                   	pop    %rbx
  40191a:	41 5f                	pop    %r15
  40191c:	5d                   	pop    %rbp
  40191d:	c3                   	ret    

000000000040191e <platformInit>:
  40191e:	f3 0f 1e fa          	endbr64 
  401922:	55                   	push   %rbp
  401923:	48 89 e5             	mov    %rsp,%rbp
  401926:	41 57                	push   %r15
  401928:	53                   	push   %rbx
  401929:	48 83 ec 10          	sub    $0x10,%rsp
  40192d:	48 8d 1d f9 ff ff ff 	lea    -0x7(%rip),%rbx        # 40192d <platformInit+0xf>
  401934:	49 bb 53 1c 00 00 00 	movabs $0x1c53,%r11
  40193b:	00 00 00 
  40193e:	4c 01 db             	add    %r11,%rbx
  401941:	48 89 7d e8          	mov    %rdi,-0x18(%rbp)
  401945:	ba 08 00 00 00       	mov    $0x8,%edx
  40194a:	be 00 00 00 00       	mov    $0x0,%esi
  40194f:	bf 01 00 00 00       	mov    $0x1,%edi
  401954:	49 89 df             	mov    %rbx,%r15
  401957:	48 b8 9a db ff ff ff 	movabs $0xffffffffffffdb9a,%rax
  40195e:	ff ff ff 
  401961:	48 01 d8             	add    %rbx,%rax
  401964:	ff d0                	call   *%rax
  401966:	ba 02 00 00 00       	mov    $0x2,%edx
  40196b:	be 00 00 00 00       	mov    $0x0,%esi
  401970:	bf 02 00 00 00       	mov    $0x2,%edi
  401975:	49 89 df             	mov    %rbx,%r15
  401978:	48 b8 9a db ff ff ff 	movabs $0xffffffffffffdb9a,%rax
  40197f:	ff ff ff 
  401982:	48 01 d8             	add    %rbx,%rax
  401985:	ff d0                	call   *%rax
  401987:	b8 00 00 00 00       	mov    $0x0,%eax
  40198c:	48 ba 71 de ff ff ff 	movabs $0xffffffffffffde71,%rdx
  401993:	ff ff ff 
  401996:	48 8d 14 13          	lea    (%rbx,%rdx,1),%rdx
  40199a:	ff d2                	call   *%rdx
  40199c:	49 89 df             	mov    %rbx,%r15
  40199f:	b8 00 00 00 00       	mov    $0x0,%eax
  4019a4:	48 ba 20 de ff ff ff 	movabs $0xffffffffffffde20,%rdx
  4019ab:	ff ff ff 
  4019ae:	48 01 da             	add    %rbx,%rdx
  4019b1:	ff d2                	call   *%rdx
  4019b3:	90                   	nop
  4019b4:	48 83 c4 10          	add    $0x10,%rsp
  4019b8:	5b                   	pop    %rbx
  4019b9:	41 5f                	pop    %r15
  4019bb:	5d                   	pop    %rbp
  4019bc:	c3                   	ret    

00000000004019bd <_ZN4EXOS5Utils6StringL6lengthEPKc>:
  4019bd:	f3 0f 1e fa          	endbr64 
  4019c1:	55                   	push   %rbp
  4019c2:	48 89 e5             	mov    %rsp,%rbp
  4019c5:	48 8d 05 f9 ff ff ff 	lea    -0x7(%rip),%rax        # 4019c5 <_ZN4EXOS5Utils6StringL6lengthEPKc+0x8>
  4019cc:	49 bb bb 1b 00 00 00 	movabs $0x1bbb,%r11
  4019d3:	00 00 00 
  4019d6:	4c 01 d8             	add    %r11,%rax
  4019d9:	48 89 7d e8          	mov    %rdi,-0x18(%rbp)
  4019dd:	48 c7 45 f8 00 00 00 	movq   $0x0,-0x8(%rbp)
  4019e4:	00 
  4019e5:	eb 05                	jmp    4019ec <_ZN4EXOS5Utils6StringL6lengthEPKc+0x2f>
  4019e7:	48 83 45 f8 01       	addq   $0x1,-0x8(%rbp)
  4019ec:	48 8b 55 e8          	mov    -0x18(%rbp),%rdx
  4019f0:	48 8b 45 f8          	mov    -0x8(%rbp),%rax
  4019f4:	48 01 d0             	add    %rdx,%rax
  4019f7:	0f b6 00             	movzbl (%rax),%eax
  4019fa:	84 c0                	test   %al,%al
  4019fc:	75 e9                	jne    4019e7 <_ZN4EXOS5Utils6StringL6lengthEPKc+0x2a>
  4019fe:	48 8b 45 f8          	mov    -0x8(%rbp),%rax
  401a02:	5d                   	pop    %rbp
  401a03:	c3                   	ret    

0000000000401a04 <handleInterrupt>:
  401a04:	f3 0f 1e fa          	endbr64 
  401a08:	55                   	push   %rbp
  401a09:	48 89 e5             	mov    %rsp,%rbp
  401a0c:	53                   	push   %rbx
  401a0d:	48 83 ec 48          	sub    $0x48,%rsp
  401a11:	48 8d 1d f9 ff ff ff 	lea    -0x7(%rip),%rbx        # 401a11 <handleInterrupt+0xd>
  401a18:	49 bb 6f 1b 00 00 00 	movabs $0x1b6f,%r11
  401a1f:	00 00 00 
  401a22:	4c 01 db             	add    %r11,%rbx
  401a25:	48 89 7d b8          	mov    %rdi,-0x48(%rbp)
  401a29:	48 8d 45 d0          	lea    -0x30(%rbp),%rax
  401a2d:	be 00 00 00 00       	mov    $0x0,%esi
  401a32:	48 89 c7             	mov    %rax,%rdi
  401a35:	48 b8 a4 ea ff ff ff 	movabs $0xffffffffffffeaa4,%rax
  401a3c:	ff ff ff 
  401a3f:	48 8d 04 03          	lea    (%rbx,%rax,1),%rax
  401a43:	ff d0                	call   *%rax
  401a45:	48 8d 55 d0          	lea    -0x30(%rbp),%rdx
  401a49:	48 8d 45 c8          	lea    -0x38(%rbp),%rax
  401a4d:	48 89 d6             	mov    %rdx,%rsi
  401a50:	48 89 c7             	mov    %rax,%rdi
  401a53:	48 b8 e0 eb ff ff ff 	movabs $0xffffffffffffebe0,%rax
  401a5a:	ff ff ff 
  401a5d:	48 8d 04 03          	lea    (%rbx,%rax,1),%rax
  401a61:	ff d0                	call   *%rax
  401a63:	48 8d 45 c8          	lea    -0x38(%rbp),%rax
  401a67:	48 ba 7b 00 00 00 00 	movabs $0x7b,%rdx
  401a6e:	00 00 00 
  401a71:	48 8d 14 13          	lea    (%rbx,%rdx,1),%rdx
  401a75:	48 89 d6             	mov    %rdx,%rsi
  401a78:	48 89 c7             	mov    %rax,%rdi
  401a7b:	48 b8 86 ec ff ff ff 	movabs $0xffffffffffffec86,%rax
  401a82:	ff ff ff 
  401a85:	48 8d 04 03          	lea    (%rbx,%rax,1),%rax
  401a89:	ff d0                	call   *%rax
  401a8b:	48 c7 45 e8 00 00 00 	movq   $0x0,-0x18(%rbp)
  401a92:	00 
  401a93:	eb 2d                	jmp    401ac2 <handleInterrupt+0xbe>
  401a95:	48 8d 45 c8          	lea    -0x38(%rbp),%rax
  401a99:	48 ba 88 00 00 00 00 	movabs $0x88,%rdx
  401aa0:	00 00 00 
  401aa3:	48 8d 14 13          	lea    (%rbx,%rdx,1),%rdx
  401aa7:	48 89 d6             	mov    %rdx,%rsi
  401aaa:	48 89 c7             	mov    %rax,%rdi
  401aad:	48 b8 12 ec ff ff ff 	movabs $0xffffffffffffec12,%rax
  401ab4:	ff ff ff 
  401ab7:	48 8d 04 03          	lea    (%rbx,%rax,1),%rax
  401abb:	ff d0                	call   *%rax
  401abd:	48 83 45 e8 01       	addq   $0x1,-0x18(%rbp)
  401ac2:	48 8b 45 b8          	mov    -0x48(%rbp),%rax
  401ac6:	48 8b 40 78          	mov    0x78(%rax),%rax
  401aca:	48 39 45 e8          	cmp    %rax,-0x18(%rbp)
  401ace:	72 c5                	jb     401a95 <handleInterrupt+0x91>
  401ad0:	48 8d 45 c8          	lea    -0x38(%rbp),%rax
  401ad4:	48 ba 8a 00 00 00 00 	movabs $0x8a,%rdx
  401adb:	00 00 00 
  401ade:	48 8d 14 13          	lea    (%rbx,%rdx,1),%rdx
  401ae2:	48 89 d6             	mov    %rdx,%rsi
  401ae5:	48 89 c7             	mov    %rax,%rdi
  401ae8:	48 b8 86 ec ff ff ff 	movabs $0xffffffffffffec86,%rax
  401aef:	ff ff ff 
  401af2:	48 8d 04 03          	lea    (%rbx,%rax,1),%rax
  401af6:	ff d0                	call   *%rax
  401af8:	48 8b 45 b8          	mov    -0x48(%rbp),%rax
  401afc:	48 8b 5d f8          	mov    -0x8(%rbp),%rbx
  401b00:	c9                   	leave  
  401b01:	c3                   	ret    

0000000000401b02 <kernelEntry>:
  401b02:	f3 0f 1e fa          	endbr64 
  401b06:	55                   	push   %rbp
  401b07:	48 89 e5             	mov    %rsp,%rbp
  401b0a:	41 57                	push   %r15
  401b0c:	48 83 ec 18          	sub    $0x18,%rsp
  401b10:	48 8d 05 f9 ff ff ff 	lea    -0x7(%rip),%rax        # 401b10 <kernelEntry+0xe>
  401b17:	49 bb 70 1a 00 00 00 	movabs $0x1a70,%r11
  401b1e:	00 00 00 
  401b21:	4c 01 d8             	add    %r11,%rax
  401b24:	48 89 7d e8          	mov    %rdi,-0x18(%rbp)
  401b28:	48 8b 55 e8          	mov    -0x18(%rbp),%rdx
  401b2c:	48 89 d7             	mov    %rdx,%rdi
  401b2f:	49 89 c7             	mov    %rax,%r15
  401b32:	48 ba c3 e5 ff ff ff 	movabs $0xffffffffffffe5c3,%rdx
  401b39:	ff ff ff 
  401b3c:	48 01 c2             	add    %rax,%rdx
  401b3f:	ff d2                	call   *%rdx
  401b41:	eb fe                	jmp    401b41 <kernelEntry+0x3f>

0000000000401b43 <_Z8archInitP10BootConfig>:
  401b43:	f3 0f 1e fa          	endbr64 
  401b47:	55                   	push   %rbp
  401b48:	48 89 e5             	mov    %rsp,%rbp
  401b4b:	41 57                	push   %r15
  401b4d:	53                   	push   %rbx
  401b4e:	48 83 ec 30          	sub    $0x30,%rsp
  401b52:	48 8d 1d f9 ff ff ff 	lea    -0x7(%rip),%rbx        # 401b52 <_Z8archInitP10BootConfig+0xf>
  401b59:	49 bb 2e 1a 00 00 00 	movabs $0x1a2e,%r11
  401b60:	00 00 00 
  401b63:	4c 01 db             	add    %r11,%rbx
  401b66:	48 89 7d c8          	mov    %rdi,-0x38(%rbp)
  401b6a:	48 8d 45 e0          	lea    -0x20(%rbp),%rax
  401b6e:	be 00 00 00 00       	mov    $0x0,%esi
  401b73:	48 89 c7             	mov    %rax,%rdi
  401b76:	48 b8 a4 ea ff ff ff 	movabs $0xffffffffffffeaa4,%rax
  401b7d:	ff ff ff 
  401b80:	48 8d 04 03          	lea    (%rbx,%rax,1),%rax
  401b84:	ff d0                	call   *%rax
  401b86:	48 8d 55 e0          	lea    -0x20(%rbp),%rdx
  401b8a:	48 8d 45 d8          	lea    -0x28(%rbp),%rax
  401b8e:	48 89 d6             	mov    %rdx,%rsi
  401b91:	48 89 c7             	mov    %rax,%rdi
  401b94:	48 b8 e0 eb ff ff ff 	movabs $0xffffffffffffebe0,%rax
  401b9b:	ff ff ff 
  401b9e:	48 8d 04 03          	lea    (%rbx,%rax,1),%rax
  401ba2:	ff d0                	call   *%rax
  401ba4:	48 8b 45 c8          	mov    -0x38(%rbp),%rax
  401ba8:	48 89 c7             	mov    %rax,%rdi
  401bab:	49 89 df             	mov    %rbx,%r15
  401bae:	48 b8 9e e3 ff ff ff 	movabs $0xffffffffffffe39e,%rax
  401bb5:	ff ff ff 
  401bb8:	48 01 d8             	add    %rbx,%rax
  401bbb:	ff d0                	call   *%rax
  401bbd:	48 8d 45 d8          	lea    -0x28(%rbp),%rax
  401bc1:	48 ba 8e 00 00 00 00 	movabs $0x8e,%rdx
  401bc8:	00 00 00 
  401bcb:	48 8d 14 13          	lea    (%rbx,%rdx,1),%rdx
  401bcf:	48 89 d6             	mov    %rdx,%rsi
  401bd2:	48 89 c7             	mov    %rax,%rdi
  401bd5:	48 b8 86 ec ff ff ff 	movabs $0xffffffffffffec86,%rax
  401bdc:	ff ff ff 
  401bdf:	48 8d 04 03          	lea    (%rbx,%rax,1),%rax
  401be3:	ff d0                	call   *%rax
  401be5:	fb                   	sti    
  401be6:	cc                   	int3   
  401be7:	48 8d 45 d8          	lea    -0x28(%rbp),%rax
  401beb:	48 ba 9f 00 00 00 00 	movabs $0x9f,%rdx
  401bf2:	00 00 00 
  401bf5:	48 8d 14 13          	lea    (%rbx,%rdx,1),%rdx
  401bf9:	48 89 d6             	mov    %rdx,%rsi
  401bfc:	48 89 c7             	mov    %rax,%rdi
  401bff:	48 b8 86 ec ff ff ff 	movabs $0xffffffffffffec86,%rax
  401c06:	ff ff ff 
  401c09:	48 8d 04 03          	lea    (%rbx,%rax,1),%rax
  401c0d:	ff d0                	call   *%rax
  401c0f:	90                   	nop
  401c10:	48 83 c4 30          	add    $0x30,%rsp
  401c14:	5b                   	pop    %rbx
  401c15:	41 5f                	pop    %r15
  401c17:	5d                   	pop    %rbp
  401c18:	c3                   	ret    

0000000000401c19 <_ZN4EXOS2IOL4outbEth>:
  401c19:	f3 0f 1e fa          	endbr64 
  401c1d:	55                   	push   %rbp
  401c1e:	48 89 e5             	mov    %rsp,%rbp
  401c21:	48 8d 05 f9 ff ff ff 	lea    -0x7(%rip),%rax        # 401c21 <_ZN4EXOS2IOL4outbEth+0x8>
  401c28:	49 bb 5f 19 00 00 00 	movabs $0x195f,%r11
  401c2f:	00 00 00 
  401c32:	4c 01 d8             	add    %r11,%rax
  401c35:	89 f8                	mov    %edi,%eax
  401c37:	89 f2                	mov    %esi,%edx
  401c39:	66 89 45 fc          	mov    %ax,-0x4(%rbp)
  401c3d:	89 d0                	mov    %edx,%eax
  401c3f:	88 45 f8             	mov    %al,-0x8(%rbp)
  401c42:	0f b6 45 f8          	movzbl -0x8(%rbp),%eax
  401c46:	0f b7 55 fc          	movzwl -0x4(%rbp),%edx
  401c4a:	ee                   	out    %al,(%dx)
  401c4b:	90                   	nop
  401c4c:	5d                   	pop    %rbp
  401c4d:	c3                   	ret    

0000000000401c4e <_ZN4EXOS2IOL3inbEt>:
  401c4e:	f3 0f 1e fa          	endbr64 
  401c52:	55                   	push   %rbp
  401c53:	48 89 e5             	mov    %rsp,%rbp
  401c56:	48 8d 05 f9 ff ff ff 	lea    -0x7(%rip),%rax        # 401c56 <_ZN4EXOS2IOL3inbEt+0x8>
  401c5d:	49 bb 2a 19 00 00 00 	movabs $0x192a,%r11
  401c64:	00 00 00 
  401c67:	4c 01 d8             	add    %r11,%rax
  401c6a:	89 f8                	mov    %edi,%eax
  401c6c:	66 89 45 ec          	mov    %ax,-0x14(%rbp)
  401c70:	c6 45 ff 00          	movb   $0x0,-0x1(%rbp)
  401c74:	0f b7 45 ec          	movzwl -0x14(%rbp),%eax
  401c78:	89 c2                	mov    %eax,%edx
  401c7a:	ec                   	in     (%dx),%al
  401c7b:	88 45 ff             	mov    %al,-0x1(%rbp)
  401c7e:	0f b6 45 ff          	movzbl -0x1(%rbp),%eax
  401c82:	5d                   	pop    %rbp
  401c83:	c3                   	ret    

0000000000401c84 <_Z7getPortN4EXOS6Driver6Serial10SerialPortE>:
  401c84:	f3 0f 1e fa          	endbr64 
  401c88:	55                   	push   %rbp
  401c89:	48 89 e5             	mov    %rsp,%rbp
  401c8c:	53                   	push   %rbx
  401c8d:	48 83 ec 18          	sub    $0x18,%rsp
  401c91:	48 8d 1d f9 ff ff ff 	lea    -0x7(%rip),%rbx        # 401c91 <_Z7getPortN4EXOS6Driver6Serial10SerialPortE+0xd>
  401c98:	49 bb ef 18 00 00 00 	movabs $0x18ef,%r11
  401c9f:	00 00 00 
  401ca2:	4c 01 db             	add    %r11,%rbx
  401ca5:	89 7d e4             	mov    %edi,-0x1c(%rbp)
  401ca8:	66 c7 45 f6 00 00    	movw   $0x0,-0xa(%rbp)
  401cae:	8b 45 e4             	mov    -0x1c(%rbp),%eax
  401cb1:	83 f8 07             	cmp    $0x7,%eax
  401cb4:	77 62                	ja     401d18 <_Z7getPortN4EXOS6Driver6Serial10SerialPortE+0x94>
  401cb6:	89 c0                	mov    %eax,%eax
  401cb8:	48 8d 14 c5 00 00 00 	lea    0x0(,%rax,8),%rdx
  401cbf:	00 
  401cc0:	48 8d 05 79 19 00 00 	lea    0x1979(%rip),%rax        # 403640 <.LC2+0x21>
  401cc7:	48 8b 04 02          	mov    (%rdx,%rax,1),%rax
  401ccb:	48 8d 15 6e 19 00 00 	lea    0x196e(%rip),%rdx        # 403640 <.LC2+0x21>
  401cd2:	48 01 d0             	add    %rdx,%rax
  401cd5:	3e ff e0             	notrack jmp *%rax
  401cd8:	66 c7 45 f6 f8 03    	movw   $0x3f8,-0xa(%rbp)
  401cde:	eb 42                	jmp    401d22 <_Z7getPortN4EXOS6Driver6Serial10SerialPortE+0x9e>
  401ce0:	66 c7 45 f6 f8 02    	movw   $0x2f8,-0xa(%rbp)
  401ce6:	eb 3a                	jmp    401d22 <_Z7getPortN4EXOS6Driver6Serial10SerialPortE+0x9e>
  401ce8:	66 c7 45 f6 e8 03    	movw   $0x3e8,-0xa(%rbp)
  401cee:	eb 32                	jmp    401d22 <_Z7getPortN4EXOS6Driver6Serial10SerialPortE+0x9e>
  401cf0:	66 c7 45 f6 e8 02    	movw   $0x2e8,-0xa(%rbp)
  401cf6:	eb 2a                	jmp    401d22 <_Z7getPortN4EXOS6Driver6Serial10SerialPortE+0x9e>
  401cf8:	66 c7 45 f6 f8 05    	movw   $0x5f8,-0xa(%rbp)
  401cfe:	eb 22                	jmp    401d22 <_Z7getPortN4EXOS6Driver6Serial10SerialPortE+0x9e>
  401d00:	66 c7 45 f6 f8 04    	movw   $0x4f8,-0xa(%rbp)
  401d06:	eb 1a                	jmp    401d22 <_Z7getPortN4EXOS6Driver6Serial10SerialPortE+0x9e>
  401d08:	66 c7 45 f6 e8 05    	movw   $0x5e8,-0xa(%rbp)
  401d0e:	eb 12                	jmp    401d22 <_Z7getPortN4EXOS6Driver6Serial10SerialPortE+0x9e>
  401d10:	66 c7 45 f6 e8 04    	movw   $0x4e8,-0xa(%rbp)
  401d16:	eb 0a                	jmp    401d22 <_Z7getPortN4EXOS6Driver6Serial10SerialPortE+0x9e>
  401d18:	b8 00 00 00 00       	mov    $0x0,%eax
  401d1d:	e9 c0 01 00 00       	jmp    401ee2 <_Z7getPortN4EXOS6Driver6Serial10SerialPortE+0x25e>
  401d22:	8b 45 e4             	mov    -0x1c(%rbp),%eax
  401d25:	48 ba 40 ff ff ff ff 	movabs $0xffffffffffffff40,%rdx
  401d2c:	ff ff ff 
  401d2f:	48 98                	cltq   
  401d31:	48 01 da             	add    %rbx,%rdx
  401d34:	0f b6 04 02          	movzbl (%rdx,%rax,1),%eax
  401d38:	0f b6 c0             	movzbl %al,%eax
  401d3b:	83 e0 01             	and    $0x1,%eax
  401d3e:	48 85 c0             	test   %rax,%rax
  401d41:	0f 85 96 01 00 00    	jne    401edd <_Z7getPortN4EXOS6Driver6Serial10SerialPortE+0x259>
  401d47:	0f b7 45 f6          	movzwl -0xa(%rbp),%eax
  401d4b:	83 c0 01             	add    $0x1,%eax
  401d4e:	0f b7 c0             	movzwl %ax,%eax
  401d51:	be 00 00 00 00       	mov    $0x0,%esi
  401d56:	89 c7                	mov    %eax,%edi
  401d58:	48 b8 99 e6 ff ff ff 	movabs $0xffffffffffffe699,%rax
  401d5f:	ff ff ff 
  401d62:	48 8d 04 03          	lea    (%rbx,%rax,1),%rax
  401d66:	ff d0                	call   *%rax
  401d68:	0f b7 45 f6          	movzwl -0xa(%rbp),%eax
  401d6c:	83 c0 03             	add    $0x3,%eax
  401d6f:	0f b7 c0             	movzwl %ax,%eax
  401d72:	be 80 00 00 00       	mov    $0x80,%esi
  401d77:	89 c7                	mov    %eax,%edi
  401d79:	48 b8 99 e6 ff ff ff 	movabs $0xffffffffffffe699,%rax
  401d80:	ff ff ff 
  401d83:	48 8d 04 03          	lea    (%rbx,%rax,1),%rax
  401d87:	ff d0                	call   *%rax
  401d89:	0f b7 45 f6          	movzwl -0xa(%rbp),%eax
  401d8d:	be 01 00 00 00       	mov    $0x1,%esi
  401d92:	89 c7                	mov    %eax,%edi
  401d94:	48 b8 99 e6 ff ff ff 	movabs $0xffffffffffffe699,%rax
  401d9b:	ff ff ff 
  401d9e:	48 8d 04 03          	lea    (%rbx,%rax,1),%rax
  401da2:	ff d0                	call   *%rax
  401da4:	0f b7 45 f6          	movzwl -0xa(%rbp),%eax
  401da8:	83 c0 01             	add    $0x1,%eax
  401dab:	0f b7 c0             	movzwl %ax,%eax
  401dae:	be 00 00 00 00       	mov    $0x0,%esi
  401db3:	89 c7                	mov    %eax,%edi
  401db5:	48 b8 99 e6 ff ff ff 	movabs $0xffffffffffffe699,%rax
  401dbc:	ff ff ff 
  401dbf:	48 8d 04 03          	lea    (%rbx,%rax,1),%rax
  401dc3:	ff d0                	call   *%rax
  401dc5:	0f b7 45 f6          	movzwl -0xa(%rbp),%eax
  401dc9:	83 c0 03             	add    $0x3,%eax
  401dcc:	0f b7 c0             	movzwl %ax,%eax
  401dcf:	be 03 00 00 00       	mov    $0x3,%esi
  401dd4:	89 c7                	mov    %eax,%edi
  401dd6:	48 b8 99 e6 ff ff ff 	movabs $0xffffffffffffe699,%rax
  401ddd:	ff ff ff 
  401de0:	48 8d 04 03          	lea    (%rbx,%rax,1),%rax
  401de4:	ff d0                	call   *%rax
  401de6:	0f b7 45 f6          	movzwl -0xa(%rbp),%eax
  401dea:	83 c0 02             	add    $0x2,%eax
  401ded:	0f b7 c0             	movzwl %ax,%eax
  401df0:	be c7 00 00 00       	mov    $0xc7,%esi
  401df5:	89 c7                	mov    %eax,%edi
  401df7:	48 b8 99 e6 ff ff ff 	movabs $0xffffffffffffe699,%rax
  401dfe:	ff ff ff 
  401e01:	48 8d 04 03          	lea    (%rbx,%rax,1),%rax
  401e05:	ff d0                	call   *%rax
  401e07:	0f b7 45 f6          	movzwl -0xa(%rbp),%eax
  401e0b:	83 c0 04             	add    $0x4,%eax
  401e0e:	0f b7 c0             	movzwl %ax,%eax
  401e11:	be 0f 00 00 00       	mov    $0xf,%esi
  401e16:	89 c7                	mov    %eax,%edi
  401e18:	48 b8 99 e6 ff ff ff 	movabs $0xffffffffffffe699,%rax
  401e1f:	ff ff ff 
  401e22:	48 8d 04 03          	lea    (%rbx,%rax,1),%rax
  401e26:	ff d0                	call   *%rax
  401e28:	0f b7 45 f6          	movzwl -0xa(%rbp),%eax
  401e2c:	83 c0 04             	add    $0x4,%eax
  401e2f:	0f b7 c0             	movzwl %ax,%eax
  401e32:	be 1e 00 00 00       	mov    $0x1e,%esi
  401e37:	89 c7                	mov    %eax,%edi
  401e39:	48 b8 99 e6 ff ff ff 	movabs $0xffffffffffffe699,%rax
  401e40:	ff ff ff 
  401e43:	48 8d 04 03          	lea    (%rbx,%rax,1),%rax
  401e47:	ff d0                	call   *%rax
  401e49:	0f b7 45 f6          	movzwl -0xa(%rbp),%eax
  401e4d:	be 58 00 00 00       	mov    $0x58,%esi
  401e52:	89 c7                	mov    %eax,%edi
  401e54:	48 b8 99 e6 ff ff ff 	movabs $0xffffffffffffe699,%rax
  401e5b:	ff ff ff 
  401e5e:	48 8d 04 03          	lea    (%rbx,%rax,1),%rax
  401e62:	ff d0                	call   *%rax
  401e64:	0f b7 45 f6          	movzwl -0xa(%rbp),%eax
  401e68:	89 c7                	mov    %eax,%edi
  401e6a:	48 b8 ce e6 ff ff ff 	movabs $0xffffffffffffe6ce,%rax
  401e71:	ff ff ff 
  401e74:	48 8d 04 03          	lea    (%rbx,%rax,1),%rax
  401e78:	ff d0                	call   *%rax
  401e7a:	3c 58                	cmp    $0x58,%al
  401e7c:	0f 95 c0             	setne  %al
  401e7f:	84 c0                	test   %al,%al
  401e81:	74 07                	je     401e8a <_Z7getPortN4EXOS6Driver6Serial10SerialPortE+0x206>
  401e83:	b8 00 00 00 00       	mov    $0x0,%eax
  401e88:	eb 58                	jmp    401ee2 <_Z7getPortN4EXOS6Driver6Serial10SerialPortE+0x25e>
  401e8a:	0f b7 45 f6          	movzwl -0xa(%rbp),%eax
  401e8e:	83 c0 04             	add    $0x4,%eax
  401e91:	0f b7 c0             	movzwl %ax,%eax
  401e94:	be 0f 00 00 00       	mov    $0xf,%esi
  401e99:	89 c7                	mov    %eax,%edi
  401e9b:	48 b8 99 e6 ff ff ff 	movabs $0xffffffffffffe699,%rax
  401ea2:	ff ff ff 
  401ea5:	48 8d 04 03          	lea    (%rbx,%rax,1),%rax
  401ea9:	ff d0                	call   *%rax
  401eab:	8b 45 e4             	mov    -0x1c(%rbp),%eax
  401eae:	48 ba 40 ff ff ff ff 	movabs $0xffffffffffffff40,%rdx
  401eb5:	ff ff ff 
  401eb8:	48 98                	cltq   
  401eba:	48 01 da             	add    %rbx,%rdx
  401ebd:	0f b6 14 02          	movzbl (%rdx,%rax,1),%edx
  401ec1:	8b 45 e4             	mov    -0x1c(%rbp),%eax
  401ec4:	89 d1                	mov    %edx,%ecx
  401ec6:	83 c9 01             	or     $0x1,%ecx
  401ec9:	48 ba 40 ff ff ff ff 	movabs $0xffffffffffffff40,%rdx
  401ed0:	ff ff ff 
  401ed3:	48 98                	cltq   
  401ed5:	48 01 da             	add    %rbx,%rdx
  401ed8:	88 0c 02             	mov    %cl,(%rdx,%rax,1)
  401edb:	eb 01                	jmp    401ede <_Z7getPortN4EXOS6Driver6Serial10SerialPortE+0x25a>
  401edd:	90                   	nop
  401ede:	0f b7 45 f6          	movzwl -0xa(%rbp),%eax
  401ee2:	48 8b 5d f8          	mov    -0x8(%rbp),%rbx
  401ee6:	c9                   	leave  
  401ee7:	c3                   	ret    

0000000000401ee8 <_ZN4EXOS6Driver6Serial5writeENS1_10SerialPortEh>:
  401ee8:	f3 0f 1e fa          	endbr64 
  401eec:	55                   	push   %rbp
  401eed:	48 89 e5             	mov    %rsp,%rbp
  401ef0:	53                   	push   %rbx
  401ef1:	48 83 ec 18          	sub    $0x18,%rsp
  401ef5:	48 8d 1d f9 ff ff ff 	lea    -0x7(%rip),%rbx        # 401ef5 <_ZN4EXOS6Driver6Serial5writeENS1_10SerialPortEh+0xd>
  401efc:	49 bb 8b 16 00 00 00 	movabs $0x168b,%r11
  401f03:	00 00 00 
  401f06:	4c 01 db             	add    %r11,%rbx
  401f09:	89 7d e4             	mov    %edi,-0x1c(%rbp)
  401f0c:	89 f0                	mov    %esi,%eax
  401f0e:	88 45 e0             	mov    %al,-0x20(%rbp)
  401f11:	8b 45 e4             	mov    -0x1c(%rbp),%eax
  401f14:	89 c7                	mov    %eax,%edi
  401f16:	48 b8 04 e7 ff ff ff 	movabs $0xffffffffffffe704,%rax
  401f1d:	ff ff ff 
  401f20:	48 8d 04 03          	lea    (%rbx,%rax,1),%rax
  401f24:	ff d0                	call   *%rax
  401f26:	66 89 45 f6          	mov    %ax,-0xa(%rbp)
  401f2a:	66 83 7d f6 00       	cmpw   $0x0,-0xa(%rbp)
  401f2f:	74 1e                	je     401f4f <_ZN4EXOS6Driver6Serial5writeENS1_10SerialPortEh+0x67>
  401f31:	0f b6 55 e0          	movzbl -0x20(%rbp),%edx
  401f35:	0f b7 45 f6          	movzwl -0xa(%rbp),%eax
  401f39:	89 d6                	mov    %edx,%esi
  401f3b:	89 c7                	mov    %eax,%edi
  401f3d:	48 b8 99 e6 ff ff ff 	movabs $0xffffffffffffe699,%rax
  401f44:	ff ff ff 
  401f47:	48 8d 04 03          	lea    (%rbx,%rax,1),%rax
  401f4b:	ff d0                	call   *%rax
  401f4d:	eb 01                	jmp    401f50 <_ZN4EXOS6Driver6Serial5writeENS1_10SerialPortEh+0x68>
  401f4f:	90                   	nop
  401f50:	48 8b 5d f8          	mov    -0x8(%rbp),%rbx
  401f54:	c9                   	leave  
  401f55:	c3                   	ret    

0000000000401f56 <_ZN4EXOS6Driver6Serial4readENS1_10SerialPortE>:
  401f56:	f3 0f 1e fa          	endbr64 
  401f5a:	55                   	push   %rbp
  401f5b:	48 89 e5             	mov    %rsp,%rbp
  401f5e:	53                   	push   %rbx
  401f5f:	48 83 ec 18          	sub    $0x18,%rsp
  401f63:	48 8d 1d f9 ff ff ff 	lea    -0x7(%rip),%rbx        # 401f63 <_ZN4EXOS6Driver6Serial4readENS1_10SerialPortE+0xd>
  401f6a:	49 bb 1d 16 00 00 00 	movabs $0x161d,%r11
  401f71:	00 00 00 
  401f74:	4c 01 db             	add    %r11,%rbx
  401f77:	89 7d e4             	mov    %edi,-0x1c(%rbp)
  401f7a:	8b 45 e4             	mov    -0x1c(%rbp),%eax
  401f7d:	89 c7                	mov    %eax,%edi
  401f7f:	48 b8 04 e7 ff ff ff 	movabs $0xffffffffffffe704,%rax
  401f86:	ff ff ff 
  401f89:	48 8d 04 03          	lea    (%rbx,%rax,1),%rax
  401f8d:	ff d0                	call   *%rax
  401f8f:	66 89 45 f6          	mov    %ax,-0xa(%rbp)
  401f93:	66 83 7d f6 00       	cmpw   $0x0,-0xa(%rbp)
  401f98:	75 07                	jne    401fa1 <_ZN4EXOS6Driver6Serial4readENS1_10SerialPortE+0x4b>
  401f9a:	b8 00 00 00 00       	mov    $0x0,%eax
  401f9f:	eb 44                	jmp    401fe5 <_ZN4EXOS6Driver6Serial4readENS1_10SerialPortE+0x8f>
  401fa1:	90                   	nop
  401fa2:	0f b7 45 f6          	movzwl -0xa(%rbp),%eax
  401fa6:	83 c0 05             	add    $0x5,%eax
  401fa9:	0f b7 c0             	movzwl %ax,%eax
  401fac:	89 c7                	mov    %eax,%edi
  401fae:	48 b8 ce e6 ff ff ff 	movabs $0xffffffffffffe6ce,%rax
  401fb5:	ff ff ff 
  401fb8:	48 8d 04 03          	lea    (%rbx,%rax,1),%rax
  401fbc:	ff d0                	call   *%rax
  401fbe:	0f b6 c0             	movzbl %al,%eax
  401fc1:	83 e0 20             	and    $0x20,%eax
  401fc4:	48 85 c0             	test   %rax,%rax
  401fc7:	0f 94 c0             	sete   %al
  401fca:	84 c0                	test   %al,%al
  401fcc:	75 d4                	jne    401fa2 <_ZN4EXOS6Driver6Serial4readENS1_10SerialPortE+0x4c>
  401fce:	0f b7 45 f6          	movzwl -0xa(%rbp),%eax
  401fd2:	89 c7                	mov    %eax,%edi
  401fd4:	48 b8 ce e6 ff ff ff 	movabs $0xffffffffffffe6ce,%rax
  401fdb:	ff ff ff 
  401fde:	48 8d 04 03          	lea    (%rbx,%rax,1),%rax
  401fe2:	ff d0                	call   *%rax
  401fe4:	90                   	nop
  401fe5:	48 8b 5d f8          	mov    -0x8(%rbp),%rbx
  401fe9:	c9                   	leave  
  401fea:	c3                   	ret    

Disassembly of section .text._ZN4EXOS5Utils13_OutputStreamC2Ev:

0000000000401fec <_ZN4EXOS5Utils13_OutputStreamC1Ev>:
  401fec:	f3 0f 1e fa          	endbr64 
  401ff0:	55                   	push   %rbp
  401ff1:	48 89 e5             	mov    %rsp,%rbp
  401ff4:	48 8d 05 f9 ff ff ff 	lea    -0x7(%rip),%rax        # 401ff4 <_ZN4EXOS5Utils13_OutputStreamC1Ev+0x8>
  401ffb:	49 bb 8c 15 00 00 00 	movabs $0x158c,%r11
  402002:	00 00 00 
  402005:	4c 01 d8             	add    %r11,%rax
  402008:	48 89 7d f8          	mov    %rdi,-0x8(%rbp)
  40200c:	48 ba 68 00 00 00 00 	movabs $0x68,%rdx
  402013:	00 00 00 
  402016:	48 8d 14 10          	lea    (%rax,%rdx,1),%rdx
  40201a:	48 8b 45 f8          	mov    -0x8(%rbp),%rax
  40201e:	48 89 10             	mov    %rdx,(%rax)
  402021:	90                   	nop
  402022:	5d                   	pop    %rbp
  402023:	c3                   	ret    

Disassembly of section .text._ZN4EXOS5Utils18SerialOutputStreamC2ENS_6Driver6Serial10SerialPortE:

0000000000402024 <_ZN4EXOS5Utils18SerialOutputStreamC1ENS_6Driver6Serial10SerialPortE>:
  402024:	f3 0f 1e fa          	endbr64 
  402028:	55                   	push   %rbp
  402029:	48 89 e5             	mov    %rsp,%rbp
  40202c:	53                   	push   %rbx
  40202d:	48 83 ec 18          	sub    $0x18,%rsp
  402031:	48 8d 1d f9 ff ff ff 	lea    -0x7(%rip),%rbx        # 402031 <_ZN4EXOS5Utils18SerialOutputStreamC1ENS_6Driver6Serial10SerialPortE+0xd>
  402038:	49 bb 4f 15 00 00 00 	movabs $0x154f,%r11
  40203f:	00 00 00 
  402042:	4c 01 db             	add    %r11,%rbx
  402045:	48 89 7d e8          	mov    %rdi,-0x18(%rbp)
  402049:	89 75 e4             	mov    %esi,-0x1c(%rbp)
  40204c:	48 8b 45 e8          	mov    -0x18(%rbp),%rax
  402050:	48 89 c7             	mov    %rax,%rdi
  402053:	48 b8 6c ea ff ff ff 	movabs $0xffffffffffffea6c,%rax
  40205a:	ff ff ff 
  40205d:	48 8d 04 03          	lea    (%rbx,%rax,1),%rax
  402061:	ff d0                	call   *%rax
  402063:	48 b8 48 00 00 00 00 	movabs $0x48,%rax
  40206a:	00 00 00 
  40206d:	48 8d 14 03          	lea    (%rbx,%rax,1),%rdx
  402071:	48 8b 45 e8          	mov    -0x18(%rbp),%rax
  402075:	48 89 10             	mov    %rdx,(%rax)
  402078:	48 8b 45 e8          	mov    -0x18(%rbp),%rax
  40207c:	8b 55 e4             	mov    -0x1c(%rbp),%edx
  40207f:	89 50 08             	mov    %edx,0x8(%rax)
  402082:	90                   	nop
  402083:	48 8b 5d f8          	mov    -0x8(%rbp),%rbx
  402087:	c9                   	leave  
  402088:	c3                   	ret    

Disassembly of section .text._ZN4EXOS5Utils18SerialOutputStream5writeEh:

000000000040208a <_ZN4EXOS5Utils18SerialOutputStream5writeEh>:
  40208a:	f3 0f 1e fa          	endbr64 
  40208e:	55                   	push   %rbp
  40208f:	48 89 e5             	mov    %rsp,%rbp
  402092:	41 57                	push   %r15
  402094:	48 83 ec 18          	sub    $0x18,%rsp
  402098:	48 8d 05 f9 ff ff ff 	lea    -0x7(%rip),%rax        # 402098 <_ZN4EXOS5Utils18SerialOutputStream5writeEh+0xe>
  40209f:	49 bb e8 14 00 00 00 	movabs $0x14e8,%r11
  4020a6:	00 00 00 
  4020a9:	4c 01 d8             	add    %r11,%rax
  4020ac:	48 89 7d e8          	mov    %rdi,-0x18(%rbp)
  4020b0:	89 f2                	mov    %esi,%edx
  4020b2:	88 55 e4             	mov    %dl,-0x1c(%rbp)
  4020b5:	0f b6 4d e4          	movzbl -0x1c(%rbp),%ecx
  4020b9:	48 8b 55 e8          	mov    -0x18(%rbp),%rdx
  4020bd:	8b 52 08             	mov    0x8(%rdx),%edx
  4020c0:	89 ce                	mov    %ecx,%esi
  4020c2:	89 d7                	mov    %edx,%edi
  4020c4:	49 89 c7             	mov    %rax,%r15
  4020c7:	48 ba 68 e9 ff ff ff 	movabs $0xffffffffffffe968,%rdx
  4020ce:	ff ff ff 
  4020d1:	48 01 c2             	add    %rax,%rdx
  4020d4:	ff d2                	call   *%rdx
  4020d6:	90                   	nop
  4020d7:	4c 8b 7d f8          	mov    -0x8(%rbp),%r15
  4020db:	c9                   	leave  
  4020dc:	c3                   	ret    

Disassembly of section .text._ZN4EXOS5Utils18SerialOutputStream5writeEPKvm:

00000000004020de <_ZN4EXOS5Utils18SerialOutputStream5writeEPKvm>:
  4020de:	f3 0f 1e fa          	endbr64 
  4020e2:	55                   	push   %rbp
  4020e3:	48 89 e5             	mov    %rsp,%rbp
  4020e6:	41 57                	push   %r15
  4020e8:	53                   	push   %rbx
  4020e9:	48 83 ec 30          	sub    $0x30,%rsp
  4020ed:	48 8d 1d f9 ff ff ff 	lea    -0x7(%rip),%rbx        # 4020ed <_ZN4EXOS5Utils18SerialOutputStream5writeEPKvm+0xf>
  4020f4:	49 bb 93 14 00 00 00 	movabs $0x1493,%r11
  4020fb:	00 00 00 
  4020fe:	4c 01 db             	add    %r11,%rbx
  402101:	48 89 7d d8          	mov    %rdi,-0x28(%rbp)
  402105:	48 89 75 d0          	mov    %rsi,-0x30(%rbp)
  402109:	48 89 55 c8          	mov    %rdx,-0x38(%rbp)
  40210d:	48 c7 45 e8 00 00 00 	movq   $0x0,-0x18(%rbp)
  402114:	00 
  402115:	eb 33                	jmp    40214a <_ZN4EXOS5Utils18SerialOutputStream5writeEPKvm+0x6c>
  402117:	48 8b 55 d0          	mov    -0x30(%rbp),%rdx
  40211b:	48 8b 45 e8          	mov    -0x18(%rbp),%rax
  40211f:	48 01 d0             	add    %rdx,%rax
  402122:	0f b6 00             	movzbl (%rax),%eax
  402125:	0f b6 d0             	movzbl %al,%edx
  402128:	48 8b 45 d8          	mov    -0x28(%rbp),%rax
  40212c:	8b 40 08             	mov    0x8(%rax),%eax
  40212f:	89 d6                	mov    %edx,%esi
  402131:	89 c7                	mov    %eax,%edi
  402133:	49 89 df             	mov    %rbx,%r15
  402136:	48 b8 68 e9 ff ff ff 	movabs $0xffffffffffffe968,%rax
  40213d:	ff ff ff 
  402140:	48 01 d8             	add    %rbx,%rax
  402143:	ff d0                	call   *%rax
  402145:	48 83 45 e8 01       	addq   $0x1,-0x18(%rbp)
  40214a:	48 8b 45 e8          	mov    -0x18(%rbp),%rax
  40214e:	48 3b 45 c8          	cmp    -0x38(%rbp),%rax
  402152:	72 c3                	jb     402117 <_ZN4EXOS5Utils18SerialOutputStream5writeEPKvm+0x39>
  402154:	90                   	nop
  402155:	90                   	nop
  402156:	48 83 c4 30          	add    $0x30,%rsp
  40215a:	5b                   	pop    %rbx
  40215b:	41 5f                	pop    %r15
  40215d:	5d                   	pop    %rbp
  40215e:	c3                   	ret    

Disassembly of section .text._ZN4EXOS5Utils11PrintWriterC2EPNS0_13_OutputStreamE:

0000000000402160 <_ZN4EXOS5Utils11PrintWriterC1EPNS0_13_OutputStreamE>:
  402160:	f3 0f 1e fa          	endbr64 
  402164:	55                   	push   %rbp
  402165:	48 89 e5             	mov    %rsp,%rbp
  402168:	48 8d 05 f9 ff ff ff 	lea    -0x7(%rip),%rax        # 402168 <_ZN4EXOS5Utils11PrintWriterC1EPNS0_13_OutputStreamE+0x8>
  40216f:	49 bb 18 14 00 00 00 	movabs $0x1418,%r11
  402176:	00 00 00 
  402179:	4c 01 d8             	add    %r11,%rax
  40217c:	48 89 7d f8          	mov    %rdi,-0x8(%rbp)
  402180:	48 89 75 f0          	mov    %rsi,-0x10(%rbp)
  402184:	48 8b 45 f8          	mov    -0x8(%rbp),%rax
  402188:	48 8b 55 f0          	mov    -0x10(%rbp),%rdx
  40218c:	48 89 10             	mov    %rdx,(%rax)
  40218f:	90                   	nop
  402190:	5d                   	pop    %rbp
  402191:	c3                   	ret    

Disassembly of section .text._ZN4EXOS5Utils11PrintWriter5printEPKc:

0000000000402192 <_ZN4EXOS5Utils11PrintWriter5printEPKc>:
  402192:	f3 0f 1e fa          	endbr64 
  402196:	55                   	push   %rbp
  402197:	48 89 e5             	mov    %rsp,%rbp
  40219a:	41 54                	push   %r12
  40219c:	53                   	push   %rbx
  40219d:	48 83 ec 10          	sub    $0x10,%rsp
  4021a1:	48 8d 05 f9 ff ff ff 	lea    -0x7(%rip),%rax        # 4021a1 <_ZN4EXOS5Utils11PrintWriter5printEPKc+0xf>
  4021a8:	49 bb df 13 00 00 00 	movabs $0x13df,%r11
  4021af:	00 00 00 
  4021b2:	4c 01 d8             	add    %r11,%rax
  4021b5:	48 89 7d e8          	mov    %rdi,-0x18(%rbp)
  4021b9:	48 89 75 e0          	mov    %rsi,-0x20(%rbp)
  4021bd:	48 8b 55 e8          	mov    -0x18(%rbp),%rdx
  4021c1:	48 8b 12             	mov    (%rdx),%rdx
  4021c4:	48 8b 12             	mov    (%rdx),%rdx
  4021c7:	48 83 c2 08          	add    $0x8,%rdx
  4021cb:	4c 8b 22             	mov    (%rdx),%r12
  4021ce:	48 8b 55 e8          	mov    -0x18(%rbp),%rdx
  4021d2:	48 8b 1a             	mov    (%rdx),%rbx
  4021d5:	48 8b 55 e0          	mov    -0x20(%rbp),%rdx
  4021d9:	48 89 d7             	mov    %rdx,%rdi
  4021dc:	48 ba 3d e4 ff ff ff 	movabs $0xffffffffffffe43d,%rdx
  4021e3:	ff ff ff 
  4021e6:	48 8d 04 10          	lea    (%rax,%rdx,1),%rax
  4021ea:	ff d0                	call   *%rax
  4021ec:	48 89 c2             	mov    %rax,%rdx
  4021ef:	48 8b 45 e0          	mov    -0x20(%rbp),%rax
  4021f3:	48 89 c6             	mov    %rax,%rsi
  4021f6:	48 89 df             	mov    %rbx,%rdi
  4021f9:	41 ff d4             	call   *%r12
  4021fc:	90                   	nop
  4021fd:	48 83 c4 10          	add    $0x10,%rsp
  402201:	5b                   	pop    %rbx
  402202:	41 5c                	pop    %r12
  402204:	5d                   	pop    %rbp
  402205:	c3                   	ret    

Disassembly of section .text._ZN4EXOS5Utils11PrintWriter7printlnEPKc:

0000000000402206 <_ZN4EXOS5Utils11PrintWriter7printlnEPKc>:
  402206:	f3 0f 1e fa          	endbr64 
  40220a:	55                   	push   %rbp
  40220b:	48 89 e5             	mov    %rsp,%rbp
  40220e:	41 55                	push   %r13
  402210:	41 54                	push   %r12
  402212:	53                   	push   %rbx
  402213:	48 83 ec 18          	sub    $0x18,%rsp
  402217:	48 8d 1d f9 ff ff ff 	lea    -0x7(%rip),%rbx        # 402217 <_ZN4EXOS5Utils11PrintWriter7printlnEPKc+0x11>
  40221e:	49 bb 69 13 00 00 00 	movabs $0x1369,%r11
  402225:	00 00 00 
  402228:	4c 01 db             	add    %r11,%rbx
  40222b:	48 89 7d d8          	mov    %rdi,-0x28(%rbp)
  40222f:	48 89 75 d0          	mov    %rsi,-0x30(%rbp)
  402233:	48 8b 45 d8          	mov    -0x28(%rbp),%rax
  402237:	48 8b 00             	mov    (%rax),%rax
  40223a:	48 8b 00             	mov    (%rax),%rax
  40223d:	48 83 c0 08          	add    $0x8,%rax
  402241:	4c 8b 28             	mov    (%rax),%r13
  402244:	48 8b 45 d8          	mov    -0x28(%rbp),%rax
  402248:	4c 8b 20             	mov    (%rax),%r12
  40224b:	48 8b 45 d0          	mov    -0x30(%rbp),%rax
  40224f:	48 89 c7             	mov    %rax,%rdi
  402252:	48 b8 3d e4 ff ff ff 	movabs $0xffffffffffffe43d,%rax
  402259:	ff ff ff 
  40225c:	48 8d 04 03          	lea    (%rbx,%rax,1),%rax
  402260:	ff d0                	call   *%rax
  402262:	48 89 c2             	mov    %rax,%rdx
  402265:	48 8b 45 d0          	mov    -0x30(%rbp),%rax
  402269:	48 89 c6             	mov    %rax,%rsi
  40226c:	4c 89 e7             	mov    %r12,%rdi
  40226f:	41 ff d5             	call   *%r13
  402272:	48 8b 45 d8          	mov    -0x28(%rbp),%rax
  402276:	48 8b 00             	mov    (%rax),%rax
  402279:	48 8b 00             	mov    (%rax),%rax
  40227c:	48 83 c0 08          	add    $0x8,%rax
  402280:	4c 8b 00             	mov    (%rax),%r8
  402283:	48 8b 45 d8          	mov    -0x28(%rbp),%rax
  402287:	48 8b 00             	mov    (%rax),%rax
  40228a:	ba 02 00 00 00       	mov    $0x2,%edx
  40228f:	48 b9 78 00 00 00 00 	movabs $0x78,%rcx
  402296:	00 00 00 
  402299:	48 8d 0c 0b          	lea    (%rbx,%rcx,1),%rcx
  40229d:	48 89 ce             	mov    %rcx,%rsi
  4022a0:	48 89 c7             	mov    %rax,%rdi
  4022a3:	41 ff d0             	call   *%r8
  4022a6:	90                   	nop
  4022a7:	48 83 c4 18          	add    $0x18,%rsp
  4022ab:	5b                   	pop    %rbx
  4022ac:	41 5c                	pop    %r12
  4022ae:	41 5d                	pop    %r13
  4022b0:	5d                   	pop    %rbp
  4022b1:	c3                   	ret    
